---
triple:          'arm64-apple-darwin'
binary-path:     '/Users/nawafaljohani/Desktop/last/build/ios/Release-iphoneos/abseil/absl.framework/absl'
relocations:
  - { offsetInCU: 0x33, offset: 0x33, size: 0x8, addend: 0x0, symName: _abslVersionString, symObjAddr: 0x0, symBinAddr: 0x57AD0, symSize: 0x0 }
  - { offsetInCU: 0x67, offset: 0x67, size: 0x8, addend: 0x0, symName: _abslVersionNumber, symObjAddr: 0x28, symBinAddr: 0x57AF8, symSize: 0x0 }
  - { offsetInCU: 0x26, offset: 0xA2, size: 0x8, addend: 0x0, symName: __ZN4absl12lts_2022062318debugging_internal17AddressIsReadableEPKv, symObjAddr: 0x0, symBinAddr: 0x4000, symSize: 0x8 }
  - { offsetInCU: 0xB0, offset: 0x12C, size: 0x8, addend: 0x0, symName: __ZN4absl12lts_2022062318debugging_internal17AddressIsReadableEPKv, symObjAddr: 0x0, symBinAddr: 0x4000, symSize: 0x8 }
  - { offsetInCU: 0x26, offset: 0x18B, size: 0x8, addend: 0x0, symName: __ZN4absl12lts_2022062319str_format_internal13FormatArgImpl8DispatchINS1_7VoidPtrEEEbNS2_4DataENS1_24FormatConversionSpecImplEPv, symObjAddr: 0x0, symBinAddr: 0x4008, symSize: 0x34 }
  - { offsetInCU: 0x1047, offset: 0x11AC, size: 0x8, addend: 0x0, symName: __ZN4absl12lts_2022062319str_format_internal12_GLOBAL__N_123ConvertIntImplInnerSlowERKNS2_9IntDigitsENS1_24FormatConversionSpecImplEPNS1_14FormatSinkImplE, symObjAddr: 0x2240, symBinAddr: 0x6248, symSize: 0x244 }
  - { offsetInCU: 0x13F9, offset: 0x155E, size: 0x8, addend: 0x0, symName: __ZN4absl12lts_2022062319str_format_internal12_GLOBAL__N_115ConvertCharImplEhNS1_24FormatConversionSpecImplEPNS1_14FormatSinkImplE, symObjAddr: 0x259C, symBinAddr: 0x65A4, symSize: 0x7C }
  - { offsetInCU: 0x19FB, offset: 0x1B60, size: 0x8, addend: 0x0, symName: __ZN4absl12lts_2022062319str_format_internal17FormatConvertImplENS1_7VoidPtrENS1_24FormatConversionSpecImplEPNS1_14FormatSinkImplE, symObjAddr: 0x34, symBinAddr: 0x403C, symSize: 0xC0 }
  - { offsetInCU: 0x1B51, offset: 0x1CB6, size: 0x8, addend: 0x0, symName: __ZN4absl12lts_2022062319str_format_internal17FormatConvertImplEiNS1_24FormatConversionSpecImplEPNS1_14FormatSinkImplE, symObjAddr: 0xC44, symBinAddr: 0x4C4C, symSize: 0x1E0 }
  - { offsetInCU: 0x1E0E, offset: 0x1F73, size: 0x8, addend: 0x0, symName: __ZN4absl12lts_2022062319str_format_internal13FormatArgImpl8DispatchIjEEbNS2_4DataENS1_24FormatConversionSpecImplEPv, symObjAddr: 0xE24, symBinAddr: 0x4E2C, symSize: 0x60 }
  - { offsetInCU: 0x1E18, offset: 0x1F7D, size: 0x8, addend: 0x0, symName: __ZN4absl12lts_2022062319str_format_internal17FormatConvertImplEcNS1_24FormatConversionSpecImplEPNS1_14FormatSinkImplE, symObjAddr: 0x1AC, symBinAddr: 0x41B4, symSize: 0x1C4 }
  - { offsetInCU: 0x20E8, offset: 0x224D, size: 0x8, addend: 0x0, symName: __ZN4absl12lts_2022062319str_format_internal13FormatArgImpl8DispatchIaEEbNS2_4DataENS1_24FormatConversionSpecImplEPv, symObjAddr: 0x370, symBinAddr: 0x4378, symSize: 0x5C }
  - { offsetInCU: 0x2111, offset: 0x2276, size: 0x8, addend: 0x0, symName: __ZN4absl12lts_2022062319str_format_internal17FormatConvertImplEaNS1_24FormatConversionSpecImplEPNS1_14FormatSinkImplE, symObjAddr: 0x3CC, symBinAddr: 0x43D4, symSize: 0x1C4 }
  - { offsetInCU: 0x23E1, offset: 0x2546, size: 0x8, addend: 0x0, symName: __ZN4absl12lts_2022062319str_format_internal13FormatArgImpl8DispatchIhEEbNS2_4DataENS1_24FormatConversionSpecImplEPv, symObjAddr: 0x590, symBinAddr: 0x4598, symSize: 0x5C }
  - { offsetInCU: 0x23EB, offset: 0x2550, size: 0x8, addend: 0x0, symName: __ZN4absl12lts_2022062319str_format_internal17FormatConvertImplEhNS1_24FormatConversionSpecImplEPNS1_14FormatSinkImplE, symObjAddr: 0x5EC, symBinAddr: 0x45F4, symSize: 0x1A8 }
  - { offsetInCU: 0x2640, offset: 0x27A5, size: 0x8, addend: 0x0, symName: __ZN4absl12lts_2022062319str_format_internal13FormatArgImpl8DispatchIsEEbNS2_4DataENS1_24FormatConversionSpecImplEPv, symObjAddr: 0x794, symBinAddr: 0x479C, symSize: 0x5C }
  - { offsetInCU: 0x264A, offset: 0x27AF, size: 0x8, addend: 0x0, symName: __ZN4absl12lts_2022062319str_format_internal17FormatConvertImplEsNS1_24FormatConversionSpecImplEPNS1_14FormatSinkImplE, symObjAddr: 0x7F0, symBinAddr: 0x47F8, symSize: 0x1DC }
  - { offsetInCU: 0x291A, offset: 0x2A7F, size: 0x8, addend: 0x0, symName: __ZN4absl12lts_2022062319str_format_internal13FormatArgImpl8DispatchItEEbNS2_4DataENS1_24FormatConversionSpecImplEPv, symObjAddr: 0x9CC, symBinAddr: 0x49D4, symSize: 0x5C }
  - { offsetInCU: 0x2924, offset: 0x2A89, size: 0x8, addend: 0x0, symName: __ZN4absl12lts_2022062319str_format_internal17FormatConvertImplEtNS1_24FormatConversionSpecImplEPNS1_14FormatSinkImplE, symObjAddr: 0xA28, symBinAddr: 0x4A30, symSize: 0x1C8 }
  - { offsetInCU: 0x2B79, offset: 0x2CDE, size: 0x8, addend: 0x0, symName: __ZN4absl12lts_2022062319str_format_internal13FormatArgImpl8DispatchIiEEbNS2_4DataENS1_24FormatConversionSpecImplEPv, symObjAddr: 0xBF0, symBinAddr: 0x4BF8, symSize: 0x54 }
  - { offsetInCU: 0x2B83, offset: 0x2CE8, size: 0x8, addend: 0x0, symName: __ZN4absl12lts_2022062319str_format_internal17FormatConvertImplEjNS1_24FormatConversionSpecImplEPNS1_14FormatSinkImplE, symObjAddr: 0xE84, symBinAddr: 0x4E8C, symSize: 0x1C8 }
  - { offsetInCU: 0x2DDE, offset: 0x2F43, size: 0x8, addend: 0x0, symName: __ZN4absl12lts_2022062319str_format_internal13FormatArgImpl8DispatchIlEEbNS2_4DataENS1_24FormatConversionSpecImplEPv, symObjAddr: 0x104C, symBinAddr: 0x5054, symSize: 0x6C }
  - { offsetInCU: 0x2DE8, offset: 0x2F4D, size: 0x8, addend: 0x0, symName: __ZN4absl12lts_2022062319str_format_internal17FormatConvertImplElNS1_24FormatConversionSpecImplEPNS1_14FormatSinkImplE, symObjAddr: 0x10B8, symBinAddr: 0x50C0, symSize: 0x1E0 }
  - { offsetInCU: 0x3105, offset: 0x326A, size: 0x8, addend: 0x0, symName: __ZN4absl12lts_2022062319str_format_internal13FormatArgImpl8DispatchImEEbNS2_4DataENS1_24FormatConversionSpecImplEPv, symObjAddr: 0x1298, symBinAddr: 0x52A0, symSize: 0x60 }
  - { offsetInCU: 0x310F, offset: 0x3274, size: 0x8, addend: 0x0, symName: __ZN4absl12lts_2022062319str_format_internal17FormatConvertImplEmNS1_24FormatConversionSpecImplEPNS1_14FormatSinkImplE, symObjAddr: 0x12F8, symBinAddr: 0x5300, symSize: 0x1C8 }
  - { offsetInCU: 0x336A, offset: 0x34CF, size: 0x8, addend: 0x0, symName: __ZN4absl12lts_2022062319str_format_internal13FormatArgImpl8DispatchIxEEbNS2_4DataENS1_24FormatConversionSpecImplEPv, symObjAddr: 0x14C0, symBinAddr: 0x54C8, symSize: 0x6C }
  - { offsetInCU: 0x3374, offset: 0x34D9, size: 0x8, addend: 0x0, symName: __ZN4absl12lts_2022062319str_format_internal17FormatConvertImplExNS1_24FormatConversionSpecImplEPNS1_14FormatSinkImplE, symObjAddr: 0x152C, symBinAddr: 0x5534, symSize: 0x1E0 }
  - { offsetInCU: 0x3631, offset: 0x3796, size: 0x8, addend: 0x0, symName: __ZN4absl12lts_2022062319str_format_internal13FormatArgImpl8DispatchIyEEbNS2_4DataENS1_24FormatConversionSpecImplEPv, symObjAddr: 0x170C, symBinAddr: 0x5714, symSize: 0x60 }
  - { offsetInCU: 0x363B, offset: 0x37A0, size: 0x8, addend: 0x0, symName: __ZN4absl12lts_2022062319str_format_internal17FormatConvertImplEyNS1_24FormatConversionSpecImplEPNS1_14FormatSinkImplE, symObjAddr: 0x176C, symBinAddr: 0x5774, symSize: 0x1C8 }
  - { offsetInCU: 0x3896, offset: 0x39FB, size: 0x8, addend: 0x0, symName: __ZN4absl12lts_2022062319str_format_internal13FormatArgImpl8DispatchINS0_6int128EEEbNS2_4DataENS1_24FormatConversionSpecImplEPv, symObjAddr: 0x1934, symBinAddr: 0x593C, symSize: 0x58 }
  - { offsetInCU: 0x38A0, offset: 0x3A05, size: 0x8, addend: 0x0, symName: __ZN4absl12lts_2022062319str_format_internal17FormatConvertImplENS0_6int128ENS1_24FormatConversionSpecImplEPNS1_14FormatSinkImplE, symObjAddr: 0x198C, symBinAddr: 0x5994, symSize: 0x1D8 }
  - { offsetInCU: 0x3BA5, offset: 0x3D0A, size: 0x8, addend: 0x0, symName: __ZN4absl12lts_2022062319str_format_internal13FormatArgImpl8DispatchINS0_7uint128EEEbNS2_4DataENS1_24FormatConversionSpecImplEPv, symObjAddr: 0x1B64, symBinAddr: 0x5B6C, symSize: 0x58 }
  - { offsetInCU: 0x3BAF, offset: 0x3D14, size: 0x8, addend: 0x0, symName: __ZN4absl12lts_2022062319str_format_internal17FormatConvertImplENS0_7uint128ENS1_24FormatConversionSpecImplEPNS1_14FormatSinkImplE, symObjAddr: 0x1BBC, symBinAddr: 0x5BC4, symSize: 0x1C0 }
  - { offsetInCU: 0x3E86, offset: 0x3FEB, size: 0x8, addend: 0x0, symName: __ZN4absl12lts_2022062319str_format_internal13FormatArgImpl8DispatchIfEEbNS2_4DataENS1_24FormatConversionSpecImplEPv, symObjAddr: 0x1D7C, symBinAddr: 0x5D84, symSize: 0x68 }
  - { offsetInCU: 0x3F01, offset: 0x4066, size: 0x8, addend: 0x0, symName: __ZN4absl12lts_2022062319str_format_internal17FormatConvertImplEfNS1_24FormatConversionSpecImplEPNS1_14FormatSinkImplE, symObjAddr: 0x1DE4, symBinAddr: 0x5DEC, symSize: 0x40 }
  - { offsetInCU: 0x3FB7, offset: 0x411C, size: 0x8, addend: 0x0, symName: __ZN4absl12lts_2022062319str_format_internal17FormatConvertImplEdNS1_24FormatConversionSpecImplEPNS1_14FormatSinkImplE, symObjAddr: 0x1E8C, symBinAddr: 0x5E94, symSize: 0x40 }
  - { offsetInCU: 0x408C, offset: 0x41F1, size: 0x8, addend: 0x0, symName: __ZN4absl12lts_2022062319str_format_internal17FormatConvertImplEeNS1_24FormatConversionSpecImplEPNS1_14FormatSinkImplE, symObjAddr: 0x1F34, symBinAddr: 0x5F3C, symSize: 0x40 }
  - { offsetInCU: 0x410C, offset: 0x4271, size: 0x8, addend: 0x0, symName: __ZN4absl12lts_2022062319str_format_internal17FormatConvertImplEPKcNS1_24FormatConversionSpecImplEPNS1_14FormatSinkImplE, symObjAddr: 0x1FB8, symBinAddr: 0x5FC0, symSize: 0xDC }
  - { offsetInCU: 0x434D, offset: 0x44B2, size: 0x8, addend: 0x0, symName: __ZN4absl12lts_2022062319str_format_internal13FormatArgImpl8DispatchINSt3__112basic_stringIcNS4_11char_traitsIcEENS4_9allocatorIcEEEEEEbNS2_4DataENS1_24FormatConversionSpecImplEPv, symObjAddr: 0x2094, symBinAddr: 0x609C, symSize: 0x30 }
  - { offsetInCU: 0x437E, offset: 0x44E3, size: 0x8, addend: 0x0, symName: __ZN4absl12lts_2022062319str_format_internal17FormatConvertImplERKNSt3__112basic_stringIcNS2_11char_traitsIcEENS2_9allocatorIcEEEENS1_24FormatConversionSpecImplEPNS1_14FormatSinkImplE, symObjAddr: 0x20C4, symBinAddr: 0x60CC, symSize: 0x60 }
  - { offsetInCU: 0x449E, offset: 0x4603, size: 0x8, addend: 0x0, symName: __ZN4absl12lts_2022062319str_format_internal17FormatConvertImplENS0_11string_viewENS1_24FormatConversionSpecImplEPNS1_14FormatSinkImplE, symObjAddr: 0x2168, symBinAddr: 0x6170, symSize: 0x50 }
  - { offsetInCU: 0xB355, offset: 0xB4BA, size: 0x8, addend: 0x0, symName: __ZN4absl12lts_2022062319str_format_internal13FormatArgImpl8DispatchINS1_7VoidPtrEEEbNS2_4DataENS1_24FormatConversionSpecImplEPv, symObjAddr: 0x0, symBinAddr: 0x4008, symSize: 0x34 }
  - { offsetInCU: 0xB417, offset: 0xB57C, size: 0x8, addend: 0x0, symName: __ZN4absl12lts_2022062319str_format_internal14FormatSinkImpl6AppendENS0_11string_viewE, symObjAddr: 0x21B8, symBinAddr: 0x61C0, symSize: 0x88 }
  - { offsetInCU: 0xB4FE, offset: 0xB663, size: 0x8, addend: 0x0, symName: __ZN4absl12lts_2022062319str_format_internal13FormatArgImpl8DispatchIbEEbNS2_4DataENS1_24FormatConversionSpecImplEPv, symObjAddr: 0xF4, symBinAddr: 0x40FC, symSize: 0x5C }
  - { offsetInCU: 0xB630, offset: 0xB795, size: 0x8, addend: 0x0, symName: __ZN4absl12lts_2022062319str_format_internal13FormatArgImpl8DispatchIcEEbNS2_4DataENS1_24FormatConversionSpecImplEPv, symObjAddr: 0x150, symBinAddr: 0x4158, symSize: 0x5C }
  - { offsetInCU: 0xB907, offset: 0xBA6C, size: 0x8, addend: 0x0, symName: __ZN4absl12lts_2022062319str_format_internal17FormatConvertImplEcNS1_24FormatConversionSpecImplEPNS1_14FormatSinkImplE.cold.2, symObjAddr: 0x273C, symBinAddr: 0x4E038, symSize: 0x24 }
  - { offsetInCU: 0xB9A0, offset: 0xBB05, size: 0x8, addend: 0x0, symName: __ZN4absl12lts_2022062319str_format_internal17FormatConvertImplEcNS1_24FormatConversionSpecImplEPNS1_14FormatSinkImplE.cold.1, symObjAddr: 0x2718, symBinAddr: 0x4E014, symSize: 0x24 }
  - { offsetInCU: 0xBA26, offset: 0xBB8B, size: 0x8, addend: 0x0, symName: __ZN4absl12lts_2022062319str_format_internal13FormatArgImpl8DispatchIaEEbNS2_4DataENS1_24FormatConversionSpecImplEPv, symObjAddr: 0x370, symBinAddr: 0x4378, symSize: 0x5C }
  - { offsetInCU: 0xBB19, offset: 0xBC7E, size: 0x8, addend: 0x0, symName: __ZN4absl12lts_2022062319str_format_internal17FormatConvertImplEaNS1_24FormatConversionSpecImplEPNS1_14FormatSinkImplE.cold.2, symObjAddr: 0x2784, symBinAddr: 0x4E080, symSize: 0x24 }
  - { offsetInCU: 0xBBB2, offset: 0xBD17, size: 0x8, addend: 0x0, symName: __ZN4absl12lts_2022062319str_format_internal17FormatConvertImplEaNS1_24FormatConversionSpecImplEPNS1_14FormatSinkImplE.cold.1, symObjAddr: 0x2760, symBinAddr: 0x4E05C, symSize: 0x24 }
  - { offsetInCU: 0xBC38, offset: 0xBD9D, size: 0x8, addend: 0x0, symName: __ZN4absl12lts_2022062319str_format_internal13FormatArgImpl8DispatchIhEEbNS2_4DataENS1_24FormatConversionSpecImplEPv, symObjAddr: 0x590, symBinAddr: 0x4598, symSize: 0x5C }
  - { offsetInCU: 0xBD01, offset: 0xBE66, size: 0x8, addend: 0x0, symName: __ZN4absl12lts_2022062319str_format_internal17FormatConvertImplEhNS1_24FormatConversionSpecImplEPNS1_14FormatSinkImplE.cold.2, symObjAddr: 0x27CC, symBinAddr: 0x4E0C8, symSize: 0x24 }
  - { offsetInCU: 0xBD9A, offset: 0xBEFF, size: 0x8, addend: 0x0, symName: __ZN4absl12lts_2022062319str_format_internal17FormatConvertImplEhNS1_24FormatConversionSpecImplEPNS1_14FormatSinkImplE.cold.1, symObjAddr: 0x27A8, symBinAddr: 0x4E0A4, symSize: 0x24 }
  - { offsetInCU: 0xBE20, offset: 0xBF85, size: 0x8, addend: 0x0, symName: __ZN4absl12lts_2022062319str_format_internal13FormatArgImpl8DispatchIsEEbNS2_4DataENS1_24FormatConversionSpecImplEPv, symObjAddr: 0x794, symBinAddr: 0x479C, symSize: 0x5C }
  - { offsetInCU: 0xBFE9, offset: 0xC14E, size: 0x8, addend: 0x0, symName: __ZN4absl12lts_2022062319str_format_internal17FormatConvertImplEsNS1_24FormatConversionSpecImplEPNS1_14FormatSinkImplE.cold.2, symObjAddr: 0x2814, symBinAddr: 0x4E110, symSize: 0x24 }
  - { offsetInCU: 0xC082, offset: 0xC1E7, size: 0x8, addend: 0x0, symName: __ZN4absl12lts_2022062319str_format_internal17FormatConvertImplEsNS1_24FormatConversionSpecImplEPNS1_14FormatSinkImplE.cold.1, symObjAddr: 0x27F0, symBinAddr: 0x4E0EC, symSize: 0x24 }
  - { offsetInCU: 0xC108, offset: 0xC26D, size: 0x8, addend: 0x0, symName: __ZN4absl12lts_2022062319str_format_internal13FormatArgImpl8DispatchItEEbNS2_4DataENS1_24FormatConversionSpecImplEPv, symObjAddr: 0x9CC, symBinAddr: 0x49D4, symSize: 0x5C }
  - { offsetInCU: 0xC1D1, offset: 0xC336, size: 0x8, addend: 0x0, symName: __ZN4absl12lts_2022062319str_format_internal17FormatConvertImplEtNS1_24FormatConversionSpecImplEPNS1_14FormatSinkImplE.cold.2, symObjAddr: 0x285C, symBinAddr: 0x4E158, symSize: 0x24 }
  - { offsetInCU: 0xC26A, offset: 0xC3CF, size: 0x8, addend: 0x0, symName: __ZN4absl12lts_2022062319str_format_internal17FormatConvertImplEtNS1_24FormatConversionSpecImplEPNS1_14FormatSinkImplE.cold.1, symObjAddr: 0x2838, symBinAddr: 0x4E134, symSize: 0x24 }
  - { offsetInCU: 0xC2D3, offset: 0xC438, size: 0x8, addend: 0x0, symName: __ZN4absl12lts_2022062319str_format_internal13FormatArgImpl8DispatchIiEEbNS2_4DataENS1_24FormatConversionSpecImplEPv, symObjAddr: 0xBF0, symBinAddr: 0x4BF8, symSize: 0x54 }
  - { offsetInCU: 0xC487, offset: 0xC5EC, size: 0x8, addend: 0x0, symName: __ZN4absl12lts_2022062319str_format_internal17FormatConvertImplEiNS1_24FormatConversionSpecImplEPNS1_14FormatSinkImplE.cold.2, symObjAddr: 0x28A4, symBinAddr: 0x4E1A0, symSize: 0x24 }
  - { offsetInCU: 0xC520, offset: 0xC685, size: 0x8, addend: 0x0, symName: __ZN4absl12lts_2022062319str_format_internal17FormatConvertImplEiNS1_24FormatConversionSpecImplEPNS1_14FormatSinkImplE.cold.1, symObjAddr: 0x2880, symBinAddr: 0x4E17C, symSize: 0x24 }
  - { offsetInCU: 0xC5A6, offset: 0xC70B, size: 0x8, addend: 0x0, symName: __ZN4absl12lts_2022062319str_format_internal13FormatArgImpl8DispatchIjEEbNS2_4DataENS1_24FormatConversionSpecImplEPv, symObjAddr: 0xE24, symBinAddr: 0x4E2C, symSize: 0x60 }
  - { offsetInCU: 0xC66F, offset: 0xC7D4, size: 0x8, addend: 0x0, symName: __ZN4absl12lts_2022062319str_format_internal17FormatConvertImplEjNS1_24FormatConversionSpecImplEPNS1_14FormatSinkImplE.cold.2, symObjAddr: 0x28EC, symBinAddr: 0x4E1E8, symSize: 0x24 }
  - { offsetInCU: 0xC708, offset: 0xC86D, size: 0x8, addend: 0x0, symName: __ZN4absl12lts_2022062319str_format_internal17FormatConvertImplEjNS1_24FormatConversionSpecImplEPNS1_14FormatSinkImplE.cold.1, symObjAddr: 0x28C8, symBinAddr: 0x4E1C4, symSize: 0x24 }
  - { offsetInCU: 0xC78E, offset: 0xC8F3, size: 0x8, addend: 0x0, symName: __ZN4absl12lts_2022062319str_format_internal13FormatArgImpl8DispatchIlEEbNS2_4DataENS1_24FormatConversionSpecImplEPv, symObjAddr: 0x104C, symBinAddr: 0x5054, symSize: 0x6C }
  - { offsetInCU: 0xC915, offset: 0xCA7A, size: 0x8, addend: 0x0, symName: __ZN4absl12lts_2022062319str_format_internal17FormatConvertImplElNS1_24FormatConversionSpecImplEPNS1_14FormatSinkImplE.cold.2, symObjAddr: 0x2934, symBinAddr: 0x4E230, symSize: 0x24 }
  - { offsetInCU: 0xC9AE, offset: 0xCB13, size: 0x8, addend: 0x0, symName: __ZN4absl12lts_2022062319str_format_internal17FormatConvertImplElNS1_24FormatConversionSpecImplEPNS1_14FormatSinkImplE.cold.1, symObjAddr: 0x2910, symBinAddr: 0x4E20C, symSize: 0x24 }
  - { offsetInCU: 0xCA34, offset: 0xCB99, size: 0x8, addend: 0x0, symName: __ZN4absl12lts_2022062319str_format_internal13FormatArgImpl8DispatchImEEbNS2_4DataENS1_24FormatConversionSpecImplEPv, symObjAddr: 0x1298, symBinAddr: 0x52A0, symSize: 0x60 }
  - { offsetInCU: 0xCAFD, offset: 0xCC62, size: 0x8, addend: 0x0, symName: __ZN4absl12lts_2022062319str_format_internal17FormatConvertImplEmNS1_24FormatConversionSpecImplEPNS1_14FormatSinkImplE.cold.2, symObjAddr: 0x297C, symBinAddr: 0x4E278, symSize: 0x24 }
  - { offsetInCU: 0xCB96, offset: 0xCCFB, size: 0x8, addend: 0x0, symName: __ZN4absl12lts_2022062319str_format_internal17FormatConvertImplEmNS1_24FormatConversionSpecImplEPNS1_14FormatSinkImplE.cold.1, symObjAddr: 0x2958, symBinAddr: 0x4E254, symSize: 0x24 }
  - { offsetInCU: 0xCC1C, offset: 0xCD81, size: 0x8, addend: 0x0, symName: __ZN4absl12lts_2022062319str_format_internal13FormatArgImpl8DispatchIxEEbNS2_4DataENS1_24FormatConversionSpecImplEPv, symObjAddr: 0x14C0, symBinAddr: 0x54C8, symSize: 0x6C }
  - { offsetInCU: 0xCDE5, offset: 0xCF4A, size: 0x8, addend: 0x0, symName: __ZN4absl12lts_2022062319str_format_internal17FormatConvertImplExNS1_24FormatConversionSpecImplEPNS1_14FormatSinkImplE.cold.2, symObjAddr: 0x29C4, symBinAddr: 0x4E2C0, symSize: 0x24 }
  - { offsetInCU: 0xCE7E, offset: 0xCFE3, size: 0x8, addend: 0x0, symName: __ZN4absl12lts_2022062319str_format_internal17FormatConvertImplExNS1_24FormatConversionSpecImplEPNS1_14FormatSinkImplE.cold.1, symObjAddr: 0x29A0, symBinAddr: 0x4E29C, symSize: 0x24 }
  - { offsetInCU: 0xCF04, offset: 0xD069, size: 0x8, addend: 0x0, symName: __ZN4absl12lts_2022062319str_format_internal13FormatArgImpl8DispatchIyEEbNS2_4DataENS1_24FormatConversionSpecImplEPv, symObjAddr: 0x170C, symBinAddr: 0x5714, symSize: 0x60 }
  - { offsetInCU: 0xCFCD, offset: 0xD132, size: 0x8, addend: 0x0, symName: __ZN4absl12lts_2022062319str_format_internal17FormatConvertImplEyNS1_24FormatConversionSpecImplEPNS1_14FormatSinkImplE.cold.2, symObjAddr: 0x2A0C, symBinAddr: 0x4E308, symSize: 0x24 }
  - { offsetInCU: 0xD066, offset: 0xD1CB, size: 0x8, addend: 0x0, symName: __ZN4absl12lts_2022062319str_format_internal17FormatConvertImplEyNS1_24FormatConversionSpecImplEPNS1_14FormatSinkImplE.cold.1, symObjAddr: 0x29E8, symBinAddr: 0x4E2E4, symSize: 0x24 }
  - { offsetInCU: 0xD094, offset: 0xD1F9, size: 0x8, addend: 0x0, symName: __ZN4absl12lts_2022062319str_format_internal13FormatArgImpl8DispatchINS0_6int128EEEbNS2_4DataENS1_24FormatConversionSpecImplEPv, symObjAddr: 0x1934, symBinAddr: 0x593C, symSize: 0x58 }
  - { offsetInCU: 0xD21C, offset: 0xD381, size: 0x8, addend: 0x0, symName: __ZN4absl12lts_2022062319str_format_internal12_GLOBAL__N_19IntDigits10PrintAsDecENS0_7uint128Eb, symObjAddr: 0x2670, symBinAddr: 0x6678, symSize: 0xA8 }
  - { offsetInCU: 0xD2EE, offset: 0xD453, size: 0x8, addend: 0x0, symName: __ZN4absl12lts_2022062319str_format_internal12_GLOBAL__N_19IntDigits15PrintAsHexLowerINS0_7uint128EEEvT_, symObjAddr: 0x2618, symBinAddr: 0x6620, symSize: 0x58 }
  - { offsetInCU: 0xD3A2, offset: 0xD507, size: 0x8, addend: 0x0, symName: __ZN4absl12lts_2022062319str_format_internal17FormatConvertImplENS0_6int128ENS1_24FormatConversionSpecImplEPNS1_14FormatSinkImplE.cold.2, symObjAddr: 0x2A54, symBinAddr: 0x4E350, symSize: 0x24 }
  - { offsetInCU: 0xD43B, offset: 0xD5A0, size: 0x8, addend: 0x0, symName: __ZN4absl12lts_2022062319str_format_internal17FormatConvertImplENS0_6int128ENS1_24FormatConversionSpecImplEPNS1_14FormatSinkImplE.cold.1, symObjAddr: 0x2A30, symBinAddr: 0x4E32C, symSize: 0x24 }
  - { offsetInCU: 0xD469, offset: 0xD5CE, size: 0x8, addend: 0x0, symName: __ZN4absl12lts_2022062319str_format_internal13FormatArgImpl8DispatchINS0_7uint128EEEbNS2_4DataENS1_24FormatConversionSpecImplEPv, symObjAddr: 0x1B64, symBinAddr: 0x5B6C, symSize: 0x58 }
  - { offsetInCU: 0xD50F, offset: 0xD674, size: 0x8, addend: 0x0, symName: __ZN4absl12lts_2022062319str_format_internal17FormatConvertImplENS0_7uint128ENS1_24FormatConversionSpecImplEPNS1_14FormatSinkImplE.cold.2, symObjAddr: 0x2A9C, symBinAddr: 0x4E398, symSize: 0x24 }
  - { offsetInCU: 0xD5A8, offset: 0xD70D, size: 0x8, addend: 0x0, symName: __ZN4absl12lts_2022062319str_format_internal17FormatConvertImplENS0_7uint128ENS1_24FormatConversionSpecImplEPNS1_14FormatSinkImplE.cold.1, symObjAddr: 0x2A78, symBinAddr: 0x4E374, symSize: 0x24 }
  - { offsetInCU: 0xD601, offset: 0xD766, size: 0x8, addend: 0x0, symName: __ZN4absl12lts_2022062319str_format_internal13FormatArgImpl8DispatchIfEEbNS2_4DataENS1_24FormatConversionSpecImplEPv, symObjAddr: 0x1D7C, symBinAddr: 0x5D84, symSize: 0x68 }
  - { offsetInCU: 0xD760, offset: 0xD8C5, size: 0x8, addend: 0x0, symName: __ZN4absl12lts_2022062319str_format_internal13FormatArgImpl8DispatchIdEEbNS2_4DataENS1_24FormatConversionSpecImplEPv, symObjAddr: 0x1E24, symBinAddr: 0x5E2C, symSize: 0x68 }
  - { offsetInCU: 0xD8C1, offset: 0xDA26, size: 0x8, addend: 0x0, symName: __ZN4absl12lts_2022062319str_format_internal13FormatArgImpl8DispatchIeEEbNS2_4DataENS1_24FormatConversionSpecImplEPv, symObjAddr: 0x1ECC, symBinAddr: 0x5ED4, symSize: 0x68 }
  - { offsetInCU: 0xD9F7, offset: 0xDB5C, size: 0x8, addend: 0x0, symName: __ZN4absl12lts_2022062319str_format_internal13FormatArgImpl8DispatchIPKcEEbNS2_4DataENS1_24FormatConversionSpecImplEPv, symObjAddr: 0x1F74, symBinAddr: 0x5F7C, symSize: 0x44 }
  - { offsetInCU: 0xDABF, offset: 0xDC24, size: 0x8, addend: 0x0, symName: __ZN4absl12lts_2022062319str_format_internal17FormatConvertImplEPKcNS1_24FormatConversionSpecImplEPNS1_14FormatSinkImplE.cold.1, symObjAddr: 0x2AC0, symBinAddr: 0x4E3BC, symSize: 0x24 }
  - { offsetInCU: 0xDB2D, offset: 0xDC92, size: 0x8, addend: 0x0, symName: __ZN4absl12lts_2022062319str_format_internal13FormatArgImpl8DispatchINSt3__112basic_stringIcNS4_11char_traitsIcEENS4_9allocatorIcEEEEEEbNS2_4DataENS1_24FormatConversionSpecImplEPv, symObjAddr: 0x2094, symBinAddr: 0x609C, symSize: 0x30 }
  - { offsetInCU: 0xDBF8, offset: 0xDD5D, size: 0x8, addend: 0x0, symName: __ZN4absl12lts_2022062319str_format_internal13FormatArgImpl8DispatchINS0_11string_viewEEEbNS2_4DataENS1_24FormatConversionSpecImplEPv, symObjAddr: 0x2124, symBinAddr: 0x612C, symSize: 0x44 }
  - { offsetInCU: 0xDC94, offset: 0xDDF9, size: 0x8, addend: 0x0, symName: __ZN4absl12lts_2022062319str_format_internal14FormatSinkImpl5FlushEv, symObjAddr: 0x2484, symBinAddr: 0x648C, symSize: 0x40 }
  - { offsetInCU: 0xDD55, offset: 0xDEBA, size: 0x8, addend: 0x0, symName: __ZNK4absl12lts_2022062319str_format_internal12_GLOBAL__N_19IntDigits19without_neg_or_zeroEv, symObjAddr: 0x24C4, symBinAddr: 0x64CC, symSize: 0x30 }
  - { offsetInCU: 0xDD81, offset: 0xDEE6, size: 0x8, addend: 0x0, symName: __ZNK4absl12lts_2022062319str_format_internal12_GLOBAL__N_19IntDigits19without_neg_or_zeroEv, symObjAddr: 0x24C4, symBinAddr: 0x64CC, symSize: 0x30 }
  - { offsetInCU: 0xDE22, offset: 0xDF87, size: 0x8, addend: 0x0, symName: __ZN4absl12lts_2022062319str_format_internal14FormatSinkImpl6AppendEmc, symObjAddr: 0x24F4, symBinAddr: 0x64FC, symSize: 0xA8 }
  - { offsetInCU: 0xDE2D, offset: 0xDF92, size: 0x8, addend: 0x0, symName: __ZN4absl12lts_2022062319str_format_internal14FormatSinkImpl6AppendEmc, symObjAddr: 0x24F4, symBinAddr: 0x64FC, symSize: 0xA8 }
  - { offsetInCU: 0xDF17, offset: 0xE07C, size: 0x8, addend: 0x0, symName: __ZN4absl12lts_2022062319str_format_internal14FormatSinkImpl5FlushEv.cold.1, symObjAddr: 0x2AE4, symBinAddr: 0x4E3E0, symSize: 0x24 }
  - { offsetInCU: 0xDF84, offset: 0xE0E9, size: 0x8, addend: 0x0, symName: __ZNK4absl12lts_2022062319str_format_internal12_GLOBAL__N_19IntDigits19without_neg_or_zeroEv.cold.1, symObjAddr: 0x2B08, symBinAddr: 0x4E404, symSize: 0x24 }
  - { offsetInCU: 0xE049, offset: 0xE1AE, size: 0x8, addend: 0x0, symName: _OUTLINED_FUNCTION_0, symObjAddr: 0x2B2C, symBinAddr: 0x6720, symSize: 0x8 }
  - { offsetInCU: 0xE061, offset: 0xE1C6, size: 0x8, addend: 0x0, symName: _OUTLINED_FUNCTION_1, symObjAddr: 0x2B34, symBinAddr: 0x6728, symSize: 0x8 }
  - { offsetInCU: 0x26, offset: 0xE20E, size: 0x8, addend: 0x0, symName: __ZN4absl12lts_2022062315AsciiStrToLowerEPNSt3__112basic_stringIcNS1_11char_traitsIcEENS1_9allocatorIcEEEE, symObjAddr: 0x0, symBinAddr: 0x6730, symSize: 0x3C }
  - { offsetInCU: 0x4E, offset: 0xE236, size: 0x8, addend: 0x0, symName: __ZN4absl12lts_2022062314ascii_internal13kPropertyBitsE, symObjAddr: 0x238, symBinAddr: 0x57BD0, symSize: 0x0 }
  - { offsetInCU: 0x68, offset: 0xE250, size: 0x8, addend: 0x0, symName: __ZN4absl12lts_2022062314ascii_internal8kToLowerE, symObjAddr: 0x338, symBinAddr: 0x57CD0, symSize: 0x0 }
  - { offsetInCU: 0x82, offset: 0xE26A, size: 0x8, addend: 0x0, symName: __ZN4absl12lts_2022062314ascii_internal8kToUpperE, symObjAddr: 0x438, symBinAddr: 0x57DD0, symSize: 0x0 }
  - { offsetInCU: 0xAD, offset: 0xE295, size: 0x8, addend: 0x0, symName: __ZN4absl12lts_2022062315AsciiStrToLowerEPNSt3__112basic_stringIcNS1_11char_traitsIcEENS1_9allocatorIcEEEE, symObjAddr: 0x0, symBinAddr: 0x6730, symSize: 0x3C }
  - { offsetInCU: 0xD6, offset: 0xE2BE, size: 0x8, addend: 0x0, symName: __ZN4absl12lts_2022062315AsciiStrToLowerEPNSt3__112basic_stringIcNS1_11char_traitsIcEENS1_9allocatorIcEEEE, symObjAddr: 0x0, symBinAddr: 0x6730, symSize: 0x3C }
  - { offsetInCU: 0x111, offset: 0xE2F9, size: 0x8, addend: 0x0, symName: __ZN4absl12lts_2022062315AsciiStrToLowerEPNSt3__112basic_stringIcNS1_11char_traitsIcEENS1_9allocatorIcEEEE, symObjAddr: 0x0, symBinAddr: 0x6730, symSize: 0x3C }
  - { offsetInCU: 0x12C, offset: 0xE314, size: 0x8, addend: 0x0, symName: __ZN4absl12lts_2022062315AsciiStrToLowerEPNSt3__112basic_stringIcNS1_11char_traitsIcEENS1_9allocatorIcEEEE, symObjAddr: 0x0, symBinAddr: 0x6730, symSize: 0x3C }
  - { offsetInCU: 0x148, offset: 0xE330, size: 0x8, addend: 0x0, symName: __ZN4absl12lts_2022062315AsciiStrToLowerEPNSt3__112basic_stringIcNS1_11char_traitsIcEENS1_9allocatorIcEEEE, symObjAddr: 0x0, symBinAddr: 0x6730, symSize: 0x3C }
  - { offsetInCU: 0x21A, offset: 0xE402, size: 0x8, addend: 0x0, symName: __ZN4absl12lts_2022062315AsciiStrToUpperEPNSt3__112basic_stringIcNS1_11char_traitsIcEENS1_9allocatorIcEEEE, symObjAddr: 0x3C, symBinAddr: 0x676C, symSize: 0x3C }
  - { offsetInCU: 0x243, offset: 0xE42B, size: 0x8, addend: 0x0, symName: __ZN4absl12lts_2022062315AsciiStrToUpperEPNSt3__112basic_stringIcNS1_11char_traitsIcEENS1_9allocatorIcEEEE, symObjAddr: 0x3C, symBinAddr: 0x676C, symSize: 0x3C }
  - { offsetInCU: 0x27E, offset: 0xE466, size: 0x8, addend: 0x0, symName: __ZN4absl12lts_2022062315AsciiStrToUpperEPNSt3__112basic_stringIcNS1_11char_traitsIcEENS1_9allocatorIcEEEE, symObjAddr: 0x3C, symBinAddr: 0x676C, symSize: 0x3C }
  - { offsetInCU: 0x299, offset: 0xE481, size: 0x8, addend: 0x0, symName: __ZN4absl12lts_2022062315AsciiStrToUpperEPNSt3__112basic_stringIcNS1_11char_traitsIcEENS1_9allocatorIcEEEE, symObjAddr: 0x3C, symBinAddr: 0x676C, symSize: 0x3C }
  - { offsetInCU: 0x2B5, offset: 0xE49D, size: 0x8, addend: 0x0, symName: __ZN4absl12lts_2022062315AsciiStrToUpperEPNSt3__112basic_stringIcNS1_11char_traitsIcEENS1_9allocatorIcEEEE, symObjAddr: 0x3C, symBinAddr: 0x676C, symSize: 0x3C }
  - { offsetInCU: 0x3F1, offset: 0xE5D9, size: 0x8, addend: 0x0, symName: __ZN4absl12lts_2022062326RemoveExtraAsciiWhitespaceEPNSt3__112basic_stringIcNS1_11char_traitsIcEENS1_9allocatorIcEEEE, symObjAddr: 0x78, symBinAddr: 0x67A8, symSize: 0x154 }
  - { offsetInCU: 0x50D2, offset: 0x132BA, size: 0x8, addend: 0x0, symName: __ZNK4absl12lts_2022062311string_view6substrEmm, symObjAddr: 0x1CC, symBinAddr: 0x68FC, symSize: 0x44 }
  - { offsetInCU: 0x51B1, offset: 0x13399, size: 0x8, addend: 0x0, symName: __ZNK4absl12lts_2022062311string_view6substrEmm.cold.1, symObjAddr: 0x210, symBinAddr: 0x4E428, symSize: 0x28 }
  - { offsetInCU: 0x5292, offset: 0x1347A, size: 0x8, addend: 0x0, symName: __ZNK4absl12lts_2022062311string_view6substrEmm.cold.1, symObjAddr: 0x210, symBinAddr: 0x4E428, symSize: 0x28 }
  - { offsetInCU: 0x26, offset: 0x1351E, size: 0x8, addend: 0x0, symName: __ZN4absl12lts_2022062312bad_any_castD2Ev, symObjAddr: 0x0, symBinAddr: 0x6940, symSize: 0x4 }
  - { offsetInCU: 0x2B5C, offset: 0x16054, size: 0x8, addend: 0x0, symName: __ZN4absl12lts_2022062312any_internal15ThrowBadAnyCastEv, symObjAddr: 0x28, symBinAddr: 0x6968, symSize: 0x2C }
  - { offsetInCU: 0x2BD5, offset: 0x160CD, size: 0x8, addend: 0x0, symName: __ZN4absl12lts_2022062312bad_any_castD2Ev, symObjAddr: 0x0, symBinAddr: 0x6940, symSize: 0x4 }
  - { offsetInCU: 0x2C16, offset: 0x1610E, size: 0x8, addend: 0x0, symName: __ZN4absl12lts_2022062312bad_any_castD1Ev, symObjAddr: 0x4, symBinAddr: 0x6944, symSize: 0x4 }
  - { offsetInCU: 0x2C39, offset: 0x16131, size: 0x8, addend: 0x0, symName: __ZN4absl12lts_2022062312bad_any_castD1Ev, symObjAddr: 0x4, symBinAddr: 0x6944, symSize: 0x4 }
  - { offsetInCU: 0x2C6E, offset: 0x16166, size: 0x8, addend: 0x0, symName: __ZN4absl12lts_2022062312bad_any_castD0Ev, symObjAddr: 0x8, symBinAddr: 0x6948, symSize: 0x14 }
  - { offsetInCU: 0x2CD1, offset: 0x161C9, size: 0x8, addend: 0x0, symName: __ZNK4absl12lts_2022062312bad_any_cast4whatEv, symObjAddr: 0x1C, symBinAddr: 0x695C, symSize: 0xC }
  - { offsetInCU: 0x2CF6, offset: 0x161EE, size: 0x8, addend: 0x0, symName: __ZN4absl12lts_2022062312bad_any_castC1Ev, symObjAddr: 0x54, symBinAddr: 0x6994, symSize: 0x20 }
  - { offsetInCU: 0x26, offset: 0x1627C, size: 0x8, addend: 0x0, symName: __ZN4absl12lts_2022062319bad_optional_accessD2Ev, symObjAddr: 0x0, symBinAddr: 0x69B4, symSize: 0x4 }
  - { offsetInCU: 0x2A7A, offset: 0x18CD0, size: 0x8, addend: 0x0, symName: __ZN4absl12lts_2022062317optional_internal25throw_bad_optional_accessEv, symObjAddr: 0x28, symBinAddr: 0x69DC, symSize: 0x30 }
  - { offsetInCU: 0x2ADF, offset: 0x18D35, size: 0x8, addend: 0x0, symName: __ZN4absl12lts_2022062319bad_optional_accessD2Ev, symObjAddr: 0x0, symBinAddr: 0x69B4, symSize: 0x4 }
  - { offsetInCU: 0x2B20, offset: 0x18D76, size: 0x8, addend: 0x0, symName: __ZN4absl12lts_2022062319bad_optional_accessD1Ev, symObjAddr: 0x4, symBinAddr: 0x69B8, symSize: 0x4 }
  - { offsetInCU: 0x2B43, offset: 0x18D99, size: 0x8, addend: 0x0, symName: __ZN4absl12lts_2022062319bad_optional_accessD1Ev, symObjAddr: 0x4, symBinAddr: 0x69B8, symSize: 0x4 }
  - { offsetInCU: 0x2B78, offset: 0x18DCE, size: 0x8, addend: 0x0, symName: __ZN4absl12lts_2022062319bad_optional_accessD0Ev, symObjAddr: 0x8, symBinAddr: 0x69BC, symSize: 0x14 }
  - { offsetInCU: 0x2BDB, offset: 0x18E31, size: 0x8, addend: 0x0, symName: __ZNK4absl12lts_2022062319bad_optional_access4whatEv, symObjAddr: 0x1C, symBinAddr: 0x69D0, symSize: 0xC }
  - { offsetInCU: 0x26, offset: 0x18EB5, size: 0x8, addend: 0x0, symName: __ZN4absl12lts_2022062318bad_variant_accessD2Ev, symObjAddr: 0x0, symBinAddr: 0x6A0C, symSize: 0x4 }
  - { offsetInCU: 0x2A7A, offset: 0x1B909, size: 0x8, addend: 0x0, symName: __ZN4absl12lts_2022062316variant_internal21ThrowBadVariantAccessEv, symObjAddr: 0x28, symBinAddr: 0x6A34, symSize: 0x30 }
  - { offsetInCU: 0x2ACD, offset: 0x1B95C, size: 0x8, addend: 0x0, symName: __ZN4absl12lts_2022062316variant_internal7RethrowEv, symObjAddr: 0x58, symBinAddr: 0x6A64, symSize: 0xC }
  - { offsetInCU: 0x2AF9, offset: 0x1B988, size: 0x8, addend: 0x0, symName: __ZN4absl12lts_2022062318bad_variant_accessD2Ev, symObjAddr: 0x0, symBinAddr: 0x6A0C, symSize: 0x4 }
  - { offsetInCU: 0x2B3A, offset: 0x1B9C9, size: 0x8, addend: 0x0, symName: __ZN4absl12lts_2022062318bad_variant_accessD1Ev, symObjAddr: 0x4, symBinAddr: 0x6A10, symSize: 0x4 }
  - { offsetInCU: 0x2B5D, offset: 0x1B9EC, size: 0x8, addend: 0x0, symName: __ZN4absl12lts_2022062318bad_variant_accessD1Ev, symObjAddr: 0x4, symBinAddr: 0x6A10, symSize: 0x4 }
  - { offsetInCU: 0x2B92, offset: 0x1BA21, size: 0x8, addend: 0x0, symName: __ZN4absl12lts_2022062318bad_variant_accessD0Ev, symObjAddr: 0x8, symBinAddr: 0x6A14, symSize: 0x14 }
  - { offsetInCU: 0x2BF5, offset: 0x1BA84, size: 0x8, addend: 0x0, symName: __ZNK4absl12lts_2022062318bad_variant_access4whatEv, symObjAddr: 0x1C, symBinAddr: 0x6A28, symSize: 0xC }
  - { offsetInCU: 0x26, offset: 0x1BB08, size: 0x8, addend: 0x0, symName: __ZN4absl12lts_202206237Barrier5BlockEv, symObjAddr: 0x0, symBinAddr: 0x6A70, symSize: 0x104 }
  - { offsetInCU: 0x17C9, offset: 0x1D2AB, size: 0x8, addend: 0x0, symName: __ZN4absl12lts_20220623L6IsZeroEPv, symObjAddr: 0x104, symBinAddr: 0x6B74, symSize: 0x10 }
  - { offsetInCU: 0x7B2B, offset: 0x2360D, size: 0x8, addend: 0x0, symName: __ZN4absl12lts_202206237Barrier5BlockEv, symObjAddr: 0x0, symBinAddr: 0x6A70, symSize: 0x104 }
  - { offsetInCU: 0x696, offset: 0x23DC7, size: 0x8, addend: 0x0, symName: __ZN4absl12lts_2022062319str_format_internal9SummarizeENS1_21UntypedFormatSpecImplENS0_4SpanIKNS1_13FormatArgImplEEE, symObjAddr: 0x194, symBinAddr: 0x6D24, symSize: 0x300 }
  - { offsetInCU: 0x1297, offset: 0x249C8, size: 0x8, addend: 0x0, symName: __ZN4absl12lts_2022062319str_format_internal13FormatUntypedENS1_17FormatRawSinkImplENS1_21UntypedFormatSpecImplENS0_4SpanIKNS1_13FormatArgImplEEE, symObjAddr: 0x494, symBinAddr: 0x7024, symSize: 0x2AC }
  - { offsetInCU: 0x1CC8, offset: 0x253F9, size: 0x8, addend: 0x0, symName: __ZN4absl12lts_2022062319str_format_internal12BindWithPackEPKNS1_17UnboundConversionENS0_4SpanIKNS1_13FormatArgImplEEEPNS1_15BoundConversionE, symObjAddr: 0x0, symBinAddr: 0x6B90, symSize: 0x30 }
  - { offsetInCU: 0x2181, offset: 0x258B2, size: 0x8, addend: 0x0, symName: __ZN4absl12lts_2022062319str_format_internal10AppendPackEPNSt3__112basic_stringIcNS2_11char_traitsIcEENS2_9allocatorIcEEEENS1_21UntypedFormatSpecImplENS0_4SpanIKNS1_13FormatArgImplEEE, symObjAddr: 0x798, symBinAddr: 0x7328, symSize: 0x6C }
  - { offsetInCU: 0x225D, offset: 0x2598E, size: 0x8, addend: 0x0, symName: __ZN4absl12lts_2022062319str_format_internal10FormatPackENS1_21UntypedFormatSpecImplENS0_4SpanIKNS1_13FormatArgImplEEE, symObjAddr: 0x804, symBinAddr: 0x7394, symSize: 0x88 }
  - { offsetInCU: 0x2507, offset: 0x25C38, size: 0x8, addend: 0x0, symName: __ZN4absl12lts_2022062319str_format_internal7FprintFEP7__sFILENS1_21UntypedFormatSpecImplENS0_4SpanIKNS1_13FormatArgImplEEE, symObjAddr: 0x88C, symBinAddr: 0x741C, symSize: 0x8C }
  - { offsetInCU: 0x2610, offset: 0x25D41, size: 0x8, addend: 0x0, symName: __ZN4absl12lts_2022062319str_format_internal8SnprintFEPcmNS1_21UntypedFormatSpecImplENS0_4SpanIKNS1_13FormatArgImplEEE, symObjAddr: 0x918, symBinAddr: 0x74A8, symSize: 0x80 }
  - { offsetInCU: 0x6BBF, offset: 0x2A2F0, size: 0x8, addend: 0x0, symName: __ZNSt3__124__put_character_sequenceB8ue170006IcNS_11char_traitsIcEEEERNS_13basic_ostreamIT_T0_EES7_PKS4_m, symObjAddr: 0x1448, symBinAddr: 0x7F8C, symSize: 0x164 }
  - { offsetInCU: 0x995C, offset: 0x2D08D, size: 0x8, addend: 0x0, symName: __ZNSt3__116__pad_and_outputB8ue170006IcNS_11char_traitsIcEEEENS_19ostreambuf_iteratorIT_T0_EES6_PKS4_S8_S8_RNS_8ios_baseES4_, symObjAddr: 0x15AC, symBinAddr: 0x80F0, symSize: 0x13C }
  - { offsetInCU: 0x9F88, offset: 0x2D6B9, size: 0x8, addend: 0x0, symName: __ZNSt3__120__throw_length_errorB8ue170006EPKc, symObjAddr: 0x1794, symBinAddr: 0x82D8, symSize: 0x50 }
  - { offsetInCU: 0xA5AA, offset: 0x2DCDB, size: 0x8, addend: 0x0, symName: __ZNSt3__119__allocate_at_leastB8ue170006INS_9allocatorIN4absl12lts_2022062319str_format_internal13FormatArgImplEEEEENS_19__allocation_resultINS_16allocator_traitsIT_E7pointerEEERS9_m, symObjAddr: 0x1A78, symBinAddr: 0x85BC, symSize: 0x34 }
  - { offsetInCU: 0xACBE, offset: 0x2E3EF, size: 0x8, addend: 0x0, symName: __ZSt28__throw_bad_array_new_lengthB8ue170006v, symObjAddr: 0x1808, symBinAddr: 0x834C, symSize: 0x28 }
  - { offsetInCU: 0xD348, offset: 0x30A79, size: 0x8, addend: 0x0, symName: __ZN4absl12lts_2022062319str_format_internal12_GLOBAL__N_110ArgContext4BindEPKNS1_17UnboundConversionEPNS1_15BoundConversionE, symObjAddr: 0x30, symBinAddr: 0x6BC0, symSize: 0x164 }
  - { offsetInCU: 0xD725, offset: 0x30E56, size: 0x8, addend: 0x0, symName: __ZNK4absl12lts_202206234SpanIKNS0_19str_format_internal13FormatArgImplEEixEm, symObjAddr: 0x998, symBinAddr: 0x7528, symSize: 0x4C }
  - { offsetInCU: 0xDC76, offset: 0x313A7, size: 0x8, addend: 0x0, symName: __ZNK4absl12lts_2022062319str_format_internal21UntypedFormatSpecImpl3strEv, symObjAddr: 0xA34, symBinAddr: 0x7578, symSize: 0x2C }
  - { offsetInCU: 0xDD20, offset: 0x31451, size: 0x8, addend: 0x0, symName: __ZN4absl12lts_2022062319str_format_internal12_GLOBAL__N_117ConverterConsumerINS2_20SummarizingConverterEE10ConvertOneERKNS1_17UnboundConversionENS0_11string_viewE, symObjAddr: 0xA60, symBinAddr: 0x75A4, symSize: 0x324 }
  - { offsetInCU: 0xDD9F, offset: 0x314D0, size: 0x8, addend: 0x0, symName: __ZN4absl12lts_2022062319str_format_internal12_GLOBAL__N_117ConverterConsumerINS2_20SummarizingConverterEE10ConvertOneERKNS1_17UnboundConversionENS0_11string_viewE, symObjAddr: 0xA60, symBinAddr: 0x75A4, symSize: 0x324 }
  - { offsetInCU: 0xEC20, offset: 0x32351, size: 0x8, addend: 0x0, symName: __ZNSt3__112basic_stringIcNS_11char_traitsIcEENS_9allocatorIcEEEC2B8ue170006ILi0EEEPKc, symObjAddr: 0x1C14, symBinAddr: 0x86D0, symSize: 0xA0 }
  - { offsetInCU: 0xEF78, offset: 0x326A9, size: 0x8, addend: 0x0, symName: __ZN4absl12lts_2022062319str_format_internal12_GLOBAL__N_117ConverterConsumerINS2_16DefaultConverterEE10ConvertOneERKNS1_17UnboundConversionENS0_11string_viewE, symObjAddr: 0x1CB4, symBinAddr: 0x8770, symSize: 0x60 }
  - { offsetInCU: 0xF010, offset: 0x32741, size: 0x8, addend: 0x0, symName: __ZN4absl12lts_2022062319str_format_internal17FormatRawSinkImpl5FlushINSt3__112basic_stringIcNS4_11char_traitsIcEENS4_9allocatorIcEEEEEEvPvNS0_11string_viewE, symObjAddr: 0xA30, symBinAddr: 0x7574, symSize: 0x4 }
  - { offsetInCU: 0xF145, offset: 0x32876, size: 0x8, addend: 0x0, symName: __ZN4absl12lts_2022062319str_format_internal12_GLOBAL__N_117ConverterConsumerINS2_16DefaultConverterEE10ConvertOneERKNS1_17UnboundConversionENS0_11string_viewE, symObjAddr: 0x1CB4, symBinAddr: 0x8770, symSize: 0x60 }
  - { offsetInCU: 0xF300, offset: 0x32A31, size: 0x8, addend: 0x0, symName: __ZNK4absl12lts_2022062319str_format_internal10Streamable5PrintERNSt3__113basic_ostreamIcNS3_11char_traitsIcEEEE, symObjAddr: 0x740, symBinAddr: 0x72D0, symSize: 0x58 }
  - { offsetInCU: 0xF623, offset: 0x32D54, size: 0x8, addend: 0x0, symName: __ZN4absl12lts_2022062319str_format_internal17FormatRawSinkImpl5FlushINSt3__112basic_stringIcNS4_11char_traitsIcEENS4_9allocatorIcEEEEEEvPvNS0_11string_viewE, symObjAddr: 0xA30, symBinAddr: 0x7574, symSize: 0x4 }
  - { offsetInCU: 0xF653, offset: 0x32D84, size: 0x8, addend: 0x0, symName: __ZN4absl12lts_2022062319str_format_internal17FormatRawSinkImpl5FlushINSt3__112basic_stringIcNS4_11char_traitsIcEENS4_9allocatorIcEEEEEEvPvNS0_11string_viewE, symObjAddr: 0xA30, symBinAddr: 0x7574, symSize: 0x4 }
  - { offsetInCU: 0xF66E, offset: 0x32D9F, size: 0x8, addend: 0x0, symName: __ZN4absl12lts_2022062319str_format_internal17FormatRawSinkImpl5FlushINSt3__112basic_stringIcNS4_11char_traitsIcEENS4_9allocatorIcEEEEEEvPvNS0_11string_viewE, symObjAddr: 0xA30, symBinAddr: 0x7574, symSize: 0x4 }
  - { offsetInCU: 0xF6B6, offset: 0x32DE7, size: 0x8, addend: 0x0, symName: __ZNK4absl12lts_2022062319str_format_internal21UntypedFormatSpecImpl3strEv.cold.1, symObjAddr: 0x1D48, symBinAddr: 0x4E450, symSize: 0x28 }
  - { offsetInCU: 0xF6CE, offset: 0x32DFF, size: 0x8, addend: 0x0, symName: __ZNK4absl12lts_2022062319str_format_internal21UntypedFormatSpecImpl3strEv.cold.2, symObjAddr: 0x1D70, symBinAddr: 0x4E478, symSize: 0x28 }
  - { offsetInCU: 0xFB2F, offset: 0x33260, size: 0x8, addend: 0x0, symName: __ZNSt3__119basic_ostringstreamIcNS_11char_traitsIcEENS_9allocatorIcEEEC1B8ue170006Ev, symObjAddr: 0xD84, symBinAddr: 0x78C8, symSize: 0xD4 }
  - { offsetInCU: 0xFBE9, offset: 0x3331A, size: 0x8, addend: 0x0, symName: __ZN4absl12lts_2022062319str_format_internal10StreamableC2ERKNS1_21UntypedFormatSpecImplENS0_4SpanIKNS1_13FormatArgImplEEE, symObjAddr: 0x1830, symBinAddr: 0x8374, symSize: 0xEC }
  - { offsetInCU: 0x10021, offset: 0x33752, size: 0x8, addend: 0x0, symName: __ZNKSt3__115basic_stringbufIcNS_11char_traitsIcEENS_9allocatorIcEEE3strEv, symObjAddr: 0x1B34, symBinAddr: 0x85F0, symSize: 0x4C }
  - { offsetInCU: 0x101C1, offset: 0x338F2, size: 0x8, addend: 0x0, symName: __ZNSt3__119basic_ostringstreamIcNS_11char_traitsIcEENS_9allocatorIcEEED1Ev, symObjAddr: 0xE58, symBinAddr: 0x799C, symSize: 0x8C }
  - { offsetInCU: 0x10352, offset: 0x33A83, size: 0x8, addend: 0x0, symName: __ZNSt3__119basic_ostringstreamIcNS_11char_traitsIcEENS_9allocatorIcEEED0Ev, symObjAddr: 0xEE4, symBinAddr: 0x7A28, symSize: 0x8C }
  - { offsetInCU: 0x104FF, offset: 0x33C30, size: 0x8, addend: 0x0, symName: __ZTv0_n24_NSt3__119basic_ostringstreamIcNS_11char_traitsIcEENS_9allocatorIcEEED1Ev, symObjAddr: 0xF70, symBinAddr: 0x7AB4, symSize: 0x8C }
  - { offsetInCU: 0x106BF, offset: 0x33DF0, size: 0x8, addend: 0x0, symName: __ZTv0_n24_NSt3__119basic_ostringstreamIcNS_11char_traitsIcEENS_9allocatorIcEEED0Ev, symObjAddr: 0xFFC, symBinAddr: 0x7B40, symSize: 0x94 }
  - { offsetInCU: 0x1087F, offset: 0x33FB0, size: 0x8, addend: 0x0, symName: __ZNSt3__115basic_stringbufIcNS_11char_traitsIcEENS_9allocatorIcEEED1Ev, symObjAddr: 0x1090, symBinAddr: 0x7BD4, symSize: 0x40 }
  - { offsetInCU: 0x109E8, offset: 0x34119, size: 0x8, addend: 0x0, symName: __ZNSt3__115basic_stringbufIcNS_11char_traitsIcEENS_9allocatorIcEEED0Ev, symObjAddr: 0x10D0, symBinAddr: 0x7C14, symSize: 0x44 }
  - { offsetInCU: 0x10C42, offset: 0x34373, size: 0x8, addend: 0x0, symName: __ZNSt3__115basic_stringbufIcNS_11char_traitsIcEENS_9allocatorIcEEE7seekoffExNS_8ios_base7seekdirEj, symObjAddr: 0x1114, symBinAddr: 0x7C58, symSize: 0x100 }
  - { offsetInCU: 0x10E42, offset: 0x34573, size: 0x8, addend: 0x0, symName: __ZNSt3__115basic_stringbufIcNS_11char_traitsIcEENS_9allocatorIcEEE7seekposENS_4fposI11__mbstate_tEEj, symObjAddr: 0x1214, symBinAddr: 0x7D58, symSize: 0x18 }
  - { offsetInCU: 0x10EE1, offset: 0x34612, size: 0x8, addend: 0x0, symName: __ZNSt3__115basic_stringbufIcNS_11char_traitsIcEENS_9allocatorIcEEE9underflowEv, symObjAddr: 0x122C, symBinAddr: 0x7D70, symSize: 0x50 }
  - { offsetInCU: 0x10F85, offset: 0x346B6, size: 0x8, addend: 0x0, symName: __ZNSt3__115basic_stringbufIcNS_11char_traitsIcEENS_9allocatorIcEEE9pbackfailEi, symObjAddr: 0x127C, symBinAddr: 0x7DC0, symSize: 0x6C }
  - { offsetInCU: 0x1114C, offset: 0x3487D, size: 0x8, addend: 0x0, symName: __ZNSt3__115basic_stringbufIcNS_11char_traitsIcEENS_9allocatorIcEEE8overflowEi, symObjAddr: 0x12E8, symBinAddr: 0x7E2C, symSize: 0x160 }
  - { offsetInCU: 0x116DC, offset: 0x34E0D, size: 0x8, addend: 0x0, symName: __ZNSt3__112basic_stringIcNS_11char_traitsIcEENS_9allocatorIcEEEC2B8ue170006Emc, symObjAddr: 0x16E8, symBinAddr: 0x822C, symSize: 0x98 }
  - { offsetInCU: 0x118EE, offset: 0x3501F, size: 0x8, addend: 0x0, symName: __ZNKSt3__112basic_stringIcNS_11char_traitsIcEENS_9allocatorIcEEE20__throw_length_errorB8ue170006Ev, symObjAddr: 0x1780, symBinAddr: 0x82C4, symSize: 0x14 }
  - { offsetInCU: 0x119F8, offset: 0x35129, size: 0x8, addend: 0x0, symName: __ZNKSt3__112basic_stringIcNS_11char_traitsIcEENS_9allocatorIcEEE20__throw_length_errorB8ue170006Ev, symObjAddr: 0x1780, symBinAddr: 0x82C4, symSize: 0x14 }
  - { offsetInCU: 0x11A22, offset: 0x35153, size: 0x8, addend: 0x0, symName: __ZNSt3__120__throw_length_errorB8ue170006EPKc, symObjAddr: 0x1794, symBinAddr: 0x82D8, symSize: 0x50 }
  - { offsetInCU: 0x11A2C, offset: 0x3515D, size: 0x8, addend: 0x0, symName: __ZNSt12length_errorC1B8ue170006EPKc, symObjAddr: 0x17E4, symBinAddr: 0x8328, symSize: 0x24 }
  - { offsetInCU: 0x11C36, offset: 0x35367, size: 0x8, addend: 0x0, symName: __ZNSt3__16vectorIN4absl12lts_2022062319str_format_internal13FormatArgImplENS_9allocatorIS4_EEE18__assign_with_sizeB8ue170006IPKS4_SA_EEvT_T0_l, symObjAddr: 0x191C, symBinAddr: 0x8460, symSize: 0x108 }
  - { offsetInCU: 0x122BC, offset: 0x359ED, size: 0x8, addend: 0x0, symName: __ZNSt3__16vectorIN4absl12lts_2022062319str_format_internal13FormatArgImplENS_9allocatorIS4_EEE11__vallocateB8ue170006Em, symObjAddr: 0x1A24, symBinAddr: 0x8568, symSize: 0x40 }
  - { offsetInCU: 0x124EB, offset: 0x35C1C, size: 0x8, addend: 0x0, symName: __ZNSt3__16vectorIN4absl12lts_2022062319str_format_internal13FormatArgImplENS_9allocatorIS4_EEE11__vallocateB8ue170006Em, symObjAddr: 0x1A24, symBinAddr: 0x8568, symSize: 0x40 }
  - { offsetInCU: 0x12565, offset: 0x35C96, size: 0x8, addend: 0x0, symName: __ZNKSt3__16vectorIN4absl12lts_2022062319str_format_internal13FormatArgImplENS_9allocatorIS4_EEE20__throw_length_errorB8ue170006Ev, symObjAddr: 0x1A64, symBinAddr: 0x85A8, symSize: 0x14 }
  - { offsetInCU: 0x12577, offset: 0x35CA8, size: 0x8, addend: 0x0, symName: __ZNKSt3__16vectorIN4absl12lts_2022062319str_format_internal13FormatArgImplENS_9allocatorIS4_EEE20__throw_length_errorB8ue170006Ev, symObjAddr: 0x1A64, symBinAddr: 0x85A8, symSize: 0x14 }
  - { offsetInCU: 0x125A1, offset: 0x35CD2, size: 0x8, addend: 0x0, symName: __ZNSt3__119__allocate_at_leastB8ue170006INS_9allocatorIN4absl12lts_2022062319str_format_internal13FormatArgImplEEEEENS_19__allocation_resultINS_16allocator_traitsIT_E7pointerEEERS9_m, symObjAddr: 0x1A78, symBinAddr: 0x85BC, symSize: 0x34 }
  - { offsetInCU: 0x12649, offset: 0x35D7A, size: 0x8, addend: 0x0, symName: __ZNSt3__112basic_stringIcNS_11char_traitsIcEENS_9allocatorIcEEE16__init_with_sizeB8ue170006IPcS7_EEvT_T0_m, symObjAddr: 0x1B80, symBinAddr: 0x863C, symSize: 0x94 }
  - { offsetInCU: 0x12819, offset: 0x35F4A, size: 0x8, addend: 0x0, symName: __ZNSt3__112basic_stringIcNS_11char_traitsIcEENS_9allocatorIcEEEC2B8ue170006ILi0EEEPKc, symObjAddr: 0x1C14, symBinAddr: 0x86D0, symSize: 0xA0 }
  - { offsetInCU: 0x129AC, offset: 0x360DD, size: 0x8, addend: 0x0, symName: __ZN4absl12lts_2022062319str_format_internal17FormatRawSinkImpl5FlushINSt3__113basic_ostreamIcNS4_11char_traitsIcEEEEEEvPvNS0_11string_viewE, symObjAddr: 0x1D14, symBinAddr: 0x87D0, symSize: 0x4 }
  - { offsetInCU: 0x129DC, offset: 0x3610D, size: 0x8, addend: 0x0, symName: __ZN4absl12lts_2022062319str_format_internal17FormatRawSinkImpl5FlushINSt3__113basic_ostreamIcNS4_11char_traitsIcEEEEEEvPvNS0_11string_viewE, symObjAddr: 0x1D14, symBinAddr: 0x87D0, symSize: 0x4 }
  - { offsetInCU: 0x129F7, offset: 0x36128, size: 0x8, addend: 0x0, symName: __ZN4absl12lts_2022062319str_format_internal17FormatRawSinkImpl5FlushINSt3__113basic_ostreamIcNS4_11char_traitsIcEEEEEEvPvNS0_11string_viewE, symObjAddr: 0x1D14, symBinAddr: 0x87D0, symSize: 0x4 }
  - { offsetInCU: 0x12A24, offset: 0x36155, size: 0x8, addend: 0x0, symName: __ZN4absl12lts_2022062319str_format_internal17FormatRawSinkImpl5FlushINS1_11FILERawSinkEEEvPvNS0_11string_viewE, symObjAddr: 0x1D18, symBinAddr: 0x87D4, symSize: 0x4 }
  - { offsetInCU: 0x12A54, offset: 0x36185, size: 0x8, addend: 0x0, symName: __ZN4absl12lts_2022062319str_format_internal17FormatRawSinkImpl5FlushINS1_11FILERawSinkEEEvPvNS0_11string_viewE, symObjAddr: 0x1D18, symBinAddr: 0x87D4, symSize: 0x4 }
  - { offsetInCU: 0x12A6F, offset: 0x361A0, size: 0x8, addend: 0x0, symName: __ZN4absl12lts_2022062319str_format_internal17FormatRawSinkImpl5FlushINS1_11FILERawSinkEEEvPvNS0_11string_viewE, symObjAddr: 0x1D18, symBinAddr: 0x87D4, symSize: 0x4 }
  - { offsetInCU: 0x12A93, offset: 0x361C4, size: 0x8, addend: 0x0, symName: __ZN4absl12lts_2022062319str_format_internal17FormatRawSinkImpl5FlushINS1_13BufferRawSinkEEEvPvNS0_11string_viewE, symObjAddr: 0x1D1C, symBinAddr: 0x87D8, symSize: 0x4 }
  - { offsetInCU: 0x12AC3, offset: 0x361F4, size: 0x8, addend: 0x0, symName: __ZN4absl12lts_2022062319str_format_internal17FormatRawSinkImpl5FlushINS1_13BufferRawSinkEEEvPvNS0_11string_viewE, symObjAddr: 0x1D1C, symBinAddr: 0x87D8, symSize: 0x4 }
  - { offsetInCU: 0x12ADE, offset: 0x3620F, size: 0x8, addend: 0x0, symName: __ZN4absl12lts_2022062319str_format_internal17FormatRawSinkImpl5FlushINS1_13BufferRawSinkEEEvPvNS0_11string_viewE, symObjAddr: 0x1D1C, symBinAddr: 0x87D8, symSize: 0x4 }
  - { offsetInCU: 0x26, offset: 0x3626D, size: 0x8, addend: 0x0, symName: __ZN4absl12lts_2022062315BlockingCounterC2Ei, symObjAddr: 0x0, symBinAddr: 0x87DC, symSize: 0x88 }
  - { offsetInCU: 0x1B8, offset: 0x363FF, size: 0x8, addend: 0x0, symName: __ZN4absl12lts_2022062312_GLOBAL__N_16IsDoneEPv, symObjAddr: 0x1E8, symBinAddr: 0x89C4, symSize: 0x8 }
  - { offsetInCU: 0x2E8F, offset: 0x390D6, size: 0x8, addend: 0x0, symName: __ZN4absl12lts_2022062315BlockingCounterC2Ei, symObjAddr: 0x0, symBinAddr: 0x87DC, symSize: 0x88 }
  - { offsetInCU: 0x312C, offset: 0x39373, size: 0x8, addend: 0x0, symName: __ZN4absl12lts_2022062315BlockingCounterC1Ei, symObjAddr: 0x88, symBinAddr: 0x8864, symSize: 0x4 }
  - { offsetInCU: 0x3169, offset: 0x393B0, size: 0x8, addend: 0x0, symName: __ZN4absl12lts_2022062315BlockingCounterC1Ei, symObjAddr: 0x88, symBinAddr: 0x8864, symSize: 0x4 }
  - { offsetInCU: 0x3233, offset: 0x3947A, size: 0x8, addend: 0x0, symName: __ZN4absl12lts_2022062315BlockingCounter14DecrementCountEv, symObjAddr: 0x8C, symBinAddr: 0x8868, symSize: 0xA0 }
  - { offsetInCU: 0x335D, offset: 0x395A4, size: 0x8, addend: 0x0, symName: __ZN4absl12lts_2022062315BlockingCounter4WaitEv, symObjAddr: 0x12C, symBinAddr: 0x8908, symSize: 0xBC }
  - { offsetInCU: 0x26, offset: 0x396BB, size: 0x8, addend: 0x0, symName: __ZN4absl12lts_2022062310from_charsEPKcS2_RdNS0_12chars_formatE, symObjAddr: 0x0, symBinAddr: 0x89CC, symSize: 0x30C }
  - { offsetInCU: 0x94, offset: 0x39729, size: 0x8, addend: 0x0, symName: __ZN4absl12lts_2022062312_GLOBAL__N_121kPower10MantissaTableE, symObjAddr: 0xD90, symBinAddr: 0x57F60, symSize: 0x0 }
  - { offsetInCU: 0xAF, offset: 0x39744, size: 0x8, addend: 0x0, symName: __ZN4absl12lts_2022062312_GLOBAL__N_121kPower10ExponentTableE, symObjAddr: 0x21E8, symBinAddr: 0x593B8, symSize: 0x0 }
  - { offsetInCU: 0x427, offset: 0x39ABC, size: 0x8, addend: 0x0, symName: __ZN4absl12lts_2022062312_GLOBAL__N_114HandleEdgeCaseIdEEbRKNS0_16strings_internal11ParsedFloatEbPT_, symObjAddr: 0x614, symBinAddr: 0x8FE0, symSize: 0x10C }
  - { offsetInCU: 0x603, offset: 0x39C98, size: 0x8, addend: 0x0, symName: __ZN4absl12lts_2022062312_GLOBAL__N_130CalculateFromParsedHexadecimalIdEENS1_15CalculatedFloatERKNS0_16strings_internal11ParsedFloatE, symObjAddr: 0x720, symBinAddr: 0x90EC, symSize: 0x94 }
  - { offsetInCU: 0x784, offset: 0x39E19, size: 0x8, addend: 0x0, symName: __ZN4absl12lts_2022062312_GLOBAL__N_118ShiftRightAndRoundENS0_7uint128EibPb, symObjAddr: 0x858, symBinAddr: 0x9224, symSize: 0x100 }
  - { offsetInCU: 0x92C, offset: 0x39FC1, size: 0x8, addend: 0x0, symName: __ZN4absl12lts_2022062312_GLOBAL__N_111MustRoundUpEyiRKNS0_16strings_internal11ParsedFloatE, symObjAddr: 0x958, symBinAddr: 0x9324, symSize: 0x190 }
  - { offsetInCU: 0xA7C, offset: 0x3A111, size: 0x8, addend: 0x0, symName: __ZN4absl12lts_2022062312_GLOBAL__N_112EncodeResultIdEEvRKNS1_15CalculatedFloatEbPNS0_17from_chars_resultEPT_, symObjAddr: 0x7B4, symBinAddr: 0x9180, symSize: 0xA4 }
  - { offsetInCU: 0xCEB, offset: 0x3A380, size: 0x8, addend: 0x0, symName: __ZN4absl12lts_2022062312_GLOBAL__N_114HandleEdgeCaseIfEEbRKNS0_16strings_internal11ParsedFloatEbPT_, symObjAddr: 0xB54, symBinAddr: 0x9520, symSize: 0x108 }
  - { offsetInCU: 0xEC7, offset: 0x3A55C, size: 0x8, addend: 0x0, symName: __ZN4absl12lts_2022062312_GLOBAL__N_130CalculateFromParsedHexadecimalIfEENS1_15CalculatedFloatERKNS0_16strings_internal11ParsedFloatE, symObjAddr: 0xC5C, symBinAddr: 0x9628, symSize: 0x94 }
  - { offsetInCU: 0x1048, offset: 0x3A6DD, size: 0x8, addend: 0x0, symName: __ZN4absl12lts_2022062312_GLOBAL__N_112EncodeResultIfEEvRKNS1_15CalculatedFloatEbPNS0_17from_chars_resultEPT_, symObjAddr: 0xCF0, symBinAddr: 0x96BC, symSize: 0xA0 }
  - { offsetInCU: 0x13FB, offset: 0x3AA90, size: 0x8, addend: 0x0, symName: __ZN4absl12lts_2022062316strings_internal7CompareILi84ELi84EEEiRKNS1_11BigUnsignedIXT_EEERKNS3_IXT0_EEE, symObjAddr: 0xAE8, symBinAddr: 0x94B4, symSize: 0x6C }
  - { offsetInCU: 0x1449, offset: 0x3AADE, size: 0x8, addend: 0x0, symName: __ZN4absl12lts_2022062316strings_internal7CompareILi84ELi84EEEiRKNS1_11BigUnsignedIXT_EEERKNS3_IXT0_EEE, symObjAddr: 0xAE8, symBinAddr: 0x94B4, symSize: 0x6C }
  - { offsetInCU: 0x15E1, offset: 0x3AC76, size: 0x8, addend: 0x0, symName: __ZN4absl12lts_2022062310from_charsEPKcS2_RdNS0_12chars_formatE, symObjAddr: 0x0, symBinAddr: 0x89CC, symSize: 0x30C }
  - { offsetInCU: 0x19FB, offset: 0x3B090, size: 0x8, addend: 0x0, symName: __ZN4absl12lts_2022062310from_charsEPKcS2_RfNS0_12chars_formatE, symObjAddr: 0x30C, symBinAddr: 0x8CD8, symSize: 0x308 }
  - { offsetInCU: 0x26, offset: 0x3FF09, size: 0x8, addend: 0x0, symName: __ZN4absl12lts_2022062316strings_internal11BigUnsignedILi4EEC2Ev, symObjAddr: 0x0, symBinAddr: 0x975C, symSize: 0xC }
  - { offsetInCU: 0x89, offset: 0x3FF6C, size: 0x8, addend: 0x0, symName: __ZN4absl12lts_2022062316strings_internal12_GLOBAL__N_118kLargePowersOfFiveE, symObjAddr: 0x1CA0, symBinAddr: 0x59930, symSize: 0x0 }
  - { offsetInCU: 0xA4, offset: 0x3FF87, size: 0x8, addend: 0x0, symName: __ZN4absl12lts_2022062316strings_internal10kFiveToNthE, symObjAddr: 0x1C40, symBinAddr: 0x598D0, symSize: 0x0 }
  - { offsetInCU: 0xBE, offset: 0x3FFA1, size: 0x8, addend: 0x0, symName: __ZN4absl12lts_2022062316strings_internal9kTenToNthE, symObjAddr: 0x1C78, symBinAddr: 0x59908, symSize: 0x0 }
  - { offsetInCU: 0x5365, offset: 0x45248, size: 0x8, addend: 0x0, symName: __ZN4absl12lts_2022062316strings_internal11BigUnsignedILi4EEC2Ev, symObjAddr: 0x0, symBinAddr: 0x975C, symSize: 0xC }
  - { offsetInCU: 0x53A4, offset: 0x45287, size: 0x8, addend: 0x0, symName: __ZN4absl12lts_2022062316strings_internal11BigUnsignedILi4EEC1Ev, symObjAddr: 0xC, symBinAddr: 0x9768, symSize: 0xC }
  - { offsetInCU: 0x53D0, offset: 0x452B3, size: 0x8, addend: 0x0, symName: __ZN4absl12lts_2022062316strings_internal11BigUnsignedILi4EEC1Ev, symObjAddr: 0xC, symBinAddr: 0x9768, symSize: 0xC }
  - { offsetInCU: 0x53E9, offset: 0x452CC, size: 0x8, addend: 0x0, symName: __ZN4absl12lts_2022062316strings_internal11BigUnsignedILi4EEC2Ey, symObjAddr: 0x18, symBinAddr: 0x9774, symSize: 0x28 }
  - { offsetInCU: 0x5435, offset: 0x45318, size: 0x8, addend: 0x0, symName: __ZN4absl12lts_2022062316strings_internal11BigUnsignedILi4EEC1Ey, symObjAddr: 0x40, symBinAddr: 0x979C, symSize: 0x28 }
  - { offsetInCU: 0x545F, offset: 0x45342, size: 0x8, addend: 0x0, symName: __ZN4absl12lts_2022062316strings_internal11BigUnsignedILi4EEC1Ey, symObjAddr: 0x40, symBinAddr: 0x979C, symSize: 0x28 }
  - { offsetInCU: 0x5490, offset: 0x45373, size: 0x8, addend: 0x0, symName: __ZN4absl12lts_2022062316strings_internal11BigUnsignedILi4EEC2ENS0_11string_viewE, symObjAddr: 0x68, symBinAddr: 0x97C4, symSize: 0x84 }
  - { offsetInCU: 0x5550, offset: 0x45433, size: 0x8, addend: 0x0, symName: __ZN4absl12lts_2022062316strings_internal11BigUnsignedILi4EE10ReadDigitsEPKcS5_i, symObjAddr: 0xEC, symBinAddr: 0x9848, symSize: 0x2DC }
  - { offsetInCU: 0x5A0B, offset: 0x458EE, size: 0x8, addend: 0x0, symName: __ZN4absl12lts_2022062316strings_internal11BigUnsignedILi4EE8Digits10Ev, symObjAddr: 0x3C8, symBinAddr: 0x9B24, symSize: 0x8 }
  - { offsetInCU: 0x5A15, offset: 0x458F8, size: 0x8, addend: 0x0, symName: __ZN4absl12lts_2022062316strings_internal11BigUnsignedILi4EE21MultiplyByTenToTheNthEi, symObjAddr: 0x3D0, symBinAddr: 0x9B2C, symSize: 0x6C }
  - { offsetInCU: 0x5B5E, offset: 0x45A41, size: 0x8, addend: 0x0, symName: __ZN4absl12lts_2022062316strings_internal11BigUnsignedILi4EE10MultiplyByEj, symObjAddr: 0x650, symBinAddr: 0x9DAC, symSize: 0xA8 }
  - { offsetInCU: 0x5C5A, offset: 0x45B3D, size: 0x8, addend: 0x0, symName: __ZN4absl12lts_2022062316strings_internal11BigUnsignedILi4EE10ReadDigitsEPKcS5_i.cold.1, symObjAddr: 0x1B00, symBinAddr: 0x4E4A0, symSize: 0x28 }
  - { offsetInCU: 0x5C72, offset: 0x45B55, size: 0x8, addend: 0x0, symName: __ZN4absl12lts_2022062316strings_internal11BigUnsignedILi4EE8Digits10Ev, symObjAddr: 0x3C8, symBinAddr: 0x9B24, symSize: 0x8 }
  - { offsetInCU: 0x5C86, offset: 0x45B69, size: 0x8, addend: 0x0, symName: __ZN4absl12lts_2022062316strings_internal11BigUnsignedILi4EE22MultiplyByFiveToTheNthEi, symObjAddr: 0x7EC, symBinAddr: 0x9F48, symSize: 0x74 }
  - { offsetInCU: 0x5CE4, offset: 0x45BC7, size: 0x8, addend: 0x0, symName: __ZN4absl12lts_2022062316strings_internal11BigUnsignedILi4EE9ShiftLeftEi, symObjAddr: 0x518, symBinAddr: 0x9C74, symSize: 0x138 }
  - { offsetInCU: 0x5F99, offset: 0x45E7C, size: 0x8, addend: 0x0, symName: __ZN4absl12lts_2022062316strings_internal11BigUnsignedILi4EEC1ENS0_11string_viewE, symObjAddr: 0x43C, symBinAddr: 0x9B98, symSize: 0x4 }
  - { offsetInCU: 0x5FD1, offset: 0x45EB4, size: 0x8, addend: 0x0, symName: __ZN4absl12lts_2022062316strings_internal11BigUnsignedILi4EEC1ENS0_11string_viewE, symObjAddr: 0x43C, symBinAddr: 0x9B98, symSize: 0x4 }
  - { offsetInCU: 0x5FF0, offset: 0x45ED3, size: 0x8, addend: 0x0, symName: __ZN4absl12lts_2022062316strings_internal11BigUnsignedILi4EE17ReadFloatMantissaERKNS1_11ParsedFloatEi, symObjAddr: 0x440, symBinAddr: 0x9B9C, symSize: 0xA0 }
  - { offsetInCU: 0x60FC, offset: 0x45FDF, size: 0x8, addend: 0x0, symName: __ZN4absl12lts_2022062316strings_internal11BigUnsignedILi4EE9SetToZeroEv, symObjAddr: 0x4E0, symBinAddr: 0x9C3C, symSize: 0x38 }
  - { offsetInCU: 0x6106, offset: 0x45FE9, size: 0x8, addend: 0x0, symName: __ZN4absl12lts_2022062316strings_internal11BigUnsignedILi4EE17ReadFloatMantissaERKNS1_11ParsedFloatEi.cold.1, symObjAddr: 0x1B28, symBinAddr: 0x4E4C8, symSize: 0x28 }
  - { offsetInCU: 0x611E, offset: 0x46001, size: 0x8, addend: 0x0, symName: __ZN4absl12lts_2022062316strings_internal11BigUnsignedILi4EE9SetToZeroEv, symObjAddr: 0x4E0, symBinAddr: 0x9C3C, symSize: 0x38 }
  - { offsetInCU: 0x6236, offset: 0x46119, size: 0x8, addend: 0x0, symName: __ZN4absl12lts_2022062316strings_internal11BigUnsignedILi4EE10MultiplyByEy, symObjAddr: 0x6F8, symBinAddr: 0x9E54, symSize: 0x80 }
  - { offsetInCU: 0x62A1, offset: 0x46184, size: 0x8, addend: 0x0, symName: __ZN4absl12lts_2022062316strings_internal11BigUnsignedILi4EE10MultiplyByEiPKj, symObjAddr: 0x778, symBinAddr: 0x9ED4, symSize: 0x74 }
  - { offsetInCU: 0x634E, offset: 0x46231, size: 0x8, addend: 0x0, symName: __ZN4absl12lts_2022062316strings_internal11BigUnsignedILi4EE12MultiplyStepEiPKjii, symObjAddr: 0xB54, symBinAddr: 0xA2B0, symSize: 0xC4 }
  - { offsetInCU: 0x64F0, offset: 0x463D3, size: 0x8, addend: 0x0, symName: __ZN4absl12lts_2022062316strings_internal11BigUnsignedILi4EE12FiveToTheNthEi, symObjAddr: 0x860, symBinAddr: 0x9FBC, symSize: 0xE8 }
  - { offsetInCU: 0x676A, offset: 0x4664D, size: 0x8, addend: 0x0, symName: __ZNK4absl12lts_2022062316strings_internal11BigUnsignedILi4EE7GetWordEi, symObjAddr: 0x948, symBinAddr: 0xA0A4, symSize: 0x24 }
  - { offsetInCU: 0x696F, offset: 0x46852, size: 0x8, addend: 0x0, symName: __ZNK4absl12lts_2022062316strings_internal11BigUnsignedILi4EE8ToStringEv, symObjAddr: 0x96C, symBinAddr: 0xA0C8, symSize: 0x100 }
  - { offsetInCU: 0x6CF5, offset: 0x46BD8, size: 0x8, addend: 0x0, symName: __ZN4absl12lts_2022062316strings_internal11BigUnsignedILi4EE6DivModILj10EEEjv, symObjAddr: 0xA74, symBinAddr: 0xA1D0, symSize: 0x84 }
  - { offsetInCU: 0x6D2A, offset: 0x46C0D, size: 0x8, addend: 0x0, symName: __ZN4absl12lts_2022062316strings_internal11BigUnsignedILi4EE6DivModILj10EEEjv, symObjAddr: 0xA74, symBinAddr: 0xA1D0, symSize: 0x84 }
  - { offsetInCU: 0x6D53, offset: 0x46C36, size: 0x8, addend: 0x0, symName: __ZNK4absl12lts_2022062316strings_internal11BigUnsignedILi4EE4sizeEv, symObjAddr: 0xA6C, symBinAddr: 0xA1C8, symSize: 0x8 }
  - { offsetInCU: 0x6D76, offset: 0x46C59, size: 0x8, addend: 0x0, symName: __ZNK4absl12lts_2022062316strings_internal11BigUnsignedILi4EE5wordsEv, symObjAddr: 0xAF8, symBinAddr: 0xA254, symSize: 0x8 }
  - { offsetInCU: 0x6D9C, offset: 0x46C7F, size: 0x8, addend: 0x0, symName: __ZN4absl12lts_2022062316strings_internal11BigUnsignedILi4EE12AddWithCarryEij, symObjAddr: 0xB00, symBinAddr: 0xA25C, symSize: 0x54 }
  - { offsetInCU: 0x6E61, offset: 0x46D44, size: 0x8, addend: 0x0, symName: __ZN4absl12lts_2022062316strings_internal11BigUnsignedILi4EE12AddWithCarryEiy, symObjAddr: 0xC18, symBinAddr: 0xA374, symSize: 0xA8 }
  - { offsetInCU: 0x7037, offset: 0x46F1A, size: 0x8, addend: 0x0, symName: __ZN4absl12lts_2022062316strings_internal11BigUnsignedILi84EEC2Ev, symObjAddr: 0xCC0, symBinAddr: 0xA41C, symSize: 0x38 }
  - { offsetInCU: 0x7076, offset: 0x46F59, size: 0x8, addend: 0x0, symName: __ZN4absl12lts_2022062316strings_internal11BigUnsignedILi84EEC1Ev, symObjAddr: 0xCF8, symBinAddr: 0xA454, symSize: 0x38 }
  - { offsetInCU: 0x70A2, offset: 0x46F85, size: 0x8, addend: 0x0, symName: __ZN4absl12lts_2022062316strings_internal11BigUnsignedILi84EEC1Ev, symObjAddr: 0xCF8, symBinAddr: 0xA454, symSize: 0x38 }
  - { offsetInCU: 0x70BB, offset: 0x46F9E, size: 0x8, addend: 0x0, symName: __ZN4absl12lts_2022062316strings_internal11BigUnsignedILi84EEC2Ey, symObjAddr: 0xD30, symBinAddr: 0xA48C, symSize: 0x7C }
  - { offsetInCU: 0x7107, offset: 0x46FEA, size: 0x8, addend: 0x0, symName: __ZN4absl12lts_2022062316strings_internal11BigUnsignedILi84EEC1Ey, symObjAddr: 0xDAC, symBinAddr: 0xA508, symSize: 0x7C }
  - { offsetInCU: 0x7131, offset: 0x47014, size: 0x8, addend: 0x0, symName: __ZN4absl12lts_2022062316strings_internal11BigUnsignedILi84EEC1Ey, symObjAddr: 0xDAC, symBinAddr: 0xA508, symSize: 0x7C }
  - { offsetInCU: 0x7151, offset: 0x47034, size: 0x8, addend: 0x0, symName: __ZN4absl12lts_2022062316strings_internal11BigUnsignedILi84EEC2ENS0_11string_viewE, symObjAddr: 0xE28, symBinAddr: 0xA584, symSize: 0xB0 }
  - { offsetInCU: 0x7212, offset: 0x470F5, size: 0x8, addend: 0x0, symName: __ZN4absl12lts_2022062316strings_internal11BigUnsignedILi84EE10ReadDigitsEPKcS5_i, symObjAddr: 0xED8, symBinAddr: 0xA634, symSize: 0x2DC }
  - { offsetInCU: 0x76CD, offset: 0x475B0, size: 0x8, addend: 0x0, symName: __ZN4absl12lts_2022062316strings_internal11BigUnsignedILi84EE8Digits10Ev, symObjAddr: 0x11B4, symBinAddr: 0xA910, symSize: 0x8 }
  - { offsetInCU: 0x76D7, offset: 0x475BA, size: 0x8, addend: 0x0, symName: __ZN4absl12lts_2022062316strings_internal11BigUnsignedILi84EE21MultiplyByTenToTheNthEi, symObjAddr: 0x11BC, symBinAddr: 0xA918, symSize: 0x6C }
  - { offsetInCU: 0x7799, offset: 0x4767C, size: 0x8, addend: 0x0, symName: __ZN4absl12lts_2022062316strings_internal11BigUnsignedILi84EE10MultiplyByEj, symObjAddr: 0x143C, symBinAddr: 0xAB98, symSize: 0xA8 }
  - { offsetInCU: 0x7895, offset: 0x47778, size: 0x8, addend: 0x0, symName: __ZN4absl12lts_2022062316strings_internal11BigUnsignedILi84EE10ReadDigitsEPKcS5_i.cold.1, symObjAddr: 0x1B50, symBinAddr: 0x4E4F0, symSize: 0x28 }
  - { offsetInCU: 0x78AD, offset: 0x47790, size: 0x8, addend: 0x0, symName: __ZN4absl12lts_2022062316strings_internal11BigUnsignedILi84EE8Digits10Ev, symObjAddr: 0x11B4, symBinAddr: 0xA910, symSize: 0x8 }
  - { offsetInCU: 0x78C1, offset: 0x477A4, size: 0x8, addend: 0x0, symName: __ZN4absl12lts_2022062316strings_internal11BigUnsignedILi84EE22MultiplyByFiveToTheNthEi, symObjAddr: 0x15D8, symBinAddr: 0xAD34, symSize: 0x74 }
  - { offsetInCU: 0x791F, offset: 0x47802, size: 0x8, addend: 0x0, symName: __ZN4absl12lts_2022062316strings_internal11BigUnsignedILi84EE9ShiftLeftEi, symObjAddr: 0x1304, symBinAddr: 0xAA60, symSize: 0x138 }
  - { offsetInCU: 0x7BD4, offset: 0x47AB7, size: 0x8, addend: 0x0, symName: __ZN4absl12lts_2022062316strings_internal11BigUnsignedILi84EEC1ENS0_11string_viewE, symObjAddr: 0x1228, symBinAddr: 0xA984, symSize: 0x4 }
  - { offsetInCU: 0x7C0C, offset: 0x47AEF, size: 0x8, addend: 0x0, symName: __ZN4absl12lts_2022062316strings_internal11BigUnsignedILi84EEC1ENS0_11string_viewE, symObjAddr: 0x1228, symBinAddr: 0xA984, symSize: 0x4 }
  - { offsetInCU: 0x7C2B, offset: 0x47B0E, size: 0x8, addend: 0x0, symName: __ZN4absl12lts_2022062316strings_internal11BigUnsignedILi84EE17ReadFloatMantissaERKNS1_11ParsedFloatEi, symObjAddr: 0x122C, symBinAddr: 0xA988, symSize: 0xA0 }
  - { offsetInCU: 0x7D37, offset: 0x47C1A, size: 0x8, addend: 0x0, symName: __ZN4absl12lts_2022062316strings_internal11BigUnsignedILi84EE9SetToZeroEv, symObjAddr: 0x12CC, symBinAddr: 0xAA28, symSize: 0x38 }
  - { offsetInCU: 0x7D41, offset: 0x47C24, size: 0x8, addend: 0x0, symName: __ZN4absl12lts_2022062316strings_internal11BigUnsignedILi84EE17ReadFloatMantissaERKNS1_11ParsedFloatEi.cold.1, symObjAddr: 0x1B78, symBinAddr: 0x4E518, symSize: 0x28 }
  - { offsetInCU: 0x7D59, offset: 0x47C3C, size: 0x8, addend: 0x0, symName: __ZN4absl12lts_2022062316strings_internal11BigUnsignedILi84EE9SetToZeroEv, symObjAddr: 0x12CC, symBinAddr: 0xAA28, symSize: 0x38 }
  - { offsetInCU: 0x7DF7, offset: 0x47CDA, size: 0x8, addend: 0x0, symName: __ZN4absl12lts_2022062316strings_internal11BigUnsignedILi84EE10MultiplyByEy, symObjAddr: 0x14E4, symBinAddr: 0xAC40, symSize: 0x80 }
  - { offsetInCU: 0x7E62, offset: 0x47D45, size: 0x8, addend: 0x0, symName: __ZN4absl12lts_2022062316strings_internal11BigUnsignedILi84EE10MultiplyByEiPKj, symObjAddr: 0x1564, symBinAddr: 0xACC0, symSize: 0x74 }
  - { offsetInCU: 0x7F0F, offset: 0x47DF2, size: 0x8, addend: 0x0, symName: __ZN4absl12lts_2022062316strings_internal11BigUnsignedILi84EE12MultiplyStepEiPKjii, symObjAddr: 0x1994, symBinAddr: 0xB0F0, symSize: 0xC4 }
  - { offsetInCU: 0x8016, offset: 0x47EF9, size: 0x8, addend: 0x0, symName: __ZN4absl12lts_2022062316strings_internal11BigUnsignedILi84EE12FiveToTheNthEi, symObjAddr: 0x164C, symBinAddr: 0xADA8, symSize: 0x134 }
  - { offsetInCU: 0x8290, offset: 0x48173, size: 0x8, addend: 0x0, symName: __ZNK4absl12lts_2022062316strings_internal11BigUnsignedILi84EE7GetWordEi, symObjAddr: 0x1780, symBinAddr: 0xAEDC, symSize: 0x24 }
  - { offsetInCU: 0x82E0, offset: 0x481C3, size: 0x8, addend: 0x0, symName: __ZNK4absl12lts_2022062316strings_internal11BigUnsignedILi84EE8ToStringEv, symObjAddr: 0x17A4, symBinAddr: 0xAF00, symSize: 0x108 }
  - { offsetInCU: 0x8668, offset: 0x4854B, size: 0x8, addend: 0x0, symName: __ZN4absl12lts_2022062316strings_internal11BigUnsignedILi84EE6DivModILj10EEEjv, symObjAddr: 0x18B4, symBinAddr: 0xB010, symSize: 0x84 }
  - { offsetInCU: 0x869D, offset: 0x48580, size: 0x8, addend: 0x0, symName: __ZN4absl12lts_2022062316strings_internal11BigUnsignedILi84EE6DivModILj10EEEjv, symObjAddr: 0x18B4, symBinAddr: 0xB010, symSize: 0x84 }
  - { offsetInCU: 0x86C6, offset: 0x485A9, size: 0x8, addend: 0x0, symName: __ZNK4absl12lts_2022062316strings_internal11BigUnsignedILi84EE4sizeEv, symObjAddr: 0x18AC, symBinAddr: 0xB008, symSize: 0x8 }
  - { offsetInCU: 0x86E9, offset: 0x485CC, size: 0x8, addend: 0x0, symName: __ZNK4absl12lts_2022062316strings_internal11BigUnsignedILi84EE5wordsEv, symObjAddr: 0x1938, symBinAddr: 0xB094, symSize: 0x8 }
  - { offsetInCU: 0x870F, offset: 0x485F2, size: 0x8, addend: 0x0, symName: __ZN4absl12lts_2022062316strings_internal11BigUnsignedILi84EE12AddWithCarryEij, symObjAddr: 0x1940, symBinAddr: 0xB09C, symSize: 0x54 }
  - { offsetInCU: 0x87D4, offset: 0x486B7, size: 0x8, addend: 0x0, symName: __ZN4absl12lts_2022062316strings_internal11BigUnsignedILi84EE12AddWithCarryEiy, symObjAddr: 0x1A58, symBinAddr: 0xB1B4, symSize: 0xA8 }
  - { offsetInCU: 0x26, offset: 0x488C4, size: 0x8, addend: 0x0, symName: __ZN4absl12lts_2022062316strings_internal10ParseFloatILi10EEENS1_11ParsedFloatEPKcS5_NS0_12chars_formatE, symObjAddr: 0x0, symBinAddr: 0xB25C, symSize: 0x274 }
  - { offsetInCU: 0x91, offset: 0x4892F, size: 0x8, addend: 0x0, symName: __ZN4absl12lts_2022062312_GLOBAL__N_111kAsciiToIntE, symObjAddr: 0xB2D, symBinAddr: 0x59FC0, symSize: 0x0 }
  - { offsetInCU: 0xF7, offset: 0x48995, size: 0x8, addend: 0x0, symName: __ZN4absl12lts_2022062312_GLOBAL__N_118ParseInfinityOrNanEPKcS3_PNS0_16strings_internal11ParsedFloatE, symObjAddr: 0x274, symBinAddr: 0xB4D0, symSize: 0x174 }
  - { offsetInCU: 0x1BE, offset: 0x48A5C, size: 0x8, addend: 0x0, symName: __ZN4absl12lts_2022062312_GLOBAL__N_113ConsumeDigitsILi10EyEEiPKcS4_iPT0_Pb, symObjAddr: 0x3E8, symBinAddr: 0xB644, symSize: 0x108 }
  - { offsetInCU: 0x2D3, offset: 0x48B71, size: 0x8, addend: 0x0, symName: __ZN4absl12lts_2022062312_GLOBAL__N_113ConsumeDigitsILi10EiEEiPKcS4_iPT0_Pb, symObjAddr: 0x4F0, symBinAddr: 0xB74C, symSize: 0xD4 }
  - { offsetInCU: 0x2F0, offset: 0x48B8E, size: 0x8, addend: 0x0, symName: __ZN4absl12lts_2022062312_GLOBAL__N_113ConsumeDigitsILi10EiEEiPKcS4_iPT0_Pb, symObjAddr: 0x4F0, symBinAddr: 0xB74C, symSize: 0xD4 }
  - { offsetInCU: 0x3E7, offset: 0x48C85, size: 0x8, addend: 0x0, symName: __ZN4absl12lts_2022062316strings_internal10ParseFloatILi16EEENS1_11ParsedFloatEPKcS5_NS0_12chars_formatE, symObjAddr: 0x5C4, symBinAddr: 0xB820, symSize: 0x278 }
  - { offsetInCU: 0x494, offset: 0x48D32, size: 0x8, addend: 0x0, symName: __ZN4absl12lts_2022062312_GLOBAL__N_113ConsumeDigitsILi16EyEEiPKcS4_iPT0_Pb, symObjAddr: 0x83C, symBinAddr: 0xBA98, symSize: 0x10C }
  - { offsetInCU: 0x598, offset: 0x48E36, size: 0x8, addend: 0x0, symName: __ZN4absl12lts_2022062312_GLOBAL__N_113ConsumeDigitsILi10EyEEiPKcS4_iPT0_Pb.cold.1, symObjAddr: 0x948, symBinAddr: 0x4E540, symSize: 0x28 }
  - { offsetInCU: 0x64B, offset: 0x48EE9, size: 0x8, addend: 0x0, symName: __ZN4absl12lts_2022062316strings_internal10ParseFloatILi10EEENS1_11ParsedFloatEPKcS5_NS0_12chars_formatE, symObjAddr: 0x0, symBinAddr: 0xB25C, symSize: 0x274 }
  - { offsetInCU: 0x8B1, offset: 0x4914F, size: 0x8, addend: 0x0, symName: __ZN4absl12lts_2022062316strings_internal10ParseFloatILi16EEENS1_11ParsedFloatEPKcS5_NS0_12chars_formatE, symObjAddr: 0x5C4, symBinAddr: 0xB820, symSize: 0x278 }
  - { offsetInCU: 0x34EF, offset: 0x4BD8D, size: 0x8, addend: 0x0, symName: __ZN4absl12lts_2022062312_GLOBAL__N_113ConsumeDigitsILi10EyEEiPKcS4_iPT0_Pb.cold.2, symObjAddr: 0x970, symBinAddr: 0x4E568, symSize: 0x24 }
  - { offsetInCU: 0x3507, offset: 0x4BDA5, size: 0x8, addend: 0x0, symName: __ZN4absl12lts_2022062312_GLOBAL__N_113ConsumeDigitsILi10EyEEiPKcS4_iPT0_Pb.cold.3, symObjAddr: 0x994, symBinAddr: 0x4E58C, symSize: 0x28 }
  - { offsetInCU: 0x351F, offset: 0x4BDBD, size: 0x8, addend: 0x0, symName: __ZN4absl12lts_2022062312_GLOBAL__N_113ConsumeDigitsILi10EyEEiPKcS4_iPT0_Pb.cold.1, symObjAddr: 0x948, symBinAddr: 0x4E540, symSize: 0x28 }
  - { offsetInCU: 0x3537, offset: 0x4BDD5, size: 0x8, addend: 0x0, symName: __ZN4absl12lts_2022062312_GLOBAL__N_113ConsumeDigitsILi10EiEEiPKcS4_iPT0_Pb.cold.1, symObjAddr: 0x9BC, symBinAddr: 0x4E5B4, symSize: 0x24 }
  - { offsetInCU: 0x354F, offset: 0x4BDED, size: 0x8, addend: 0x0, symName: __ZN4absl12lts_2022062312_GLOBAL__N_113ConsumeDigitsILi16EyEEiPKcS4_iPT0_Pb.cold.2, symObjAddr: 0xA08, symBinAddr: 0x4E600, symSize: 0x24 }
  - { offsetInCU: 0x3567, offset: 0x4BE05, size: 0x8, addend: 0x0, symName: __ZN4absl12lts_2022062312_GLOBAL__N_113ConsumeDigitsILi16EyEEiPKcS4_iPT0_Pb.cold.3, symObjAddr: 0xA2C, symBinAddr: 0x4E624, symSize: 0x28 }
  - { offsetInCU: 0x357F, offset: 0x4BE1D, size: 0x8, addend: 0x0, symName: __ZN4absl12lts_2022062312_GLOBAL__N_113ConsumeDigitsILi16EyEEiPKcS4_iPT0_Pb.cold.1, symObjAddr: 0x9E0, symBinAddr: 0x4E5D8, symSize: 0x28 }
  - { offsetInCU: 0x3597, offset: 0x4BE35, size: 0x8, addend: 0x0, symName: _OUTLINED_FUNCTION_0, symObjAddr: 0xA54, symBinAddr: 0xBBA4, symSize: 0x8 }
  - { offsetInCU: 0x26, offset: 0x4BE82, size: 0x8, addend: 0x0, symName: __ZN4absl12lts_2022062313hash_internal10CityHash32EPKcm, symObjAddr: 0x0, symBinAddr: 0xBBAC, symSize: 0x440 }
  - { offsetInCU: 0x22E, offset: 0x4C08A, size: 0x8, addend: 0x0, symName: __ZN4absl12lts_2022062313hash_internal10CityHash32EPKcm, symObjAddr: 0x0, symBinAddr: 0xBBAC, symSize: 0x440 }
  - { offsetInCU: 0x1258, offset: 0x4D0B4, size: 0x8, addend: 0x0, symName: __ZN4absl12lts_2022062313hash_internal10CityHash64EPKcm, symObjAddr: 0x440, symBinAddr: 0xBFEC, symSize: 0x3B8 }
  - { offsetInCU: 0x1F62, offset: 0x4DDBE, size: 0x8, addend: 0x0, symName: __ZN4absl12lts_2022062313hash_internal18CityHash64WithSeedEPKcmy, symObjAddr: 0x7F8, symBinAddr: 0xC3A4, symSize: 0x60 }
  - { offsetInCU: 0x207D, offset: 0x4DED9, size: 0x8, addend: 0x0, symName: __ZN4absl12lts_2022062313hash_internal19CityHash64WithSeedsEPKcmyy, symObjAddr: 0x858, symBinAddr: 0xC404, symSize: 0x54 }
  - { offsetInCU: 0xD55, offset: 0x51851, size: 0x8, addend: 0x0, symName: __ZN4absl12lts_2022062313time_internal4cctz6detail4impl5n_secExxxxxx, symObjAddr: 0x1D50, symBinAddr: 0xE1A8, symSize: 0x28C }
  - { offsetInCU: 0xFD3, offset: 0x51ACF, size: 0x8, addend: 0x0, symName: __ZN4absl12lts_2022062313time_internal4cctz6detail4impl6n_hourExxxxxaa, symObjAddr: 0x1FE8, symBinAddr: 0xE434, symSize: 0x7C }
  - { offsetInCU: 0x10B7, offset: 0x51BB3, size: 0x8, addend: 0x0, symName: __ZN4absl12lts_2022062313time_internal4cctz6detail4impl5n_dayExaxxaaa, symObjAddr: 0x2064, symBinAddr: 0xE4B0, symSize: 0x394 }
  - { offsetInCU: 0x170F, offset: 0x5220B, size: 0x8, addend: 0x0, symName: __ZN4absl12lts_2022062313time_internallsERNSt3__113basic_ostreamIcNS2_11char_traitsIcEEEENS1_4cctz6detail10civil_timeINS1_8year_tagEEE, symObjAddr: 0x19C0, symBinAddr: 0xDE18, symSize: 0x98 }
  - { offsetInCU: 0x1A5F, offset: 0x5255B, size: 0x8, addend: 0x0, symName: __ZN4absl12lts_2022062313time_internallsERNSt3__113basic_ostreamIcNS2_11char_traitsIcEEEENS1_4cctz6detail10civil_timeINS1_9month_tagEEE, symObjAddr: 0x1A58, symBinAddr: 0xDEB0, symSize: 0x98 }
  - { offsetInCU: 0x1DAF, offset: 0x528AB, size: 0x8, addend: 0x0, symName: __ZN4absl12lts_2022062313time_internallsERNSt3__113basic_ostreamIcNS2_11char_traitsIcEEEENS1_4cctz6detail10civil_timeINS1_7day_tagEEE, symObjAddr: 0x1AF0, symBinAddr: 0xDF48, symSize: 0x98 }
  - { offsetInCU: 0x20FF, offset: 0x52BFB, size: 0x8, addend: 0x0, symName: __ZN4absl12lts_2022062313time_internallsERNSt3__113basic_ostreamIcNS2_11char_traitsIcEEEENS1_4cctz6detail10civil_timeINS1_8hour_tagEEE, symObjAddr: 0x1B88, symBinAddr: 0xDFE0, symSize: 0x98 }
  - { offsetInCU: 0x244F, offset: 0x52F4B, size: 0x8, addend: 0x0, symName: __ZN4absl12lts_2022062313time_internallsERNSt3__113basic_ostreamIcNS2_11char_traitsIcEEEENS1_4cctz6detail10civil_timeINS1_10minute_tagEEE, symObjAddr: 0x1C20, symBinAddr: 0xE078, symSize: 0x98 }
  - { offsetInCU: 0x279F, offset: 0x5329B, size: 0x8, addend: 0x0, symName: __ZN4absl12lts_2022062313time_internallsERNSt3__113basic_ostreamIcNS2_11char_traitsIcEEEENS1_4cctz6detail10civil_timeINS1_10second_tagEEE, symObjAddr: 0x1CB8, symBinAddr: 0xE110, symSize: 0x98 }
  - { offsetInCU: 0x35B3, offset: 0x540AF, size: 0x8, addend: 0x0, symName: __ZN4absl12lts_2022062315FormatCivilTimeENS0_13time_internal4cctz6detail10civil_timeINS1_10second_tagEEE, symObjAddr: 0x0, symBinAddr: 0xC458, symSize: 0x18 }
  - { offsetInCU: 0x35F7, offset: 0x540F3, size: 0x8, addend: 0x0, symName: __ZN4absl12lts_2022062312_GLOBAL__N_113FormatYearAndENS0_11string_viewENS0_13time_internal4cctz6detail10civil_timeINS3_10second_tagEEE, symObjAddr: 0x18, symBinAddr: 0xC470, symSize: 0x198 }
  - { offsetInCU: 0x4C1E, offset: 0x5571A, size: 0x8, addend: 0x0, symName: __ZN4absl12lts_2022062315FormatCivilTimeENS0_13time_internal4cctz6detail10civil_timeINS1_10minute_tagEEE, symObjAddr: 0x1B0, symBinAddr: 0xC608, symSize: 0x18 }
  - { offsetInCU: 0x4C61, offset: 0x5575D, size: 0x8, addend: 0x0, symName: __ZN4absl12lts_2022062315FormatCivilTimeENS0_13time_internal4cctz6detail10civil_timeINS1_8hour_tagEEE, symObjAddr: 0x1C8, symBinAddr: 0xC620, symSize: 0x18 }
  - { offsetInCU: 0x4CA4, offset: 0x557A0, size: 0x8, addend: 0x0, symName: __ZN4absl12lts_2022062315FormatCivilTimeENS0_13time_internal4cctz6detail10civil_timeINS1_7day_tagEEE, symObjAddr: 0x1E0, symBinAddr: 0xC638, symSize: 0x18 }
  - { offsetInCU: 0x4CE7, offset: 0x557E3, size: 0x8, addend: 0x0, symName: __ZN4absl12lts_2022062315FormatCivilTimeENS0_13time_internal4cctz6detail10civil_timeINS1_9month_tagEEE, symObjAddr: 0x1F8, symBinAddr: 0xC650, symSize: 0x18 }
  - { offsetInCU: 0x4D2A, offset: 0x55826, size: 0x8, addend: 0x0, symName: __ZN4absl12lts_2022062315FormatCivilTimeENS0_13time_internal4cctz6detail10civil_timeINS1_8year_tagEEE, symObjAddr: 0x210, symBinAddr: 0xC668, symSize: 0x18 }
  - { offsetInCU: 0x4DB5, offset: 0x558B1, size: 0x8, addend: 0x0, symName: __ZN4absl12lts_2022062314ParseCivilTimeENS0_11string_viewEPNS0_13time_internal4cctz6detail10civil_timeINS2_10second_tagEEE, symObjAddr: 0x228, symBinAddr: 0xC680, symSize: 0x2AC }
  - { offsetInCU: 0x5AB3, offset: 0x565AF, size: 0x8, addend: 0x0, symName: __ZN4absl12lts_2022062314ParseCivilTimeENS0_11string_viewEPNS0_13time_internal4cctz6detail10civil_timeINS2_10minute_tagEEE, symObjAddr: 0x4D4, symBinAddr: 0xC92C, symSize: 0x2B0 }
  - { offsetInCU: 0x67DC, offset: 0x572D8, size: 0x8, addend: 0x0, symName: __ZN4absl12lts_2022062314ParseCivilTimeENS0_11string_viewEPNS0_13time_internal4cctz6detail10civil_timeINS2_8hour_tagEEE, symObjAddr: 0x784, symBinAddr: 0xCBDC, symSize: 0x2B0 }
  - { offsetInCU: 0x7505, offset: 0x58001, size: 0x8, addend: 0x0, symName: __ZN4absl12lts_2022062314ParseCivilTimeENS0_11string_viewEPNS0_13time_internal4cctz6detail10civil_timeINS2_7day_tagEEE, symObjAddr: 0xA34, symBinAddr: 0xCE8C, symSize: 0x2B0 }
  - { offsetInCU: 0x822E, offset: 0x58D2A, size: 0x8, addend: 0x0, symName: __ZN4absl12lts_2022062314ParseCivilTimeENS0_11string_viewEPNS0_13time_internal4cctz6detail10civil_timeINS2_9month_tagEEE, symObjAddr: 0xCE4, symBinAddr: 0xD13C, symSize: 0x2B4 }
  - { offsetInCU: 0x8F57, offset: 0x59A53, size: 0x8, addend: 0x0, symName: __ZN4absl12lts_2022062314ParseCivilTimeENS0_11string_viewEPNS0_13time_internal4cctz6detail10civil_timeINS2_8year_tagEEE, symObjAddr: 0xF98, symBinAddr: 0xD3F0, symSize: 0x2AC }
  - { offsetInCU: 0x9C35, offset: 0x5A731, size: 0x8, addend: 0x0, symName: __ZN4absl12lts_2022062321ParseLenientCivilTimeENS0_11string_viewEPNS0_13time_internal4cctz6detail10civil_timeINS2_10second_tagEEE, symObjAddr: 0x1244, symBinAddr: 0xD69C, symSize: 0x138 }
  - { offsetInCU: 0xA2C9, offset: 0x5ADC5, size: 0x8, addend: 0x0, symName: __ZN4absl12lts_2022062321ParseLenientCivilTimeENS0_11string_viewEPNS0_13time_internal4cctz6detail10civil_timeINS2_10minute_tagEEE, symObjAddr: 0x137C, symBinAddr: 0xD7D4, symSize: 0x14C }
  - { offsetInCU: 0xA95D, offset: 0x5B459, size: 0x8, addend: 0x0, symName: __ZN4absl12lts_2022062321ParseLenientCivilTimeENS0_11string_viewEPNS0_13time_internal4cctz6detail10civil_timeINS2_8hour_tagEEE, symObjAddr: 0x14C8, symBinAddr: 0xD920, symSize: 0x14C }
  - { offsetInCU: 0xB03C, offset: 0x5BB38, size: 0x8, addend: 0x0, symName: __ZN4absl12lts_2022062321ParseLenientCivilTimeENS0_11string_viewEPNS0_13time_internal4cctz6detail10civil_timeINS2_7day_tagEEE, symObjAddr: 0x1614, symBinAddr: 0xDA6C, symSize: 0x14C }
  - { offsetInCU: 0xB6D0, offset: 0x5C1CC, size: 0x8, addend: 0x0, symName: __ZN4absl12lts_2022062321ParseLenientCivilTimeENS0_11string_viewEPNS0_13time_internal4cctz6detail10civil_timeINS2_9month_tagEEE, symObjAddr: 0x1760, symBinAddr: 0xDBB8, symSize: 0x154 }
  - { offsetInCU: 0xBDAF, offset: 0x5C8AB, size: 0x8, addend: 0x0, symName: __ZN4absl12lts_2022062321ParseLenientCivilTimeENS0_11string_viewEPNS0_13time_internal4cctz6detail10civil_timeINS2_8year_tagEEE, symObjAddr: 0x18B4, symBinAddr: 0xDD0C, symSize: 0x10C }
  - { offsetInCU: 0x12512, offset: 0x6300E, size: 0x8, addend: 0x0, symName: __ZN4absl12lts_202206238AlphaNumC2Ex, symObjAddr: 0x23F8, symBinAddr: 0xE844, symSize: 0x44 }
  - { offsetInCU: 0x127FF, offset: 0x632FB, size: 0x8, addend: 0x0, symName: __ZNSt3__112basic_stringIcNS_11char_traitsIcEENS_9allocatorIcEEEC2B8ue170006EPKcm, symObjAddr: 0x27FC, symBinAddr: 0xE888, symSize: 0x98 }
  - { offsetInCU: 0x12B37, offset: 0x63633, size: 0x8, addend: 0x0, symName: __ZN4absl12lts_202206238AlphaNumC2Ex.cold.1, symObjAddr: 0x2894, symBinAddr: 0x4E64C, symSize: 0x28 }
  - { offsetInCU: 0x13275, offset: 0x63D71, size: 0x8, addend: 0x0, symName: __ZN4absl12lts_202206238AlphaNumC2Ex.cold.1, symObjAddr: 0x2894, symBinAddr: 0x4E64C, symSize: 0x28 }
  - { offsetInCU: 0x3E87, offset: 0x682A6, size: 0x8, addend: 0x0, symName: __ZNSt3__1lsB8ue170006INS_11char_traitsIcEEEERNS_13basic_ostreamIcT_EES6_RKNS_8__iom_t4IcEE, symObjAddr: 0x43C, symBinAddr: 0xED5C, symSize: 0xA0 }
  - { offsetInCU: 0x50BC, offset: 0x694DB, size: 0x8, addend: 0x0, symName: __ZN4absl12lts_2022062313time_internal4cctz6detaillsERNSt3__113basic_ostreamIcNS4_11char_traitsIcEEEERKNS3_10civil_timeINS3_8year_tagEEE, symObjAddr: 0x0, symBinAddr: 0xE920, symSize: 0x130 }
  - { offsetInCU: 0x55B8, offset: 0x699D7, size: 0x8, addend: 0x0, symName: __ZN4absl12lts_2022062313time_internal4cctz6detaillsERNSt3__113basic_ostreamIcNS4_11char_traitsIcEEEERKNS3_10civil_timeINS3_9month_tagEEE, symObjAddr: 0x2AC, symBinAddr: 0xEBCC, symSize: 0x190 }
  - { offsetInCU: 0x5C14, offset: 0x6A033, size: 0x8, addend: 0x0, symName: __ZN4absl12lts_2022062313time_internal4cctz6detaillsERNSt3__113basic_ostreamIcNS4_11char_traitsIcEEEERKNS3_10civil_timeINS3_7day_tagEEE, symObjAddr: 0x4DC, symBinAddr: 0xEDFC, symSize: 0x194 }
  - { offsetInCU: 0x6268, offset: 0x6A687, size: 0x8, addend: 0x0, symName: __ZN4absl12lts_2022062313time_internal4cctz6detaillsERNSt3__113basic_ostreamIcNS4_11char_traitsIcEEEERKNS3_10civil_timeINS3_8hour_tagEEE, symObjAddr: 0x670, symBinAddr: 0xEF90, symSize: 0x190 }
  - { offsetInCU: 0x68C4, offset: 0x6ACE3, size: 0x8, addend: 0x0, symName: __ZN4absl12lts_2022062313time_internal4cctz6detaillsERNSt3__113basic_ostreamIcNS4_11char_traitsIcEEEERKNS3_10civil_timeINS3_10minute_tagEEE, symObjAddr: 0x800, symBinAddr: 0xF120, symSize: 0x190 }
  - { offsetInCU: 0x6F18, offset: 0x6B337, size: 0x8, addend: 0x0, symName: __ZN4absl12lts_2022062313time_internal4cctz6detaillsERNSt3__113basic_ostreamIcNS4_11char_traitsIcEEEERKNS3_10civil_timeINS3_10second_tagEEE, symObjAddr: 0x990, symBinAddr: 0xF2B0, symSize: 0x190 }
  - { offsetInCU: 0x754E, offset: 0x6B96D, size: 0x8, addend: 0x0, symName: __ZN4absl12lts_2022062313time_internal4cctz6detaillsERNSt3__113basic_ostreamIcNS4_11char_traitsIcEEEENS3_7weekdayE, symObjAddr: 0xB20, symBinAddr: 0xF440, symSize: 0x8C }
  - { offsetInCU: 0x990E, offset: 0x6DD2D, size: 0x8, addend: 0x0, symName: __ZNSt3__118basic_stringstreamIcNS_11char_traitsIcEENS_9allocatorIcEEEC1B8ue170006Ev, symObjAddr: 0x130, symBinAddr: 0xEA50, symSize: 0xE8 }
  - { offsetInCU: 0x9A79, offset: 0x6DE98, size: 0x8, addend: 0x0, symName: __ZNSt3__118basic_stringstreamIcNS_11char_traitsIcEENS_9allocatorIcEEED1Ev, symObjAddr: 0x218, symBinAddr: 0xEB38, symSize: 0x94 }
  - { offsetInCU: 0xA10B, offset: 0x6E52A, size: 0x8, addend: 0x0, symName: __ZThn16_NSt3__118basic_stringstreamIcNS_11char_traitsIcEENS_9allocatorIcEEED1Ev, symObjAddr: 0xBAC, symBinAddr: 0xF4CC, symSize: 0x8C }
  - { offsetInCU: 0xA2B1, offset: 0x6E6D0, size: 0x8, addend: 0x0, symName: __ZTv0_n24_NSt3__118basic_stringstreamIcNS_11char_traitsIcEENS_9allocatorIcEEED1Ev, symObjAddr: 0xC38, symBinAddr: 0xF558, symSize: 0x94 }
  - { offsetInCU: 0xA455, offset: 0x6E874, size: 0x8, addend: 0x0, symName: __ZNSt3__118basic_stringstreamIcNS_11char_traitsIcEENS_9allocatorIcEEED0Ev, symObjAddr: 0xCCC, symBinAddr: 0xF5EC, symSize: 0x94 }
  - { offsetInCU: 0xA61E, offset: 0x6EA3D, size: 0x8, addend: 0x0, symName: __ZThn16_NSt3__118basic_stringstreamIcNS_11char_traitsIcEENS_9allocatorIcEEED0Ev, symObjAddr: 0xD60, symBinAddr: 0xF680, symSize: 0x94 }
  - { offsetInCU: 0xA7E2, offset: 0x6EC01, size: 0x8, addend: 0x0, symName: __ZTv0_n24_NSt3__118basic_stringstreamIcNS_11char_traitsIcEENS_9allocatorIcEEED0Ev, symObjAddr: 0xDF4, symBinAddr: 0xF714, symSize: 0x9C }
  - { offsetInCU: 0x26, offset: 0x6F4EA, size: 0x8, addend: 0x0, symName: __ZN4absl12lts_202206233NowEv, symObjAddr: 0x0, symBinAddr: 0xF7B0, symSize: 0x84 }
  - { offsetInCU: 0x1A2, offset: 0x6F666, size: 0x8, addend: 0x0, symName: __ZN4absl12lts_202206233NowEv, symObjAddr: 0x0, symBinAddr: 0xF7B0, symSize: 0x84 }
  - { offsetInCU: 0x2B2, offset: 0x6F776, size: 0x8, addend: 0x0, symName: __ZN4absl12lts_2022062319GetCurrentTimeNanosEv, symObjAddr: 0x84, symBinAddr: 0xF834, symSize: 0x34 }
  - { offsetInCU: 0x3362, offset: 0x72826, size: 0x8, addend: 0x0, symName: _AbslInternalSleepFor_lts_20220623, symObjAddr: 0xB8, symBinAddr: 0xF868, symSize: 0xAC }
  - { offsetInCU: 0x57, offset: 0x729A6, size: 0x8, addend: 0x0, symName: __ZN4absl12lts_202206234Cord9InlineRep10kMaxInlineE, symObjAddr: 0xA88C, symBinAddr: 0x5A148, symSize: 0x0 }
  - { offsetInCU: 0x34D0, offset: 0x75E1F, size: 0x8, addend: 0x0, symName: __ZN4absl12lts_2022062313cord_internal25InitializeCordRepExternalENS0_11string_viewEPNS1_15CordRepExternalE, symObjAddr: 0x3B8, symBinAddr: 0xFCCC, symSize: 0x2C }
  - { offsetInCU: 0x3519, offset: 0x75E68, size: 0x8, addend: 0x0, symName: __ZN4absl12lts_20220623L10VerifyTreeEPNS0_13cord_internal7CordRepE, symObjAddr: 0x3E4, symBinAddr: 0xFCF8, symSize: 0x6D8 }
  - { offsetInCU: 0x3740, offset: 0x7608F, size: 0x8, addend: 0x0, symName: __ZN4absl12lts_2022062313cord_internal8EdgeDataEPKNS1_7CordRepE, symObjAddr: 0x7284, symBinAddr: 0x15F24, symSize: 0x90 }
  - { offsetInCU: 0x385E, offset: 0x761AD, size: 0x8, addend: 0x0, symName: __ZN4absl12lts_2022062313cord_internal21CordRepBtreeNavigator4InitILNS1_12CordRepBtree8EdgeTypeE0EEEPNS1_7CordRepEPS4_, symObjAddr: 0x7314, symBinAddr: 0x15FB4, symSize: 0xE0 }
  - { offsetInCU: 0x5DF6, offset: 0x78745, size: 0x8, addend: 0x0, symName: __ZN4absl12lts_20220623L17CordRepFromStringEONSt3__112basic_stringIcNS1_11char_traitsIcEENS1_9allocatorIcEEEE, symObjAddr: 0xE4, symBinAddr: 0xF9F8, symSize: 0x168 }
  - { offsetInCU: 0x6CC3, offset: 0x79612, size: 0x8, addend: 0x0, symName: __ZN4absl12lts_20220623L7NewTreeEPKcmm, symObjAddr: 0x1398, symBinAddr: 0x10CAC, symSize: 0x100 }
  - { offsetInCU: 0x708E, offset: 0x799DD, size: 0x8, addend: 0x0, symName: __ZN4absl12lts_202206234CordC1ENS0_11string_viewENS0_13cord_internal18CordzUpdateTracker16MethodIdentifierE, symObjAddr: 0x1498, symBinAddr: 0x10DAC, symSize: 0x4 }
  - { offsetInCU: 0x7099, offset: 0x799E8, size: 0x8, addend: 0x0, symName: __ZN4absl12lts_20220623L10VerifyTreeEPNS0_13cord_internal7CordRepE, symObjAddr: 0x3E4, symBinAddr: 0xFCF8, symSize: 0x6D8 }
  - { offsetInCU: 0x99CC, offset: 0x7C31B, size: 0x8, addend: 0x0, symName: __ZN4absl12lts_20220623L11ReportErrorEPNS0_13cord_internal7CordRepES3_, symObjAddr: 0x5734, symBinAddr: 0x15004, symSize: 0x6BC }
  - { offsetInCU: 0xB45D, offset: 0x7DDAC, size: 0x8, addend: 0x0, symName: __ZN4absl12lts_20220623L10ForceBtreeEPNS0_13cord_internal7CordRepE, symObjAddr: 0xD5C, symBinAddr: 0x10670, symSize: 0x108 }
  - { offsetInCU: 0xB84D, offset: 0x7E19C, size: 0x8, addend: 0x0, symName: __ZN4absl12lts_202206234Cord9InlineRep20PrependTreeToInlinedEPNS0_13cord_internal7CordRepENS3_18CordzUpdateTracker16MethodIdentifierE, symObjAddr: 0xE64, symBinAddr: 0x10778, symSize: 0x10C }
  - { offsetInCU: 0xBA2C, offset: 0x7E37B, size: 0x8, addend: 0x0, symName: __ZN4absl12lts_2022062314GenericCompareIbNS0_11string_viewEEET_RKNS0_4CordERKT0_m, symObjAddr: 0x4240, symBinAddr: 0x13B54, symSize: 0x8C }
  - { offsetInCU: 0xBB1B, offset: 0x7E46A, size: 0x8, addend: 0x0, symName: __ZNK4absl12lts_202206234Cord10EqualsImplERKS1_m, symObjAddr: 0x42CC, symBinAddr: 0x13BE0, symSize: 0x4 }
  - { offsetInCU: 0xBB38, offset: 0x7E487, size: 0x8, addend: 0x0, symName: __ZN4absl12lts_2022062314GenericCompareIbNS0_4CordEEET_RKS2_RKT0_m, symObjAddr: 0x42D0, symBinAddr: 0x13BE4, symSize: 0x98 }
  - { offsetInCU: 0xBC52, offset: 0x7E5A1, size: 0x8, addend: 0x0, symName: __ZNK4absl12lts_202206234Cord7CompareENS0_11string_viewE, symObjAddr: 0x4368, symBinAddr: 0x13C7C, symSize: 0x70 }
  - { offsetInCU: 0xBCD4, offset: 0x7E623, size: 0x8, addend: 0x0, symName: __ZN4absl12lts_2022062314GenericCompareIiNS0_11string_viewEEET_RKNS0_4CordERKT0_m, symObjAddr: 0x8024, symBinAddr: 0x16C24, symSize: 0x90 }
  - { offsetInCU: 0xBDC3, offset: 0x7E712, size: 0x8, addend: 0x0, symName: __ZN4absl12lts_2022062314GenericCompareIiNS0_4CordEEET_RKS2_RKT0_m, symObjAddr: 0x80B4, symBinAddr: 0x16CB4, symSize: 0x9C }
  - { offsetInCU: 0xBE45, offset: 0x7E794, size: 0x8, addend: 0x0, symName: __ZN4absl12lts_2022062314GenericCompareIiNS0_4CordEEET_RKS2_RKT0_m, symObjAddr: 0x80B4, symBinAddr: 0x16CB4, symSize: 0x9C }
  - { offsetInCU: 0xBF5F, offset: 0x7E8AE, size: 0x8, addend: 0x0, symName: '__ZN4absl12lts_2022062313cord_internal19CordRepExternalImplIZNS0_4Cord15FlattenSlowPathEvE3$_2E7ReleaseEPNS1_15CordRepExternalE', symObjAddr: 0x8150, symBinAddr: 0x16D50, symSize: 0x68 }
  - { offsetInCU: 0xBF7C, offset: 0x7E8CB, size: 0x8, addend: 0x0, symName: __ZN4absl12lts_2022062316CopyCordToStringERKNS0_4CordEPNSt3__112basic_stringIcNS4_11char_traitsIcEENS4_9allocatorIcEEEE, symObjAddr: 0x46A0, symBinAddr: 0x13FB4, symSize: 0x60 }
  - { offsetInCU: 0xC249, offset: 0x7EB98, size: 0x8, addend: 0x0, symName: __ZN4absl12lts_20220623lsERNSt3__113basic_ostreamIcNS1_11char_traitsIcEEEERKNS0_4CordE, symObjAddr: 0x5400, symBinAddr: 0x14CD0, symSize: 0xE8 }
  - { offsetInCU: 0xD1EA, offset: 0x7FB39, size: 0x8, addend: 0x0, symName: __ZN4absl12lts_2022062312_GLOBAL__N_113CompareChunksEPNS0_11string_viewES3_Pm, symObjAddr: 0x7D60, symBinAddr: 0x16960, symSize: 0x98 }
  - { offsetInCU: 0xD342, offset: 0x7FC91, size: 0x8, addend: 0x0, symName: __ZNK4absl12lts_202206234Cord15CompareSlowPathERKS1_mm, symObjAddr: 0x7DF8, symBinAddr: 0x169F8, symSize: 0x22C }
  - { offsetInCU: 0x144B1, offset: 0x86E00, size: 0x8, addend: 0x0, symName: __ZN4absl12lts_202206234Cord15FlattenSlowPathEv, symObjAddr: 0x50B4, symBinAddr: 0x14984, symSize: 0x1FC }
  - { offsetInCU: 0x16C51, offset: 0x895A0, size: 0x8, addend: 0x0, symName: __ZN4absl12lts_202206234CordC2INSt3__112basic_stringIcNS3_11char_traitsIcEENS3_9allocatorIcEEEELi0EEEOT_, symObjAddr: 0x0, symBinAddr: 0xF914, symSize: 0xE4 }
  - { offsetInCU: 0x16E52, offset: 0x897A1, size: 0x8, addend: 0x0, symName: __ZN4absl12lts_20220623L17CordRepFromStringEONSt3__112basic_stringIcNS1_11char_traitsIcEENS1_9allocatorIcEEEE, symObjAddr: 0xE4, symBinAddr: 0xF9F8, symSize: 0x168 }
  - { offsetInCU: 0x16E6C, offset: 0x897BB, size: 0x8, addend: 0x0, symName: __ZN4absl12lts_202206234CordC2INSt3__112basic_stringIcNS3_11char_traitsIcEENS3_9allocatorIcEEEELi0EEEOT_.cold.1, symObjAddr: 0x81B8, symBinAddr: 0x4E674, symSize: 0x24 }
  - { offsetInCU: 0x17345, offset: 0x89C94, size: 0x8, addend: 0x0, symName: __ZN4absl12lts_20220623L17CordRepFromStringEONSt3__112basic_stringIcNS1_11char_traitsIcEENS1_9allocatorIcEEEE.cold.1, symObjAddr: 0x81DC, symBinAddr: 0x4E698, symSize: 0x28 }
  - { offsetInCU: 0x1736E, offset: 0x89CBD, size: 0x8, addend: 0x0, symName: __ZN4absl12lts_202206234CordC1INSt3__112basic_stringIcNS3_11char_traitsIcEENS3_9allocatorIcEEEELi0EEEOT_, symObjAddr: 0x24C, symBinAddr: 0xFB60, symSize: 0x4 }
  - { offsetInCU: 0x173AB, offset: 0x89CFA, size: 0x8, addend: 0x0, symName: __ZN4absl12lts_202206234CordC1INSt3__112basic_stringIcNS3_11char_traitsIcEENS3_9allocatorIcEEEELi0EEEOT_, symObjAddr: 0x24C, symBinAddr: 0xFB60, symSize: 0x4 }
  - { offsetInCU: 0x173FC, offset: 0x89D4B, size: 0x8, addend: 0x0, symName: __ZN4absl12lts_202206234Cord6AppendINSt3__112basic_stringIcNS3_11char_traitsIcEENS3_9allocatorIcEEEELi0EEEvOT_, symObjAddr: 0x250, symBinAddr: 0xFB64, symSize: 0x70 }
  - { offsetInCU: 0x17556, offset: 0x89EA5, size: 0x8, addend: 0x0, symName: __ZN4absl12lts_202206234Cord9InlineRep10AppendTreeEPNS0_13cord_internal7CordRepENS3_18CordzUpdateTracker16MethodIdentifierE, symObjAddr: 0x2C0, symBinAddr: 0xFBD4, symSize: 0x44 }
  - { offsetInCU: 0x17628, offset: 0x89F77, size: 0x8, addend: 0x0, symName: __ZN4absl12lts_202206234Cord7PrependINSt3__112basic_stringIcNS3_11char_traitsIcEENS3_9allocatorIcEEEELi0EEEvOT_, symObjAddr: 0x304, symBinAddr: 0xFC18, symSize: 0x70 }
  - { offsetInCU: 0x17633, offset: 0x89F82, size: 0x8, addend: 0x0, symName: __ZN4absl12lts_202206234Cord9InlineRep11AppendArrayENS0_11string_viewENS0_13cord_internal18CordzUpdateTracker16MethodIdentifierE, symObjAddr: 0x1AC0, symBinAddr: 0x113D4, symSize: 0x54C }
  - { offsetInCU: 0x180F3, offset: 0x8AA42, size: 0x8, addend: 0x0, symName: __ZN4absl12lts_202206234Cord9InlineRep19AppendTreeToInlinedEPNS0_13cord_internal7CordRepENS3_18CordzUpdateTracker16MethodIdentifierE, symObjAddr: 0xABC, symBinAddr: 0x103D0, symSize: 0x10C }
  - { offsetInCU: 0x184E9, offset: 0x8AE38, size: 0x8, addend: 0x0, symName: __ZN4absl12lts_202206234Cord9InlineRep16AppendTreeToTreeEPNS0_13cord_internal7CordRepENS3_18CordzUpdateTracker16MethodIdentifierE, symObjAddr: 0xBC8, symBinAddr: 0x104DC, symSize: 0x164 }
  - { offsetInCU: 0x184F4, offset: 0x8AE43, size: 0x8, addend: 0x0, symName: __ZN4absl12lts_202206234Cord9InlineRep16AppendTreeToTreeEPNS0_13cord_internal7CordRepENS3_18CordzUpdateTracker16MethodIdentifierE, symObjAddr: 0xBC8, symBinAddr: 0x104DC, symSize: 0x164 }
  - { offsetInCU: 0x187FB, offset: 0x8B14A, size: 0x8, addend: 0x0, symName: __ZN4absl12lts_202206234Cord9InlineRep10AppendTreeEPNS0_13cord_internal7CordRepENS3_18CordzUpdateTracker16MethodIdentifierE.cold.1, symObjAddr: 0x8204, symBinAddr: 0x4E6C0, symSize: 0x28 }
  - { offsetInCU: 0x18813, offset: 0x8B162, size: 0x8, addend: 0x0, symName: __ZN4absl12lts_202206234Cord9InlineRep10AppendTreeEPNS0_13cord_internal7CordRepENS3_18CordzUpdateTracker16MethodIdentifierE.cold.2, symObjAddr: 0x822C, symBinAddr: 0x4E6E8, symSize: 0x28 }
  - { offsetInCU: 0x1882B, offset: 0x8B17A, size: 0x8, addend: 0x0, symName: __ZN4absl12lts_202206234Cord9InlineRep10AppendTreeEPNS0_13cord_internal7CordRepENS3_18CordzUpdateTracker16MethodIdentifierE.cold.3, symObjAddr: 0x8254, symBinAddr: 0x4E710, symSize: 0x28 }
  - { offsetInCU: 0x18867, offset: 0x8B1B6, size: 0x8, addend: 0x0, symName: __ZN4absl12lts_202206234Cord7PrependINSt3__112basic_stringIcNS3_11char_traitsIcEENS3_9allocatorIcEEEELi0EEEvOT_, symObjAddr: 0x304, symBinAddr: 0xFC18, symSize: 0x70 }
  - { offsetInCU: 0x189C2, offset: 0x8B311, size: 0x8, addend: 0x0, symName: __ZN4absl12lts_202206234Cord9InlineRep11PrependTreeEPNS0_13cord_internal7CordRepENS3_18CordzUpdateTracker16MethodIdentifierE, symObjAddr: 0x374, symBinAddr: 0xFC88, symSize: 0x44 }
  - { offsetInCU: 0x18A94, offset: 0x8B3E3, size: 0x8, addend: 0x0, symName: __ZN4absl12lts_2022062313cord_internal25InitializeCordRepExternalENS0_11string_viewEPNS1_15CordRepExternalE, symObjAddr: 0x3B8, symBinAddr: 0xFCCC, symSize: 0x2C }
  - { offsetInCU: 0x18A9F, offset: 0x8B3EE, size: 0x8, addend: 0x0, symName: __ZN4absl12lts_202206234Cord12PrependArrayENS0_11string_viewENS0_13cord_internal18CordzUpdateTracker16MethodIdentifierE, symObjAddr: 0x2B98, symBinAddr: 0x124AC, symSize: 0x130 }
  - { offsetInCU: 0x18C41, offset: 0x8B590, size: 0x8, addend: 0x0, symName: __ZN4absl12lts_202206234Cord9InlineRep20PrependTreeToInlinedEPNS0_13cord_internal7CordRepENS3_18CordzUpdateTracker16MethodIdentifierE, symObjAddr: 0xE64, symBinAddr: 0x10778, symSize: 0x10C }
  - { offsetInCU: 0x19037, offset: 0x8B986, size: 0x8, addend: 0x0, symName: __ZN4absl12lts_202206234Cord9InlineRep17PrependTreeToTreeEPNS0_13cord_internal7CordRepENS3_18CordzUpdateTracker16MethodIdentifierE, symObjAddr: 0xF70, symBinAddr: 0x10884, symSize: 0x164 }
  - { offsetInCU: 0x19042, offset: 0x8B991, size: 0x8, addend: 0x0, symName: __ZN4absl12lts_202206234Cord9InlineRep17PrependTreeToTreeEPNS0_13cord_internal7CordRepENS3_18CordzUpdateTracker16MethodIdentifierE, symObjAddr: 0xF70, symBinAddr: 0x10884, symSize: 0x164 }
  - { offsetInCU: 0x19349, offset: 0x8BC98, size: 0x8, addend: 0x0, symName: __ZN4absl12lts_202206234Cord9InlineRep11PrependTreeEPNS0_13cord_internal7CordRepENS3_18CordzUpdateTracker16MethodIdentifierE.cold.1, symObjAddr: 0x827C, symBinAddr: 0x4E738, symSize: 0x28 }
  - { offsetInCU: 0x19361, offset: 0x8BCB0, size: 0x8, addend: 0x0, symName: __ZN4absl12lts_202206234Cord9InlineRep11PrependTreeEPNS0_13cord_internal7CordRepENS3_18CordzUpdateTracker16MethodIdentifierE.cold.2, symObjAddr: 0x82A4, symBinAddr: 0x4E760, symSize: 0x28 }
  - { offsetInCU: 0x19379, offset: 0x8BCC8, size: 0x8, addend: 0x0, symName: __ZN4absl12lts_202206234Cord9InlineRep11PrependTreeEPNS0_13cord_internal7CordRepENS3_18CordzUpdateTracker16MethodIdentifierE.cold.3, symObjAddr: 0x82CC, symBinAddr: 0x4E788, symSize: 0x28 }
  - { offsetInCU: 0x19391, offset: 0x8BCE0, size: 0x8, addend: 0x0, symName: __ZN4absl12lts_2022062313cord_internal25InitializeCordRepExternalENS0_11string_viewEPNS1_15CordRepExternalE.cold.1, symObjAddr: 0x82F4, symBinAddr: 0x4E7B0, symSize: 0x28 }
  - { offsetInCU: 0x199D6, offset: 0x8C325, size: 0x8, addend: 0x0, symName: __ZN4absl12lts_2022062323inlined_vector_internal7StorageIPNS0_13cord_internal7CordRepELm2ENSt3__19allocatorIS5_EEE11EmplaceBackIJRKS5_EEERS5_DpOT_, symObjAddr: 0x5DFC, symBinAddr: 0x156C0, symSize: 0x44 }
  - { offsetInCU: 0x19A31, offset: 0x8C380, size: 0x8, addend: 0x0, symName: __ZN4absl12lts_2022062323inlined_vector_internal7StorageIPNS0_13cord_internal7CordRepELm2ENSt3__19allocatorIS5_EEE11EmplaceBackIJRKS5_EEERS5_DpOT_, symObjAddr: 0x5DFC, symBinAddr: 0x156C0, symSize: 0x44 }
  - { offsetInCU: 0x19A4D, offset: 0x8C39C, size: 0x8, addend: 0x0, symName: __ZN4absl12lts_2022062323inlined_vector_internal7StorageIPNS0_13cord_internal7CordRepELm2ENSt3__19allocatorIS5_EEE11EmplaceBackIJRKS5_EEERS5_DpOT_, symObjAddr: 0x5DFC, symBinAddr: 0x156C0, symSize: 0x44 }
  - { offsetInCU: 0x19B36, offset: 0x8C485, size: 0x8, addend: 0x0, symName: __ZN4absl12lts_2022062313InlinedVectorIPNS0_13cord_internal7CordRepELm2ENSt3__19allocatorIS4_EEE4backEv, symObjAddr: 0x56AC, symBinAddr: 0x14F7C, symSize: 0x3C }
  - { offsetInCU: 0x19C14, offset: 0x8C563, size: 0x8, addend: 0x0, symName: __ZN4absl12lts_2022062313InlinedVectorIPNS0_13cord_internal7CordRepELm2ENSt3__19allocatorIS4_EEE8pop_backEv, symObjAddr: 0x56E8, symBinAddr: 0x14FB8, symSize: 0x4C }
  - { offsetInCU: 0x19C1F, offset: 0x8C56E, size: 0x8, addend: 0x0, symName: __ZN4absl12lts_2022062313InlinedVectorIPNS0_13cord_internal7CordRepELm2ENSt3__19allocatorIS4_EEE8pop_backEv, symObjAddr: 0x56E8, symBinAddr: 0x14FB8, symSize: 0x4C }
  - { offsetInCU: 0x19F23, offset: 0x8C872, size: 0x8, addend: 0x0, symName: __ZNK4absl12lts_202206234Cord15CompareSlowPathENS0_11string_viewEmm, symObjAddr: 0x7A68, symBinAddr: 0x16668, symSize: 0x194 }
  - { offsetInCU: 0x1A093, offset: 0x8C9E2, size: 0x8, addend: 0x0, symName: __ZN4absl12lts_2022062313cord_internal11CordRepFlat7NewImplILm4096EJEEEPS2_mDpT0_, symObjAddr: 0x6F68, symBinAddr: 0x15C08, symSize: 0xA8 }
  - { offsetInCU: 0x1A308, offset: 0x8CC57, size: 0x8, addend: 0x0, symName: __ZN4absl12lts_2022062310CordBufferD1Ev, symObjAddr: 0x7010, symBinAddr: 0x15CB0, symSize: 0x34 }
  - { offsetInCU: 0x1A324, offset: 0x8CC73, size: 0x8, addend: 0x0, symName: __ZN4absl12lts_202206234Cord9InlineRep19AppendTreeToInlinedEPNS0_13cord_internal7CordRepENS3_18CordzUpdateTracker16MethodIdentifierE.cold.2, symObjAddr: 0x8340, symBinAddr: 0x4E7FC, symSize: 0x24 }
  - { offsetInCU: 0x1A367, offset: 0x8CCB6, size: 0x8, addend: 0x0, symName: __ZN4absl12lts_202206234Cord9InlineRep19AppendTreeToInlinedEPNS0_13cord_internal7CordRepENS3_18CordzUpdateTracker16MethodIdentifierE.cold.3, symObjAddr: 0x8364, symBinAddr: 0x4E820, symSize: 0x28 }
  - { offsetInCU: 0x1A37F, offset: 0x8CCCE, size: 0x8, addend: 0x0, symName: __ZN4absl12lts_202206234Cord9InlineRep19AppendTreeToInlinedEPNS0_13cord_internal7CordRepENS3_18CordzUpdateTracker16MethodIdentifierE.cold.1, symObjAddr: 0x831C, symBinAddr: 0x4E7D8, symSize: 0x24 }
  - { offsetInCU: 0x1A4F5, offset: 0x8CE44, size: 0x8, addend: 0x0, symName: __ZNK4absl12lts_2022062313cord_internal10InlineData10cordz_infoEv, symObjAddr: 0xD2C, symBinAddr: 0x10640, symSize: 0x30 }
  - { offsetInCU: 0x1A5AE, offset: 0x8CEFD, size: 0x8, addend: 0x0, symName: __ZN4absl12lts_20220623L10ForceBtreeEPNS0_13cord_internal7CordRepE, symObjAddr: 0xD5C, symBinAddr: 0x10670, symSize: 0x108 }
  - { offsetInCU: 0x1A5B9, offset: 0x8CF08, size: 0x8, addend: 0x0, symName: __ZN4absl12lts_2022062313cord_internal16CordzUpdateScopeD2Ev, symObjAddr: 0x6CF0, symBinAddr: 0x15990, symSize: 0x34 }
  - { offsetInCU: 0x1A5E4, offset: 0x8CF33, size: 0x8, addend: 0x0, symName: __ZN4absl12lts_202206234Cord9InlineRep16AppendTreeToTreeEPNS0_13cord_internal7CordRepENS3_18CordzUpdateTracker16MethodIdentifierE.cold.1, symObjAddr: 0x838C, symBinAddr: 0x4E848, symSize: 0x28 }
  - { offsetInCU: 0x1A5FC, offset: 0x8CF4B, size: 0x8, addend: 0x0, symName: __ZNK4absl12lts_2022062313cord_internal10InlineData10cordz_infoEv.cold.1, symObjAddr: 0x83B4, symBinAddr: 0x4E870, symSize: 0x28 }
  - { offsetInCU: 0x1A614, offset: 0x8CF63, size: 0x8, addend: 0x0, symName: __ZNK4absl12lts_2022062313cord_internal10InlineData10cordz_infoEv.cold.2, symObjAddr: 0x83DC, symBinAddr: 0x4E898, symSize: 0x28 }
  - { offsetInCU: 0x1A75B, offset: 0x8D0AA, size: 0x8, addend: 0x0, symName: __ZN4absl12lts_20220623L10ForceBtreeEPNS0_13cord_internal7CordRepE.cold.1, symObjAddr: 0x8404, symBinAddr: 0x4E8C0, symSize: 0x24 }
  - { offsetInCU: 0x1A79E, offset: 0x8D0ED, size: 0x8, addend: 0x0, symName: __ZN4absl12lts_20220623L10ForceBtreeEPNS0_13cord_internal7CordRepE.cold.2, symObjAddr: 0x8428, symBinAddr: 0x4E8E4, symSize: 0x24 }
  - { offsetInCU: 0x1A7E0, offset: 0x8D12F, size: 0x8, addend: 0x0, symName: __ZN4absl12lts_20220623L10ForceBtreeEPNS0_13cord_internal7CordRepE.cold.3, symObjAddr: 0x844C, symBinAddr: 0x4E908, symSize: 0x24 }
  - { offsetInCU: 0x1A822, offset: 0x8D171, size: 0x8, addend: 0x0, symName: __ZN4absl12lts_20220623L10ForceBtreeEPNS0_13cord_internal7CordRepE.cold.4, symObjAddr: 0x8470, symBinAddr: 0x4E92C, symSize: 0x24 }
  - { offsetInCU: 0x1A89C, offset: 0x8D1EB, size: 0x8, addend: 0x0, symName: __ZN4absl12lts_202206234Cord9InlineRep20PrependTreeToInlinedEPNS0_13cord_internal7CordRepENS3_18CordzUpdateTracker16MethodIdentifierE.cold.2, symObjAddr: 0x84B8, symBinAddr: 0x4E974, symSize: 0x24 }
  - { offsetInCU: 0x1A8DF, offset: 0x8D22E, size: 0x8, addend: 0x0, symName: __ZN4absl12lts_202206234Cord9InlineRep20PrependTreeToInlinedEPNS0_13cord_internal7CordRepENS3_18CordzUpdateTracker16MethodIdentifierE.cold.3, symObjAddr: 0x84DC, symBinAddr: 0x4E998, symSize: 0x28 }
  - { offsetInCU: 0x1A8F7, offset: 0x8D246, size: 0x8, addend: 0x0, symName: __ZN4absl12lts_202206234Cord9InlineRep20PrependTreeToInlinedEPNS0_13cord_internal7CordRepENS3_18CordzUpdateTracker16MethodIdentifierE.cold.1, symObjAddr: 0x8494, symBinAddr: 0x4E950, symSize: 0x24 }
  - { offsetInCU: 0x1A924, offset: 0x8D273, size: 0x8, addend: 0x0, symName: __ZN4absl12lts_202206234Cord9InlineRep17PrependTreeToTreeEPNS0_13cord_internal7CordRepENS3_18CordzUpdateTracker16MethodIdentifierE.cold.1, symObjAddr: 0x8504, symBinAddr: 0x4E9C0, symSize: 0x28 }
  - { offsetInCU: 0x1A9EC, offset: 0x8D33B, size: 0x8, addend: 0x0, symName: __ZN4absl12lts_202206234Cord9InlineRep10AssignSlowERKS2_, symObjAddr: 0x10D4, symBinAddr: 0x109E8, symSize: 0x128 }
  - { offsetInCU: 0x1AEDA, offset: 0x8D829, size: 0x8, addend: 0x0, symName: __ZN4absl12lts_2022062313cord_internal7CordRep5UnrefEPS2_, symObjAddr: 0x11FC, symBinAddr: 0x10B10, symSize: 0x50 }
  - { offsetInCU: 0x1AEE5, offset: 0x8D834, size: 0x8, addend: 0x0, symName: __ZN4absl12lts_2022062313cord_internal10InlineData18is_either_profiledERKS2_S4_, symObjAddr: 0x6D24, symBinAddr: 0x159C4, symSize: 0x3C }
  - { offsetInCU: 0x1AF90, offset: 0x8D8DF, size: 0x8, addend: 0x0, symName: __ZN4absl12lts_2022062313cord_internal12CordRepBtree15GetAppendBufferEm, symObjAddr: 0x6D60, symBinAddr: 0x15A00, symSize: 0x208 }
  - { offsetInCU: 0x1AF9A, offset: 0x8D8E9, size: 0x8, addend: 0x0, symName: __ZN4absl12lts_2022062313cord_internal7CordRep5UnrefEPS2_, symObjAddr: 0x11FC, symBinAddr: 0x10B10, symSize: 0x50 }
  - { offsetInCU: 0x1B040, offset: 0x8D98F, size: 0x8, addend: 0x0, symName: __ZN4absl12lts_202206234Cord9InlineRep10AssignSlowERKS2_.cold.1, symObjAddr: 0x852C, symBinAddr: 0x4E9E8, symSize: 0x28 }
  - { offsetInCU: 0x1B058, offset: 0x8D9A7, size: 0x8, addend: 0x0, symName: __ZN4absl12lts_202206234Cord9InlineRep10AssignSlowERKS2_.cold.2, symObjAddr: 0x8554, symBinAddr: 0x4EA10, symSize: 0x28 }
  - { offsetInCU: 0x1B070, offset: 0x8D9BF, size: 0x8, addend: 0x0, symName: __ZN4absl12lts_202206234Cord9InlineRep10AssignSlowERKS2_.cold.3, symObjAddr: 0x857C, symBinAddr: 0x4EA38, symSize: 0x24 }
  - { offsetInCU: 0x1B09E, offset: 0x8D9ED, size: 0x8, addend: 0x0, symName: __ZN4absl12lts_202206234Cord9InlineRep10AssignSlowERKS2_.cold.4, symObjAddr: 0x85A0, symBinAddr: 0x4EA5C, symSize: 0x28 }
  - { offsetInCU: 0x1B0CC, offset: 0x8DA1B, size: 0x8, addend: 0x0, symName: __ZN4absl12lts_2022062313cord_internal7CordRep5UnrefEPS2_.cold.1, symObjAddr: 0x85C8, symBinAddr: 0x4EA84, symSize: 0x24 }
  - { offsetInCU: 0x1B0E4, offset: 0x8DA33, size: 0x8, addend: 0x0, symName: __ZN4absl12lts_2022062313cord_internal7CordRep5UnrefEPS2_.cold.2, symObjAddr: 0x85EC, symBinAddr: 0x4EAA8, symSize: 0x24 }
  - { offsetInCU: 0x1B112, offset: 0x8DA61, size: 0x8, addend: 0x0, symName: __ZN4absl12lts_202206234Cord9InlineRep9UnrefTreeEv, symObjAddr: 0x124C, symBinAddr: 0x10B60, symSize: 0x84 }
  - { offsetInCU: 0x1B306, offset: 0x8DC55, size: 0x8, addend: 0x0, symName: __ZN4absl12lts_202206234Cord9InlineRep9UnrefTreeEv.cold.1, symObjAddr: 0x8610, symBinAddr: 0x4EACC, symSize: 0x24 }
  - { offsetInCU: 0x1B334, offset: 0x8DC83, size: 0x8, addend: 0x0, symName: __ZN4absl12lts_202206234Cord9InlineRep9UnrefTreeEv.cold.2, symObjAddr: 0x8634, symBinAddr: 0x4EAF0, symSize: 0x24 }
  - { offsetInCU: 0x1B378, offset: 0x8DCC7, size: 0x8, addend: 0x0, symName: __ZN4absl12lts_202206234CordC2ENS0_11string_viewENS0_13cord_internal18CordzUpdateTracker16MethodIdentifierE, symObjAddr: 0x12D0, symBinAddr: 0x10BE4, symSize: 0xC8 }
  - { offsetInCU: 0x1B4FE, offset: 0x8DE4D, size: 0x8, addend: 0x0, symName: __ZN4absl12lts_20220623L7NewTreeEPKcmm, symObjAddr: 0x1398, symBinAddr: 0x10CAC, symSize: 0x100 }
  - { offsetInCU: 0x1B509, offset: 0x8DE58, size: 0x8, addend: 0x0, symName: __ZN4absl12lts_202206234CordC2ENS0_11string_viewENS0_13cord_internal18CordzUpdateTracker16MethodIdentifierE.cold.1, symObjAddr: 0x8658, symBinAddr: 0x4EB14, symSize: 0x24 }
  - { offsetInCU: 0x1B5EE, offset: 0x8DF3D, size: 0x8, addend: 0x0, symName: __ZN4absl12lts_20220623L7NewTreeEPKcmm.cold.1, symObjAddr: 0x867C, symBinAddr: 0x4EB38, symSize: 0x24 }
  - { offsetInCU: 0x1B670, offset: 0x8DFBF, size: 0x8, addend: 0x0, symName: __ZN4absl12lts_202206234CordC1ENS0_11string_viewENS0_13cord_internal18CordzUpdateTracker16MethodIdentifierE, symObjAddr: 0x1498, symBinAddr: 0x10DAC, symSize: 0x4 }
  - { offsetInCU: 0x1B6A0, offset: 0x8DFEF, size: 0x8, addend: 0x0, symName: __ZN4absl12lts_202206234CordC1ENS0_11string_viewENS0_13cord_internal18CordzUpdateTracker16MethodIdentifierE, symObjAddr: 0x1498, symBinAddr: 0x10DAC, symSize: 0x4 }
  - { offsetInCU: 0x1B6D6, offset: 0x8E025, size: 0x8, addend: 0x0, symName: __ZN4absl12lts_202206234Cord15DestroyCordSlowEv, symObjAddr: 0x149C, symBinAddr: 0x10DB0, symSize: 0x90 }
  - { offsetInCU: 0x1B8CE, offset: 0x8E21D, size: 0x8, addend: 0x0, symName: __ZN4absl12lts_202206234Cord15DestroyCordSlowEv.cold.1, symObjAddr: 0x86A0, symBinAddr: 0x4EB5C, symSize: 0x28 }
  - { offsetInCU: 0x1B8E6, offset: 0x8E235, size: 0x8, addend: 0x0, symName: __ZN4absl12lts_202206234Cord15DestroyCordSlowEv.cold.2, symObjAddr: 0x86C8, symBinAddr: 0x4EB84, symSize: 0x28 }
  - { offsetInCU: 0x1B914, offset: 0x8E263, size: 0x8, addend: 0x0, symName: __ZN4absl12lts_202206234Cord15DestroyCordSlowEv.cold.3, symObjAddr: 0x86F0, symBinAddr: 0x4EBAC, symSize: 0x24 }
  - { offsetInCU: 0x1B942, offset: 0x8E291, size: 0x8, addend: 0x0, symName: __ZN4absl12lts_202206234Cord15DestroyCordSlowEv.cold.4, symObjAddr: 0x8714, symBinAddr: 0x4EBD0, symSize: 0x24 }
  - { offsetInCU: 0x1B9C0, offset: 0x8E30F, size: 0x8, addend: 0x0, symName: __ZN4absl12lts_202206234Cord5ClearEv, symObjAddr: 0x152C, symBinAddr: 0x10E40, symSize: 0x90 }
  - { offsetInCU: 0x1BC13, offset: 0x8E562, size: 0x8, addend: 0x0, symName: __ZN4absl12lts_202206234Cord5ClearEv.cold.1, symObjAddr: 0x8738, symBinAddr: 0x4EBF4, symSize: 0x24 }
  - { offsetInCU: 0x1BC57, offset: 0x8E5A6, size: 0x8, addend: 0x0, symName: __ZN4absl12lts_202206234Cord17AssignLargeStringEONSt3__112basic_stringIcNS2_11char_traitsIcEENS2_9allocatorIcEEEE, symObjAddr: 0x15BC, symBinAddr: 0x10ED0, symSize: 0x168 }
  - { offsetInCU: 0x1C096, offset: 0x8E9E5, size: 0x8, addend: 0x0, symName: __ZN4absl12lts_202206234Cord17AssignLargeStringEONSt3__112basic_stringIcNS2_11char_traitsIcEENS2_9allocatorIcEEEE.cold.1, symObjAddr: 0x875C, symBinAddr: 0x4EC18, symSize: 0x28 }
  - { offsetInCU: 0x1C0AE, offset: 0x8E9FD, size: 0x8, addend: 0x0, symName: __ZN4absl12lts_202206234Cord17AssignLargeStringEONSt3__112basic_stringIcNS2_11char_traitsIcEENS2_9allocatorIcEEEE.cold.2, symObjAddr: 0x8784, symBinAddr: 0x4EC40, symSize: 0x24 }
  - { offsetInCU: 0x1C0F2, offset: 0x8EA41, size: 0x8, addend: 0x0, symName: __ZN4absl12lts_202206234CordaSENS0_11string_viewE, symObjAddr: 0x1724, symBinAddr: 0x11038, symSize: 0x39C }
  - { offsetInCU: 0x1C878, offset: 0x8F1C7, size: 0x8, addend: 0x0, symName: __ZN4absl12lts_202206234CordaSENS0_11string_viewE.cold.1, symObjAddr: 0x87A8, symBinAddr: 0x4EC64, symSize: 0x24 }
  - { offsetInCU: 0x1C8A6, offset: 0x8F1F5, size: 0x8, addend: 0x0, symName: __ZN4absl12lts_202206234CordaSENS0_11string_viewE.cold.2, symObjAddr: 0x87CC, symBinAddr: 0x4EC88, symSize: 0x24 }
  - { offsetInCU: 0x1C988, offset: 0x8F2D7, size: 0x8, addend: 0x0, symName: __ZN4absl12lts_2022062313cord_internal12CordRepBtree15GetAppendBufferEm, symObjAddr: 0x6D60, symBinAddr: 0x15A00, symSize: 0x208 }
  - { offsetInCU: 0x1CE93, offset: 0x8F7E2, size: 0x8, addend: 0x0, symName: __ZN4absl12lts_2022062313cord_internal11CordRepFlat7NewImplILm4096EJEEEPS2_mDpT0_, symObjAddr: 0x6F68, symBinAddr: 0x15C08, symSize: 0xA8 }
  - { offsetInCU: 0x1D139, offset: 0x8FA88, size: 0x8, addend: 0x0, symName: __ZN4absl12lts_202206234Cord23GetAppendBufferSlowPathEmm, symObjAddr: 0x200C, symBinAddr: 0x11920, symSize: 0x398 }
  - { offsetInCU: 0x1DB6A, offset: 0x904B9, size: 0x8, addend: 0x0, symName: __ZN4absl12lts_202206234Cord23GetAppendBufferSlowPathEmm.cold.1, symObjAddr: 0x87F0, symBinAddr: 0x4ECAC, symSize: 0x24 }
  - { offsetInCU: 0x1DBAE, offset: 0x904FD, size: 0x8, addend: 0x0, symName: __ZN4absl12lts_2022062310CordBufferD1Ev, symObjAddr: 0x7010, symBinAddr: 0x15CB0, symSize: 0x34 }
  - { offsetInCU: 0x1DC3F, offset: 0x9058E, size: 0x8, addend: 0x0, symName: __ZN4absl12lts_202206234Cord6AppendERKS1_, symObjAddr: 0x23A4, symBinAddr: 0x11CB8, symSize: 0x4 }
  - { offsetInCU: 0x1DC79, offset: 0x905C8, size: 0x8, addend: 0x0, symName: __ZN4absl12lts_202206234Cord6AppendERKS1_, symObjAddr: 0x23A4, symBinAddr: 0x11CB8, symSize: 0x4 }
  - { offsetInCU: 0x1DC92, offset: 0x905E1, size: 0x8, addend: 0x0, symName: __ZN4absl12lts_202206234Cord10AppendImplIRKS1_EEvOT_, symObjAddr: 0x23A8, symBinAddr: 0x11CBC, symSize: 0x360 }
  - { offsetInCU: 0x1EA7E, offset: 0x913CD, size: 0x8, addend: 0x0, symName: __ZN4absl12lts_202206234Cord13ChunkIteratorC2EPKS1_, symObjAddr: 0x70B0, symBinAddr: 0x15D50, symSize: 0x120 }
  - { offsetInCU: 0x1EE76, offset: 0x917C5, size: 0x8, addend: 0x0, symName: __ZN4absl12lts_2022062313cord_internal18CordRepBtreeReader4InitEPNS1_12CordRepBtreeE, symObjAddr: 0x71D0, symBinAddr: 0x15E70, symSize: 0xB4 }
  - { offsetInCU: 0x1EE81, offset: 0x917D0, size: 0x8, addend: 0x0, symName: __ZN4absl12lts_2022062313cord_internal18CordRepBtreeReader4NextEv, symObjAddr: 0x4EC8, symBinAddr: 0x14798, symSize: 0x114 }
  - { offsetInCU: 0x1F093, offset: 0x919E2, size: 0x8, addend: 0x0, symName: __ZNK4absl12lts_202206234CordixEm, symObjAddr: 0x4FDC, symBinAddr: 0x148AC, symSize: 0xD8 }
  - { offsetInCU: 0x1F09E, offset: 0x919ED, size: 0x8, addend: 0x0, symName: __ZN4absl12lts_202206234Cord10AppendImplIS1_EEvOT_, symObjAddr: 0x270C, symBinAddr: 0x12020, symSize: 0x38C }
  - { offsetInCU: 0x1FC21, offset: 0x92570, size: 0x8, addend: 0x0, symName: __ZN4absl12lts_202206234CordD2Ev, symObjAddr: 0x76D4, symBinAddr: 0x16374, symSize: 0x34 }
  - { offsetInCU: 0x1FCB6, offset: 0x92605, size: 0x8, addend: 0x0, symName: __ZN4absl12lts_202206234Cord10AppendImplIRKS1_EEvOT_.cold.7, symObjAddr: 0x88EC, symBinAddr: 0x4EDA8, symSize: 0x24 }
  - { offsetInCU: 0x1FCFA, offset: 0x92649, size: 0x8, addend: 0x0, symName: __ZN4absl12lts_202206234Cord10AppendImplIRKS1_EEvOT_.cold.8, symObjAddr: 0x8910, symBinAddr: 0x4EDCC, symSize: 0x24 }
  - { offsetInCU: 0x1FD28, offset: 0x92677, size: 0x8, addend: 0x0, symName: __ZN4absl12lts_202206234Cord10AppendImplIRKS1_EEvOT_.cold.9, symObjAddr: 0x8934, symBinAddr: 0x4EDF0, symSize: 0x24 }
  - { offsetInCU: 0x1FD56, offset: 0x926A5, size: 0x8, addend: 0x0, symName: __ZN4absl12lts_202206234Cord10AppendImplIRKS1_EEvOT_.cold.1, symObjAddr: 0x8814, symBinAddr: 0x4ECD0, symSize: 0x24 }
  - { offsetInCU: 0x1FD9A, offset: 0x926E9, size: 0x8, addend: 0x0, symName: __ZN4absl12lts_202206234Cord10AppendImplIRKS1_EEvOT_.cold.2, symObjAddr: 0x8838, symBinAddr: 0x4ECF4, symSize: 0x24 }
  - { offsetInCU: 0x1FDC8, offset: 0x92717, size: 0x8, addend: 0x0, symName: __ZN4absl12lts_202206234Cord10AppendImplIRKS1_EEvOT_.cold.6, symObjAddr: 0x88C8, symBinAddr: 0x4ED84, symSize: 0x24 }
  - { offsetInCU: 0x1FDF6, offset: 0x92745, size: 0x8, addend: 0x0, symName: __ZN4absl12lts_202206234Cord10AppendImplIRKS1_EEvOT_.cold.5, symObjAddr: 0x88A4, symBinAddr: 0x4ED60, symSize: 0x24 }
  - { offsetInCU: 0x1FE3A, offset: 0x92789, size: 0x8, addend: 0x0, symName: __ZN4absl12lts_202206234Cord10AppendImplIRKS1_EEvOT_.cold.3, symObjAddr: 0x885C, symBinAddr: 0x4ED18, symSize: 0x24 }
  - { offsetInCU: 0x1FE7D, offset: 0x927CC, size: 0x8, addend: 0x0, symName: __ZN4absl12lts_202206234Cord10AppendImplIRKS1_EEvOT_.cold.4, symObjAddr: 0x8880, symBinAddr: 0x4ED3C, symSize: 0x24 }
  - { offsetInCU: 0x1FEC0, offset: 0x9280F, size: 0x8, addend: 0x0, symName: __ZN4absl12lts_202206234Cord10AppendImplIRKS1_EEvOT_.cold.10, symObjAddr: 0x8958, symBinAddr: 0x4EE14, symSize: 0x24 }
  - { offsetInCU: 0x1FF03, offset: 0x92852, size: 0x8, addend: 0x0, symName: __ZN4absl12lts_202206234Cord10AppendImplIRKS1_EEvOT_.cold.11, symObjAddr: 0x897C, symBinAddr: 0x4EE38, symSize: 0x24 }
  - { offsetInCU: 0x1FF46, offset: 0x92895, size: 0x8, addend: 0x0, symName: __ZN4absl12lts_202206234Cord6AppendEOS1_, symObjAddr: 0x2708, symBinAddr: 0x1201C, symSize: 0x4 }
  - { offsetInCU: 0x1FF70, offset: 0x928BF, size: 0x8, addend: 0x0, symName: __ZN4absl12lts_202206234Cord6AppendEOS1_, symObjAddr: 0x2708, symBinAddr: 0x1201C, symSize: 0x4 }
  - { offsetInCU: 0x1FFAE, offset: 0x928FD, size: 0x8, addend: 0x0, symName: __ZN4absl12lts_202206234Cord10AppendImplIS1_EEvOT_.cold.7, symObjAddr: 0x8A84, symBinAddr: 0x4EF40, symSize: 0x24 }
  - { offsetInCU: 0x1FFF2, offset: 0x92941, size: 0x8, addend: 0x0, symName: __ZN4absl12lts_202206234Cord10AppendImplIS1_EEvOT_.cold.8, symObjAddr: 0x8AA8, symBinAddr: 0x4EF64, symSize: 0x24 }
  - { offsetInCU: 0x20020, offset: 0x9296F, size: 0x8, addend: 0x0, symName: __ZN4absl12lts_202206234Cord10AppendImplIS1_EEvOT_.cold.9, symObjAddr: 0x8ACC, symBinAddr: 0x4EF88, symSize: 0x24 }
  - { offsetInCU: 0x2004E, offset: 0x9299D, size: 0x8, addend: 0x0, symName: __ZN4absl12lts_202206234Cord10AppendImplIS1_EEvOT_.cold.1, symObjAddr: 0x89A0, symBinAddr: 0x4EE5C, symSize: 0x28 }
  - { offsetInCU: 0x2007C, offset: 0x929CB, size: 0x8, addend: 0x0, symName: __ZN4absl12lts_202206234Cord10AppendImplIS1_EEvOT_.cold.2, symObjAddr: 0x89C8, symBinAddr: 0x4EE84, symSize: 0x24 }
  - { offsetInCU: 0x200AA, offset: 0x929F9, size: 0x8, addend: 0x0, symName: __ZN4absl12lts_202206234Cord10AppendImplIS1_EEvOT_.cold.6, symObjAddr: 0x8A60, symBinAddr: 0x4EF1C, symSize: 0x24 }
  - { offsetInCU: 0x200D8, offset: 0x92A27, size: 0x8, addend: 0x0, symName: __ZN4absl12lts_202206234Cord10AppendImplIS1_EEvOT_.cold.5, symObjAddr: 0x8A34, symBinAddr: 0x4EEF0, symSize: 0x2C }
  - { offsetInCU: 0x20147, offset: 0x92A96, size: 0x8, addend: 0x0, symName: __ZN4absl12lts_202206234Cord10AppendImplIS1_EEvOT_.cold.3, symObjAddr: 0x89EC, symBinAddr: 0x4EEA8, symSize: 0x24 }
  - { offsetInCU: 0x2018A, offset: 0x92AD9, size: 0x8, addend: 0x0, symName: __ZN4absl12lts_202206234Cord10AppendImplIS1_EEvOT_.cold.4, symObjAddr: 0x8A10, symBinAddr: 0x4EECC, symSize: 0x24 }
  - { offsetInCU: 0x201CD, offset: 0x92B1C, size: 0x8, addend: 0x0, symName: __ZN4absl12lts_202206234Cord10AppendImplIS1_EEvOT_.cold.10, symObjAddr: 0x8AF0, symBinAddr: 0x4EFAC, symSize: 0x24 }
  - { offsetInCU: 0x20210, offset: 0x92B5F, size: 0x8, addend: 0x0, symName: __ZN4absl12lts_202206234Cord10AppendImplIS1_EEvOT_.cold.11, symObjAddr: 0x8B14, symBinAddr: 0x4EFD0, symSize: 0x24 }
  - { offsetInCU: 0x20253, offset: 0x92BA2, size: 0x8, addend: 0x0, symName: __ZN4absl12lts_202206234Cord7PrependERKS1_, symObjAddr: 0x2A98, symBinAddr: 0x123AC, symSize: 0x100 }
  - { offsetInCU: 0x206AF, offset: 0x92FFE, size: 0x8, addend: 0x0, symName: __ZN4absl12lts_202206234Cord12PrependArrayENS0_11string_viewENS0_13cord_internal18CordzUpdateTracker16MethodIdentifierE, symObjAddr: 0x2B98, symBinAddr: 0x124AC, symSize: 0x130 }
  - { offsetInCU: 0x206BA, offset: 0x93009, size: 0x8, addend: 0x0, symName: __ZN4absl12lts_202206234Cord7PrependERKS1_.cold.1, symObjAddr: 0x8B38, symBinAddr: 0x4EFF4, symSize: 0x24 }
  - { offsetInCU: 0x20728, offset: 0x93077, size: 0x8, addend: 0x0, symName: __ZN4absl12lts_202206234Cord7PrependERKS1_.cold.2, symObjAddr: 0x8B5C, symBinAddr: 0x4F018, symSize: 0x24 }
  - { offsetInCU: 0x2076B, offset: 0x930BA, size: 0x8, addend: 0x0, symName: __ZN4absl12lts_202206234Cord7PrependERKS1_.cold.3, symObjAddr: 0x8B80, symBinAddr: 0x4F03C, symSize: 0x24 }
  - { offsetInCU: 0x207AE, offset: 0x930FD, size: 0x8, addend: 0x0, symName: __ZN4absl12lts_202206234Cord7PrependERKS1_.cold.4, symObjAddr: 0x8BA4, symBinAddr: 0x4F060, symSize: 0x24 }
  - { offsetInCU: 0x20860, offset: 0x931AF, size: 0x8, addend: 0x0, symName: __ZN4absl12lts_202206234Cord13AppendPreciseENS0_11string_viewENS0_13cord_internal18CordzUpdateTracker16MethodIdentifierE, symObjAddr: 0x2CC8, symBinAddr: 0x125DC, symSize: 0xBC }
  - { offsetInCU: 0x209F3, offset: 0x93342, size: 0x8, addend: 0x0, symName: __ZN4absl12lts_2022062313cord_internal11CordRepFlat6CreateENS0_11string_viewEm, symObjAddr: 0x2D84, symBinAddr: 0x12698, symSize: 0x64 }
  - { offsetInCU: 0x209FE, offset: 0x9334D, size: 0x8, addend: 0x0, symName: __ZN4absl12lts_2022062313cord_internal11CordRepFlat6CreateENS0_11string_viewEm, symObjAddr: 0x2D84, symBinAddr: 0x12698, symSize: 0x64 }
  - { offsetInCU: 0x20A89, offset: 0x933D8, size: 0x8, addend: 0x0, symName: __ZN4absl12lts_202206234Cord14PrependPreciseENS0_11string_viewENS0_13cord_internal18CordzUpdateTracker16MethodIdentifierE, symObjAddr: 0x2DE8, symBinAddr: 0x126FC, symSize: 0x15C }
  - { offsetInCU: 0x20A94, offset: 0x933E3, size: 0x8, addend: 0x0, symName: __ZN4absl12lts_202206234Cord13AppendPreciseENS0_11string_viewENS0_13cord_internal18CordzUpdateTracker16MethodIdentifierE.cold.1, symObjAddr: 0x8BC8, symBinAddr: 0x4F084, symSize: 0x28 }
  - { offsetInCU: 0x20AAC, offset: 0x933FB, size: 0x8, addend: 0x0, symName: __ZN4absl12lts_202206234Cord13AppendPreciseENS0_11string_viewENS0_13cord_internal18CordzUpdateTracker16MethodIdentifierE.cold.2, symObjAddr: 0x8BF0, symBinAddr: 0x4F0AC, symSize: 0x28 }
  - { offsetInCU: 0x20AC4, offset: 0x93413, size: 0x8, addend: 0x0, symName: __ZN4absl12lts_202206234Cord13AppendPreciseENS0_11string_viewENS0_13cord_internal18CordzUpdateTracker16MethodIdentifierE.cold.4, symObjAddr: 0x8C3C, symBinAddr: 0x4F0F8, symSize: 0x24 }
  - { offsetInCU: 0x20B08, offset: 0x93457, size: 0x8, addend: 0x0, symName: __ZN4absl12lts_202206234Cord13AppendPreciseENS0_11string_viewENS0_13cord_internal18CordzUpdateTracker16MethodIdentifierE.cold.3, symObjAddr: 0x8C18, symBinAddr: 0x4F0D4, symSize: 0x24 }
  - { offsetInCU: 0x20B62, offset: 0x934B1, size: 0x8, addend: 0x0, symName: __ZN4absl12lts_2022062313cord_internal11CordRepFlat6CreateENS0_11string_viewEm.cold.1, symObjAddr: 0x8C60, symBinAddr: 0x4F11C, symSize: 0x28 }
  - { offsetInCU: 0x20B7A, offset: 0x934C9, size: 0x8, addend: 0x0, symName: __ZN4absl12lts_202206234Cord14PrependPreciseENS0_11string_viewENS0_13cord_internal18CordzUpdateTracker16MethodIdentifierE, symObjAddr: 0x2DE8, symBinAddr: 0x126FC, symSize: 0x15C }
  - { offsetInCU: 0x20D31, offset: 0x93680, size: 0x8, addend: 0x0, symName: __ZN4absl12lts_202206234Cord14PrependPreciseENS0_11string_viewENS0_13cord_internal18CordzUpdateTracker16MethodIdentifierE.cold.1, symObjAddr: 0x8C88, symBinAddr: 0x4F144, symSize: 0x28 }
  - { offsetInCU: 0x20D49, offset: 0x93698, size: 0x8, addend: 0x0, symName: __ZN4absl12lts_202206234Cord14PrependPreciseENS0_11string_viewENS0_13cord_internal18CordzUpdateTracker16MethodIdentifierE.cold.2, symObjAddr: 0x8CB0, symBinAddr: 0x4F16C, symSize: 0x28 }
  - { offsetInCU: 0x20D61, offset: 0x936B0, size: 0x8, addend: 0x0, symName: __ZN4absl12lts_202206234Cord14PrependPreciseENS0_11string_viewENS0_13cord_internal18CordzUpdateTracker16MethodIdentifierE.cold.4, symObjAddr: 0x8CFC, symBinAddr: 0x4F1B8, symSize: 0x24 }
  - { offsetInCU: 0x20DA5, offset: 0x936F4, size: 0x8, addend: 0x0, symName: __ZN4absl12lts_202206234Cord14PrependPreciseENS0_11string_viewENS0_13cord_internal18CordzUpdateTracker16MethodIdentifierE.cold.3, symObjAddr: 0x8CD8, symBinAddr: 0x4F194, symSize: 0x24 }
  - { offsetInCU: 0x20F3D, offset: 0x9388C, size: 0x8, addend: 0x0, symName: __ZN4absl12lts_202206234Cord12RemovePrefixEm, symObjAddr: 0x2F44, symBinAddr: 0x12858, symSize: 0x58C }
  - { offsetInCU: 0x22143, offset: 0x94A92, size: 0x8, addend: 0x0, symName: __ZN4absl12lts_202206234Cord9InlineRep13remove_prefixEm, symObjAddr: 0x34D0, symBinAddr: 0x12DE4, symSize: 0xFC }
  - { offsetInCU: 0x22369, offset: 0x94CB8, size: 0x8, addend: 0x0, symName: __ZN4absl12lts_2022062313cord_internal16CordRepSubstring9SubstringEPNS1_7CordRepEmm, symObjAddr: 0x35CC, symBinAddr: 0x12EE0, symSize: 0xD0 }
  - { offsetInCU: 0x22374, offset: 0x94CC3, size: 0x8, addend: 0x0, symName: __ZN4absl12lts_202206238AlphaNumC2Em, symObjAddr: 0x706C, symBinAddr: 0x15D0C, symSize: 0x44 }
  - { offsetInCU: 0x2245C, offset: 0x94DAB, size: 0x8, addend: 0x0, symName: __ZN4absl12lts_202206234Cord13ChunkIteratorC2EPKS1_, symObjAddr: 0x70B0, symBinAddr: 0x15D50, symSize: 0x120 }
  - { offsetInCU: 0x22495, offset: 0x94DE4, size: 0x8, addend: 0x0, symName: __ZN4absl12lts_202206234Cord9InlineRep13remove_prefixEm.cold.6, symObjAddr: 0x8DE0, symBinAddr: 0x4F29C, symSize: 0x24 }
  - { offsetInCU: 0x224D8, offset: 0x94E27, size: 0x8, addend: 0x0, symName: __ZN4absl12lts_202206234Cord9InlineRep13remove_prefixEm.cold.5, symObjAddr: 0x8DBC, symBinAddr: 0x4F278, symSize: 0x24 }
  - { offsetInCU: 0x22530, offset: 0x94E7F, size: 0x8, addend: 0x0, symName: __ZN4absl12lts_202206234Cord9InlineRep13remove_prefixEm.cold.2, symObjAddr: 0x8D48, symBinAddr: 0x4F204, symSize: 0x28 }
  - { offsetInCU: 0x2255D, offset: 0x94EAC, size: 0x8, addend: 0x0, symName: __ZN4absl12lts_202206234Cord9InlineRep13remove_prefixEm.cold.3, symObjAddr: 0x8D70, symBinAddr: 0x4F22C, symSize: 0x28 }
  - { offsetInCU: 0x2258A, offset: 0x94ED9, size: 0x8, addend: 0x0, symName: __ZN4absl12lts_202206234Cord9InlineRep13remove_prefixEm.cold.4, symObjAddr: 0x8D98, symBinAddr: 0x4F254, symSize: 0x24 }
  - { offsetInCU: 0x225F8, offset: 0x94F47, size: 0x8, addend: 0x0, symName: __ZN4absl12lts_202206234Cord9InlineRep13remove_prefixEm.cold.1, symObjAddr: 0x8D20, symBinAddr: 0x4F1DC, symSize: 0x28 }
  - { offsetInCU: 0x22624, offset: 0x94F73, size: 0x8, addend: 0x0, symName: __ZN4absl12lts_2022062313cord_internal16CordRepSubstring9SubstringEPNS1_7CordRepEmm, symObjAddr: 0x35CC, symBinAddr: 0x12EE0, symSize: 0xD0 }
  - { offsetInCU: 0x22963, offset: 0x952B2, size: 0x8, addend: 0x0, symName: __ZN4absl12lts_202206234Cord12RemoveSuffixEm, symObjAddr: 0x369C, symBinAddr: 0x12FB0, symSize: 0x538 }
  - { offsetInCU: 0x2296E, offset: 0x952BD, size: 0x8, addend: 0x0, symName: __ZN4absl12lts_2022062313cord_internal16CordRepSubstring9SubstringEPNS1_7CordRepEmm.cold.1, symObjAddr: 0x8E04, symBinAddr: 0x4F2C0, symSize: 0x28 }
  - { offsetInCU: 0x22986, offset: 0x952D5, size: 0x8, addend: 0x0, symName: __ZN4absl12lts_2022062313cord_internal16CordRepSubstring9SubstringEPNS1_7CordRepEmm.cold.2, symObjAddr: 0x8E2C, symBinAddr: 0x4F2E8, symSize: 0x28 }
  - { offsetInCU: 0x2299E, offset: 0x952ED, size: 0x8, addend: 0x0, symName: __ZN4absl12lts_2022062313cord_internal16CordRepSubstring9SubstringEPNS1_7CordRepEmm.cold.5, symObjAddr: 0x8EA0, symBinAddr: 0x4F35C, symSize: 0x28 }
  - { offsetInCU: 0x229B6, offset: 0x95305, size: 0x8, addend: 0x0, symName: __ZN4absl12lts_2022062313cord_internal16CordRepSubstring9SubstringEPNS1_7CordRepEmm.cold.3, symObjAddr: 0x8E54, symBinAddr: 0x4F310, symSize: 0x28 }
  - { offsetInCU: 0x229CE, offset: 0x9531D, size: 0x8, addend: 0x0, symName: __ZN4absl12lts_2022062313cord_internal16CordRepSubstring9SubstringEPNS1_7CordRepEmm.cold.4, symObjAddr: 0x8E7C, symBinAddr: 0x4F338, symSize: 0x24 }
  - { offsetInCU: 0x229FC, offset: 0x9534B, size: 0x8, addend: 0x0, symName: __ZN4absl12lts_202206234Cord12RemoveSuffixEm, symObjAddr: 0x369C, symBinAddr: 0x12FB0, symSize: 0x538 }
  - { offsetInCU: 0x23BC6, offset: 0x96515, size: 0x8, addend: 0x0, symName: __ZN4absl12lts_202206234Cord12RemoveSuffixEm.cold.1, symObjAddr: 0x8EC8, symBinAddr: 0x4F384, symSize: 0x28 }
  - { offsetInCU: 0x23BF4, offset: 0x96543, size: 0x8, addend: 0x0, symName: __ZN4absl12lts_202206234Cord12RemoveSuffixEm.cold.2, symObjAddr: 0x8EF0, symBinAddr: 0x4F3AC, symSize: 0x24 }
  - { offsetInCU: 0x23D2F, offset: 0x9667E, size: 0x8, addend: 0x0, symName: __ZNK4absl12lts_202206234Cord7SubcordEmm, symObjAddr: 0x3BD4, symBinAddr: 0x134E8, symSize: 0x4C8 }
  - { offsetInCU: 0x24467, offset: 0x96DB6, size: 0x8, addend: 0x0, symName: __ZN4absl12lts_202206234Cord13ChunkIterator17AdvanceBytesBtreeEm, symObjAddr: 0x73F4, symBinAddr: 0x16094, symSize: 0x80 }
  - { offsetInCU: 0x2454E, offset: 0x96E9D, size: 0x8, addend: 0x0, symName: __ZN4absl12lts_2022062313cord_internal18CordRepBtreeReader4SeekEm, symObjAddr: 0x7474, symBinAddr: 0x16114, symSize: 0xFC }
  - { offsetInCU: 0x24559, offset: 0x96EA8, size: 0x8, addend: 0x0, symName: __ZN4absl12lts_202206234Cord19SetExpectedChecksumEj, symObjAddr: 0x409C, symBinAddr: 0x139B0, symSize: 0x144 }
  - { offsetInCU: 0x24938, offset: 0x97287, size: 0x8, addend: 0x0, symName: __ZN4absl12lts_202206234Cord19SetExpectedChecksumEj.cold.1, symObjAddr: 0x8F14, symBinAddr: 0x4F3D0, symSize: 0x24 }
  - { offsetInCU: 0x24966, offset: 0x972B5, size: 0x8, addend: 0x0, symName: __ZNK4absl12lts_202206234Cord16ExpectedChecksumEv, symObjAddr: 0x41E0, symBinAddr: 0x13AF4, symSize: 0x38 }
  - { offsetInCU: 0x24993, offset: 0x972E2, size: 0x8, addend: 0x0, symName: __ZNK4absl12lts_202206234Cord16ExpectedChecksumEv, symObjAddr: 0x41E0, symBinAddr: 0x13AF4, symSize: 0x38 }
  - { offsetInCU: 0x249AF, offset: 0x972FE, size: 0x8, addend: 0x0, symName: __ZNK4absl12lts_202206234Cord16ExpectedChecksumEv, symObjAddr: 0x41E0, symBinAddr: 0x13AF4, symSize: 0x38 }
  - { offsetInCU: 0x249CB, offset: 0x9731A, size: 0x8, addend: 0x0, symName: __ZNK4absl12lts_202206234Cord16ExpectedChecksumEv, symObjAddr: 0x41E0, symBinAddr: 0x13AF4, symSize: 0x38 }
  - { offsetInCU: 0x24A5B, offset: 0x973AA, size: 0x8, addend: 0x0, symName: __ZNK4absl12lts_202206234Cord10EqualsImplENS0_11string_viewEm, symObjAddr: 0x4218, symBinAddr: 0x13B2C, symSize: 0x28 }
  - { offsetInCU: 0x24AC7, offset: 0x97416, size: 0x8, addend: 0x0, symName: __ZNK4absl12lts_202206234Cord9InlineRep18FindFlatStartPieceEv, symObjAddr: 0x7BFC, symBinAddr: 0x167FC, symSize: 0x164 }
  - { offsetInCU: 0x2500C, offset: 0x9795B, size: 0x8, addend: 0x0, symName: __ZN4absl12lts_2022062312_GLOBAL__N_113CompareChunksEPNS0_11string_viewES3_Pm, symObjAddr: 0x7D60, symBinAddr: 0x16960, symSize: 0x98 }
  - { offsetInCU: 0x25017, offset: 0x97966, size: 0x8, addend: 0x0, symName: __ZNK4absl12lts_202206234Cord15CompareSlowPathENS0_11string_viewEmm, symObjAddr: 0x7A68, symBinAddr: 0x16668, symSize: 0x194 }
  - { offsetInCU: 0x25356, offset: 0x97CA5, size: 0x8, addend: 0x0, symName: __ZN4absl12lts_2022062314GenericCompareIbNS0_11string_viewEEET_RKNS0_4CordERKT0_m.cold.1, symObjAddr: 0x8F38, symBinAddr: 0x4F3F4, symSize: 0x24 }
  - { offsetInCU: 0x2536E, offset: 0x97CBD, size: 0x8, addend: 0x0, symName: __ZNK4absl12lts_202206234Cord10EqualsImplERKS1_m, symObjAddr: 0x42CC, symBinAddr: 0x13BE0, symSize: 0x4 }
  - { offsetInCU: 0x2539F, offset: 0x97CEE, size: 0x8, addend: 0x0, symName: __ZNK4absl12lts_202206234Cord10EqualsImplERKS1_m, symObjAddr: 0x42CC, symBinAddr: 0x13BE0, symSize: 0x4 }
  - { offsetInCU: 0x253BF, offset: 0x97D0E, size: 0x8, addend: 0x0, symName: __ZNK4absl12lts_202206234Cord15CompareSlowPathERKS1_mm, symObjAddr: 0x7DF8, symBinAddr: 0x169F8, symSize: 0x22C }
  - { offsetInCU: 0x2589D, offset: 0x981EC, size: 0x8, addend: 0x0, symName: __ZN4absl12lts_2022062314GenericCompareIbNS0_4CordEEET_RKS2_RKT0_m.cold.1, symObjAddr: 0x8F5C, symBinAddr: 0x4F418, symSize: 0x24 }
  - { offsetInCU: 0x258B5, offset: 0x98204, size: 0x8, addend: 0x0, symName: __ZNK4absl12lts_202206234Cord7CompareENS0_11string_viewE, symObjAddr: 0x4368, symBinAddr: 0x13C7C, symSize: 0x70 }
  - { offsetInCU: 0x25A73, offset: 0x983C2, size: 0x8, addend: 0x0, symName: __ZNK4absl12lts_202206234Cord11CompareImplERKS1_, symObjAddr: 0x43D8, symBinAddr: 0x13CEC, symSize: 0x7C }
  - { offsetInCU: 0x25D69, offset: 0x986B8, size: 0x8, addend: 0x0, symName: __ZNK4absl12lts_202206234Cord8EndsWithENS0_11string_viewE, symObjAddr: 0x4454, symBinAddr: 0x13D68, symSize: 0xF8 }
  - { offsetInCU: 0x26171, offset: 0x98AC0, size: 0x8, addend: 0x0, symName: __ZNK4absl12lts_202206234Cord8EndsWithERKS1_, symObjAddr: 0x454C, symBinAddr: 0x13E60, symSize: 0x10C }
  - { offsetInCU: 0x266FB, offset: 0x9904A, size: 0x8, addend: 0x0, symName: __ZNK4absl12lts_202206234CordcvNSt3__112basic_stringIcNS2_11char_traitsIcEENS2_9allocatorIcEEEEEv, symObjAddr: 0x4658, symBinAddr: 0x13F6C, symSize: 0x48 }
  - { offsetInCU: 0x268F7, offset: 0x99246, size: 0x8, addend: 0x0, symName: __ZNK4absl12lts_202206234Cord9InlineRep6CopyToEPNSt3__112basic_stringIcNS3_11char_traitsIcEENS3_9allocatorIcEEEE, symObjAddr: 0x4700, symBinAddr: 0x14014, symSize: 0x68 }
  - { offsetInCU: 0x26A4F, offset: 0x9939E, size: 0x8, addend: 0x0, symName: __ZNK4absl12lts_202206234Cord19CopyToArraySlowPathEPc, symObjAddr: 0x4768, symBinAddr: 0x1407C, symSize: 0x12C }
  - { offsetInCU: 0x26A5A, offset: 0x993A9, size: 0x8, addend: 0x0, symName: __ZN4absl12lts_2022062316strings_internal25ResizeUninitializedTraitsINSt3__112basic_stringIcNS3_11char_traitsIcEENS3_9allocatorIcEEEEvE6ResizeEPS9_m, symObjAddr: 0x78E4, symBinAddr: 0x16584, symSize: 0xE4 }
  - { offsetInCU: 0x26DBC, offset: 0x9970B, size: 0x8, addend: 0x0, symName: __ZNK4absl12lts_202206234Cord19CopyToArraySlowPathEPc, symObjAddr: 0x4768, symBinAddr: 0x1407C, symSize: 0x12C }
  - { offsetInCU: 0x270CB, offset: 0x99A1A, size: 0x8, addend: 0x0, symName: __ZNK4absl12lts_202206234Cord9InlineRep6CopyToEPNSt3__112basic_stringIcNS3_11char_traitsIcEENS3_9allocatorIcEEEE.cold.1, symObjAddr: 0x8F80, symBinAddr: 0x4F43C, symSize: 0x24 }
  - { offsetInCU: 0x27159, offset: 0x99AA8, size: 0x8, addend: 0x0, symName: __ZN4absl12lts_202206234Cord10GetFlatAuxEPNS0_13cord_internal7CordRepEPNS0_11string_viewE, symObjAddr: 0x4894, symBinAddr: 0x141A8, symSize: 0x12C }
  - { offsetInCU: 0x2744F, offset: 0x99D9E, size: 0x8, addend: 0x0, symName: __ZN4absl12lts_202206234Cord13ChunkIterator19AdvanceAndReadBytesEm, symObjAddr: 0x49C0, symBinAddr: 0x142D4, symSize: 0x4C4 }
  - { offsetInCU: 0x2745A, offset: 0x99DA9, size: 0x8, addend: 0x0, symName: __ZNK4absl12lts_202206234Cord19CopyToArraySlowPathEPc.cold.2, symObjAddr: 0x8FCC, symBinAddr: 0x4F488, symSize: 0x24 }
  - { offsetInCU: 0x27488, offset: 0x99DD7, size: 0x8, addend: 0x0, symName: __ZNK4absl12lts_202206234Cord19CopyToArraySlowPathEPc.cold.3, symObjAddr: 0x8FF0, symBinAddr: 0x4F4AC, symSize: 0x24 }
  - { offsetInCU: 0x274B6, offset: 0x99E05, size: 0x8, addend: 0x0, symName: __ZNK4absl12lts_202206234Cord19CopyToArraySlowPathEPc.cold.1, symObjAddr: 0x8FA4, symBinAddr: 0x4F460, symSize: 0x28 }
  - { offsetInCU: 0x274CE, offset: 0x99E1D, size: 0x8, addend: 0x0, symName: __ZN4absl12lts_202206234Cord10GetFlatAuxEPNS0_13cord_internal7CordRepEPNS0_11string_viewE.cold.1, symObjAddr: 0x9014, symBinAddr: 0x4F4D0, symSize: 0x28 }
  - { offsetInCU: 0x274E6, offset: 0x99E35, size: 0x8, addend: 0x0, symName: __ZN4absl12lts_202206234Cord10GetFlatAuxEPNS0_13cord_internal7CordRepEPNS0_11string_viewE.cold.2, symObjAddr: 0x903C, symBinAddr: 0x4F4F8, symSize: 0x24 }
  - { offsetInCU: 0x27514, offset: 0x99E63, size: 0x8, addend: 0x0, symName: __ZN4absl12lts_202206234Cord10GetFlatAuxEPNS0_13cord_internal7CordRepEPNS0_11string_viewE.cold.3, symObjAddr: 0x9060, symBinAddr: 0x4F51C, symSize: 0x24 }
  - { offsetInCU: 0x27582, offset: 0x99ED1, size: 0x8, addend: 0x0, symName: __ZN4absl12lts_202206234Cord10GetFlatAuxEPNS0_13cord_internal7CordRepEPNS0_11string_viewE.cold.4, symObjAddr: 0x9084, symBinAddr: 0x4F540, symSize: 0x24 }
  - { offsetInCU: 0x275F0, offset: 0x99F3F, size: 0x8, addend: 0x0, symName: __ZN4absl12lts_202206234Cord10GetFlatAuxEPNS0_13cord_internal7CordRepEPNS0_11string_viewE.cold.5, symObjAddr: 0x90A8, symBinAddr: 0x4F564, symSize: 0x24 }
  - { offsetInCU: 0x2761E, offset: 0x99F6D, size: 0x8, addend: 0x0, symName: __ZN4absl12lts_202206234Cord10GetFlatAuxEPNS0_13cord_internal7CordRepEPNS0_11string_viewE.cold.6, symObjAddr: 0x90CC, symBinAddr: 0x4F588, symSize: 0x24 }
  - { offsetInCU: 0x2768C, offset: 0x99FDB, size: 0x8, addend: 0x0, symName: __ZN4absl12lts_202206234Cord10GetFlatAuxEPNS0_13cord_internal7CordRepEPNS0_11string_viewE.cold.7, symObjAddr: 0x90F0, symBinAddr: 0x4F5AC, symSize: 0x24 }
  - { offsetInCU: 0x277B0, offset: 0x9A0FF, size: 0x8, addend: 0x0, symName: __ZN4absl12lts_202206234Cord13ChunkIterator19AdvanceAndReadBytesEm, symObjAddr: 0x49C0, symBinAddr: 0x142D4, symSize: 0x4C4 }
  - { offsetInCU: 0x2808F, offset: 0x9A9DE, size: 0x8, addend: 0x0, symName: __ZN4absl12lts_2022062313cord_internal18CordRepBtreeReader4NextEv, symObjAddr: 0x4EC8, symBinAddr: 0x14798, symSize: 0x114 }
  - { offsetInCU: 0x2809A, offset: 0x9A9E9, size: 0x8, addend: 0x0, symName: __ZN4absl12lts_202206234Cord13ChunkIterator19AdvanceAndReadBytesEm.cold.1, symObjAddr: 0x9114, symBinAddr: 0x4F5D0, symSize: 0x28 }
  - { offsetInCU: 0x281C1, offset: 0x9AB10, size: 0x8, addend: 0x0, symName: __ZN4absl12lts_2022062313cord_internal21CordRepBtreeNavigator6NextUpEv, symObjAddr: 0x7708, symBinAddr: 0x163A8, symSize: 0xFC }
  - { offsetInCU: 0x28394, offset: 0x9ACE3, size: 0x8, addend: 0x0, symName: __ZN4absl12lts_202206234Cord13ChunkIteratorC2EPNS0_13cord_internal7CordRepE, symObjAddr: 0x7804, symBinAddr: 0x164A4, symSize: 0xE0 }
  - { offsetInCU: 0x2839F, offset: 0x9ACEE, size: 0x8, addend: 0x0, symName: __ZN4absl12lts_2022062313cord_internal18CordRepBtreeReader4NextEv.cold.1, symObjAddr: 0x9160, symBinAddr: 0x4F5F8, symSize: 0x28 }
  - { offsetInCU: 0x283B7, offset: 0x9AD06, size: 0x8, addend: 0x0, symName: __ZN4absl12lts_2022062313cord_internal18CordRepBtreeReader4NextEv.cold.6, symObjAddr: 0x9218, symBinAddr: 0x4F6B0, symSize: 0x24 }
  - { offsetInCU: 0x283F9, offset: 0x9AD48, size: 0x8, addend: 0x0, symName: __ZN4absl12lts_2022062313cord_internal18CordRepBtreeReader4NextEv.cold.7, symObjAddr: 0x923C, symBinAddr: 0x4F6D4, symSize: 0x24 }
  - { offsetInCU: 0x2843B, offset: 0x9AD8A, size: 0x8, addend: 0x0, symName: __ZN4absl12lts_2022062313cord_internal18CordRepBtreeReader4NextEv.cold.5, symObjAddr: 0x91F4, symBinAddr: 0x4F68C, symSize: 0x24 }
  - { offsetInCU: 0x28468, offset: 0x9ADB7, size: 0x8, addend: 0x0, symName: __ZN4absl12lts_2022062313cord_internal18CordRepBtreeReader4NextEv.cold.2, symObjAddr: 0x9188, symBinAddr: 0x4F620, symSize: 0x24 }
  - { offsetInCU: 0x284AA, offset: 0x9ADF9, size: 0x8, addend: 0x0, symName: __ZN4absl12lts_2022062313cord_internal18CordRepBtreeReader4NextEv.cold.3, symObjAddr: 0x91AC, symBinAddr: 0x4F644, symSize: 0x24 }
  - { offsetInCU: 0x2852C, offset: 0x9AE7B, size: 0x8, addend: 0x0, symName: __ZN4absl12lts_2022062313cord_internal18CordRepBtreeReader4NextEv.cold.4, symObjAddr: 0x91D0, symBinAddr: 0x4F668, symSize: 0x24 }
  - { offsetInCU: 0x285C4, offset: 0x9AF13, size: 0x8, addend: 0x0, symName: __ZNK4absl12lts_202206234CordixEm, symObjAddr: 0x4FDC, symBinAddr: 0x148AC, symSize: 0xD8 }
  - { offsetInCU: 0x287FE, offset: 0x9B14D, size: 0x8, addend: 0x0, symName: __ZN4absl12lts_202206234Cord15FlattenSlowPathEv, symObjAddr: 0x50B4, symBinAddr: 0x14984, symSize: 0x1FC }
  - { offsetInCU: 0x28832, offset: 0x9B181, size: 0x8, addend: 0x0, symName: __ZNK4absl12lts_202206234CordixEm.cold.2, symObjAddr: 0x9288, symBinAddr: 0x4F720, symSize: 0x28 }
  - { offsetInCU: 0x2884A, offset: 0x9B199, size: 0x8, addend: 0x0, symName: __ZNK4absl12lts_202206234CordixEm.cold.1, symObjAddr: 0x9260, symBinAddr: 0x4F6F8, symSize: 0x28 }
  - { offsetInCU: 0x28878, offset: 0x9B1C7, size: 0x8, addend: 0x0, symName: __ZNK4absl12lts_202206234CordixEm.cold.5, symObjAddr: 0x92FC, symBinAddr: 0x4F794, symSize: 0x28 }
  - { offsetInCU: 0x28890, offset: 0x9B1DF, size: 0x8, addend: 0x0, symName: __ZNK4absl12lts_202206234CordixEm.cold.4, symObjAddr: 0x92D4, symBinAddr: 0x4F76C, symSize: 0x28 }
  - { offsetInCU: 0x288A8, offset: 0x9B1F7, size: 0x8, addend: 0x0, symName: __ZNK4absl12lts_202206234CordixEm.cold.3, symObjAddr: 0x92B0, symBinAddr: 0x4F748, symSize: 0x24 }
  - { offsetInCU: 0x28967, offset: 0x9B2B6, size: 0x8, addend: 0x0, symName: __ZN4absl12lts_202206234Cord15FlattenSlowPathEv.cold.1, symObjAddr: 0x9324, symBinAddr: 0x4F7BC, symSize: 0x28 }
  - { offsetInCU: 0x2897F, offset: 0x9B2CE, size: 0x8, addend: 0x0, symName: __ZN4absl12lts_202206234Cord15FlattenSlowPathEv.cold.2, symObjAddr: 0x934C, symBinAddr: 0x4F7E4, symSize: 0x24 }
  - { offsetInCU: 0x289AD, offset: 0x9B2FC, size: 0x8, addend: 0x0, symName: __ZN4absl12lts_202206234Cord15FlattenSlowPathEv.cold.3, symObjAddr: 0x9370, symBinAddr: 0x4F808, symSize: 0x24 }
  - { offsetInCU: 0x28A69, offset: 0x9B3B8, size: 0x8, addend: 0x0, symName: __ZN4absl12lts_202206234Cord15ForEachChunkAuxEPNS0_13cord_internal7CordRepENS0_11FunctionRefIFvNS0_11string_viewEEEE, symObjAddr: 0x52B0, symBinAddr: 0x14B80, symSize: 0x150 }
  - { offsetInCU: 0x28D6B, offset: 0x9B6BA, size: 0x8, addend: 0x0, symName: __ZN4absl12lts_202206234Cord13ChunkIteratorC2EPNS0_13cord_internal7CordRepE, symObjAddr: 0x7804, symBinAddr: 0x164A4, symSize: 0xE0 }
  - { offsetInCU: 0x28F8A, offset: 0x9B8D9, size: 0x8, addend: 0x0, symName: __ZN4absl12lts_2022062316strings_internal25ResizeUninitializedTraitsINSt3__112basic_stringIcNS3_11char_traitsIcEENS3_9allocatorIcEEEEvE6ResizeEPS9_m, symObjAddr: 0x78E4, symBinAddr: 0x16584, symSize: 0xE4 }
  - { offsetInCU: 0x28F95, offset: 0x9B8E4, size: 0x8, addend: 0x0, symName: __ZN4absl12lts_202206234Cord15ForEachChunkAuxEPNS0_13cord_internal7CordRepENS0_11FunctionRefIFvNS0_11string_viewEEEE.cold.3, symObjAddr: 0x93E4, symBinAddr: 0x4F87C, symSize: 0x24 }
  - { offsetInCU: 0x28FD9, offset: 0x9B928, size: 0x8, addend: 0x0, symName: __ZN4absl12lts_202206234Cord15ForEachChunkAuxEPNS0_13cord_internal7CordRepENS0_11FunctionRefIFvNS0_11string_viewEEEE.cold.4, symObjAddr: 0x9408, symBinAddr: 0x4F8A0, symSize: 0x24 }
  - { offsetInCU: 0x29007, offset: 0x9B956, size: 0x8, addend: 0x0, symName: __ZN4absl12lts_202206234Cord15ForEachChunkAuxEPNS0_13cord_internal7CordRepENS0_11FunctionRefIFvNS0_11string_viewEEEE.cold.5, symObjAddr: 0x942C, symBinAddr: 0x4F8C4, symSize: 0x24 }
  - { offsetInCU: 0x29035, offset: 0x9B984, size: 0x8, addend: 0x0, symName: __ZN4absl12lts_202206234Cord15ForEachChunkAuxEPNS0_13cord_internal7CordRepENS0_11FunctionRefIFvNS0_11string_viewEEEE.cold.1, symObjAddr: 0x9394, symBinAddr: 0x4F82C, symSize: 0x28 }
  - { offsetInCU: 0x2904D, offset: 0x9B99C, size: 0x8, addend: 0x0, symName: __ZN4absl12lts_202206234Cord15ForEachChunkAuxEPNS0_13cord_internal7CordRepENS0_11FunctionRefIFvNS0_11string_viewEEEE.cold.2, symObjAddr: 0x93BC, symBinAddr: 0x4F854, symSize: 0x28 }
  - { offsetInCU: 0x29065, offset: 0x9B9B4, size: 0x8, addend: 0x0, symName: __ZN4absl12lts_20220623lsERNSt3__113basic_ostreamIcNS1_11char_traitsIcEEEERKNS0_4CordE.cold.1, symObjAddr: 0x9450, symBinAddr: 0x4F8E8, symSize: 0x24 }
  - { offsetInCU: 0x290A9, offset: 0x9B9F8, size: 0x8, addend: 0x0, symName: __ZN4absl12lts_20220623lsERNSt3__113basic_ostreamIcNS1_11char_traitsIcEEEERKNS0_4CordE.cold.2, symObjAddr: 0x9474, symBinAddr: 0x4F90C, symSize: 0x24 }
  - { offsetInCU: 0x290D7, offset: 0x9BA26, size: 0x8, addend: 0x0, symName: __ZN4absl12lts_20220623lsERNSt3__113basic_ostreamIcNS1_11char_traitsIcEEEERKNS0_4CordE.cold.3, symObjAddr: 0x9498, symBinAddr: 0x4F930, symSize: 0x24 }
  - { offsetInCU: 0x29105, offset: 0x9BA54, size: 0x8, addend: 0x0, symName: __ZN4absl12lts_2022062316strings_internal14CordTestAccess12FlatOverheadEv, symObjAddr: 0x54E8, symBinAddr: 0x14DB8, symSize: 0x8 }
  - { offsetInCU: 0x2911C, offset: 0x9BA6B, size: 0x8, addend: 0x0, symName: __ZN4absl12lts_2022062316strings_internal14CordTestAccess13MaxFlatLengthEv, symObjAddr: 0x54F0, symBinAddr: 0x14DC0, symSize: 0x8 }
  - { offsetInCU: 0x29133, offset: 0x9BA82, size: 0x8, addend: 0x0, symName: __ZN4absl12lts_2022062316strings_internal14CordTestAccess15FlatTagToLengthEh, symObjAddr: 0x54F8, symBinAddr: 0x14DC8, symSize: 0x44 }
  - { offsetInCU: 0x2915E, offset: 0x9BAAD, size: 0x8, addend: 0x0, symName: __ZN4absl12lts_2022062316strings_internal14CordTestAccess15FlatTagToLengthEh, symObjAddr: 0x54F8, symBinAddr: 0x14DC8, symSize: 0x44 }
  - { offsetInCU: 0x2917A, offset: 0x9BAC9, size: 0x8, addend: 0x0, symName: __ZN4absl12lts_2022062316strings_internal14CordTestAccess15FlatTagToLengthEh, symObjAddr: 0x54F8, symBinAddr: 0x14DC8, symSize: 0x44 }
  - { offsetInCU: 0x29194, offset: 0x9BAE3, size: 0x8, addend: 0x0, symName: __ZN4absl12lts_2022062316strings_internal14CordTestAccess11LengthToTagEm, symObjAddr: 0x553C, symBinAddr: 0x14E0C, symSize: 0x160 }
  - { offsetInCU: 0x29820, offset: 0x9C16F, size: 0x8, addend: 0x0, symName: __ZN4absl12lts_2022062316strings_internal14CordTestAccess11LengthToTagEm.cold.1, symObjAddr: 0x94BC, symBinAddr: 0x4F954, symSize: 0x28 }
  - { offsetInCU: 0x2984E, offset: 0x9C19D, size: 0x8, addend: 0x0, symName: __ZN4absl12lts_2022062316strings_internal14CordTestAccess21SizeofCordRepExternalEv, symObjAddr: 0x569C, symBinAddr: 0x14F6C, symSize: 0x8 }
  - { offsetInCU: 0x29865, offset: 0x9C1B4, size: 0x8, addend: 0x0, symName: __ZN4absl12lts_2022062316strings_internal14CordTestAccess22SizeofCordRepSubstringEv, symObjAddr: 0x56A4, symBinAddr: 0x14F74, symSize: 0x8 }
  - { offsetInCU: 0x298BB, offset: 0x9C20A, size: 0x8, addend: 0x0, symName: __ZN4absl12lts_2022062313InlinedVectorIPNS0_13cord_internal7CordRepELm2ENSt3__19allocatorIS4_EEE4backEv.cold.1, symObjAddr: 0x94E4, symBinAddr: 0x4F97C, symSize: 0x24 }
  - { offsetInCU: 0x2A272, offset: 0x9CBC1, size: 0x8, addend: 0x0, symName: __ZN4absl12lts_2022062313InlinedVectorIPNS0_13cord_internal7CordRepELm47ENSt3__19allocatorIS4_EEE4backEv, symObjAddr: 0x69F8, symBinAddr: 0x15810, symSize: 0x3C }
  - { offsetInCU: 0x2A350, offset: 0x9CC9F, size: 0x8, addend: 0x0, symName: __ZN4absl12lts_2022062313InlinedVectorIPNS0_13cord_internal7CordRepELm47ENSt3__19allocatorIS4_EEE8pop_backEv, symObjAddr: 0x6A34, symBinAddr: 0x1584C, symSize: 0x4C }
  - { offsetInCU: 0x2A35B, offset: 0x9CCAA, size: 0x8, addend: 0x0, symName: __ZN4absl12lts_2022062313InlinedVectorIPNS0_13cord_internal7CordRepELm47ENSt3__19allocatorIS4_EEE8pop_backEv, symObjAddr: 0x6A34, symBinAddr: 0x1584C, symSize: 0x4C }
  - { offsetInCU: 0x2A428, offset: 0x9CD77, size: 0x8, addend: 0x0, symName: __ZN4absl12lts_2022062313InlinedVectorIiLm47ENSt3__19allocatorIiEEE4backEv, symObjAddr: 0x6A80, symBinAddr: 0x15898, symSize: 0x3C }
  - { offsetInCU: 0x2A506, offset: 0x9CE55, size: 0x8, addend: 0x0, symName: __ZN4absl12lts_2022062313InlinedVectorIiLm47ENSt3__19allocatorIiEEE8pop_backEv, symObjAddr: 0x6ABC, symBinAddr: 0x158D4, symSize: 0x4C }
  - { offsetInCU: 0x2A511, offset: 0x9CE60, size: 0x8, addend: 0x0, symName: __ZN4absl12lts_2022062313InlinedVectorIiLm47ENSt3__19allocatorIiEEE8pop_backEv, symObjAddr: 0x6ABC, symBinAddr: 0x158D4, symSize: 0x4C }
  - { offsetInCU: 0x2A844, offset: 0x9D193, size: 0x8, addend: 0x0, symName: __ZN4absl12lts_2022062323inlined_vector_internal7StorageIPNS0_13cord_internal7CordRepELm2ENSt3__19allocatorIS5_EEE15EmplaceBackSlowIJRKS5_EEERS5_DpOT_, symObjAddr: 0x5E40, symBinAddr: 0x15704, symSize: 0xD8 }
  - { offsetInCU: 0x2AFFB, offset: 0x9D94A, size: 0x8, addend: 0x0, symName: __ZN4absl12lts_2022062323inlined_vector_internal13MallocAdapterINSt3__19allocatorIPNS0_13cord_internal7CordRepEEELb0EE8AllocateERS8_m, symObjAddr: 0x5F18, symBinAddr: 0x157DC, symSize: 0x34 }
  - { offsetInCU: 0x2B742, offset: 0x9E091, size: 0x8, addend: 0x0, symName: __ZN4absl12lts_2022062313InlinedVectorIPNS0_13cord_internal7CordRepELm47ENSt3__19allocatorIS4_EEE4backEv.cold.1, symObjAddr: 0x9508, symBinAddr: 0x4F9A0, symSize: 0x24 }
  - { offsetInCU: 0x2B7FA, offset: 0x9E149, size: 0x8, addend: 0x0, symName: __ZN4absl12lts_2022062313InlinedVectorIiLm47ENSt3__19allocatorIiEEE4backEv.cold.1, symObjAddr: 0x952C, symBinAddr: 0x4F9C4, symSize: 0x24 }
  - { offsetInCU: 0x2BABB, offset: 0x9E40A, size: 0x8, addend: 0x0, symName: __ZN4absl12lts_2022062313cord_internal19CordRepExternalImplIZNS0_L17CordRepFromStringEONSt3__112basic_stringIcNS3_11char_traitsIcEENS3_9allocatorIcEEEEE14StringReleaserE7ReleaseEPNS1_15CordRepExternalE, symObjAddr: 0x6C80, symBinAddr: 0x15920, symSize: 0x70 }
  - { offsetInCU: 0x2BB65, offset: 0x9E4B4, size: 0x8, addend: 0x0, symName: __ZN4absl12lts_2022062313cord_internal19CordRepExternalImplIZNS0_L17CordRepFromStringEONSt3__112basic_stringIcNS3_11char_traitsIcEENS3_9allocatorIcEEEEE14StringReleaserE7ReleaseEPNS1_15CordRepExternalE, symObjAddr: 0x6C80, symBinAddr: 0x15920, symSize: 0x70 }
  - { offsetInCU: 0x2BDEB, offset: 0x9E73A, size: 0x8, addend: 0x0, symName: __ZN4absl12lts_2022062313cord_internal10InlineData18is_either_profiledERKS2_S4_.cold.1, symObjAddr: 0x9550, symBinAddr: 0x4F9E8, symSize: 0x28 }
  - { offsetInCU: 0x2BE3D, offset: 0x9E78C, size: 0x8, addend: 0x0, symName: __ZN4absl12lts_2022062313cord_internal12CordRepBtree15GetAppendBufferEm.cold.5, symObjAddr: 0x9608, symBinAddr: 0x4FAA0, symSize: 0x28 }
  - { offsetInCU: 0x2BE55, offset: 0x9E7A4, size: 0x8, addend: 0x0, symName: __ZN4absl12lts_2022062313cord_internal12CordRepBtree15GetAppendBufferEm.cold.2, symObjAddr: 0x959C, symBinAddr: 0x4FA34, symSize: 0x24 }
  - { offsetInCU: 0x2BE83, offset: 0x9E7D2, size: 0x8, addend: 0x0, symName: __ZN4absl12lts_2022062313cord_internal12CordRepBtree15GetAppendBufferEm.cold.3, symObjAddr: 0x95C0, symBinAddr: 0x4FA58, symSize: 0x24 }
  - { offsetInCU: 0x2BEB1, offset: 0x9E800, size: 0x8, addend: 0x0, symName: __ZN4absl12lts_2022062313cord_internal12CordRepBtree15GetAppendBufferEm.cold.4, symObjAddr: 0x95E4, symBinAddr: 0x4FA7C, symSize: 0x24 }
  - { offsetInCU: 0x2BEDF, offset: 0x9E82E, size: 0x8, addend: 0x0, symName: __ZN4absl12lts_2022062313cord_internal12CordRepBtree15GetAppendBufferEm.cold.1, symObjAddr: 0x9578, symBinAddr: 0x4FA10, symSize: 0x24 }
  - { offsetInCU: 0x2BF45, offset: 0x9E894, size: 0x8, addend: 0x0, symName: __ZN4absl12lts_2022062313cord_internal11CordRepFlat7NewImplILm4096EJEEEPS2_mDpT0_.cold.1, symObjAddr: 0x9630, symBinAddr: 0x4FAC8, symSize: 0x28 }
  - { offsetInCU: 0x2BF8E, offset: 0x9E8DD, size: 0x8, addend: 0x0, symName: __ZN4absl12lts_2022062313cord_internal11CordRepFlat6DeleteEPNS1_7CordRepE, symObjAddr: 0x7044, symBinAddr: 0x15CE4, symSize: 0x28 }
  - { offsetInCU: 0x2BFC1, offset: 0x9E910, size: 0x8, addend: 0x0, symName: __ZN4absl12lts_202206238AlphaNumC2Em, symObjAddr: 0x706C, symBinAddr: 0x15D0C, symSize: 0x44 }
  - { offsetInCU: 0x2BFCC, offset: 0x9E91B, size: 0x8, addend: 0x0, symName: __ZN4absl12lts_2022062313cord_internal11CordRepFlat6DeleteEPNS1_7CordRepE.cold.1, symObjAddr: 0x9658, symBinAddr: 0x4FAF0, symSize: 0x28 }
  - { offsetInCU: 0x2BFE4, offset: 0x9E933, size: 0x8, addend: 0x0, symName: __ZN4absl12lts_202206238AlphaNumC2Em.cold.1, symObjAddr: 0x9680, symBinAddr: 0x4FB18, symSize: 0x24 }
  - { offsetInCU: 0x2C102, offset: 0x9EA51, size: 0x8, addend: 0x0, symName: __ZN4absl12lts_2022062313cord_internal18CordRepBtreeReader4InitEPNS1_12CordRepBtreeE, symObjAddr: 0x71D0, symBinAddr: 0x15E70, symSize: 0xB4 }
  - { offsetInCU: 0x2C291, offset: 0x9EBE0, size: 0x8, addend: 0x0, symName: __ZN4absl12lts_2022062313cord_internal8EdgeDataEPKNS1_7CordRepE, symObjAddr: 0x7284, symBinAddr: 0x15F24, symSize: 0x90 }
  - { offsetInCU: 0x2C29C, offset: 0x9EBEB, size: 0x8, addend: 0x0, symName: __ZN4absl12lts_202206234Cord13ChunkIteratorC2EPKS1_.cold.1, symObjAddr: 0x96A4, symBinAddr: 0x4FB3C, symSize: 0x24 }
  - { offsetInCU: 0x2C30A, offset: 0x9EC59, size: 0x8, addend: 0x0, symName: __ZN4absl12lts_202206234Cord13ChunkIteratorC2EPKS1_.cold.6, symObjAddr: 0x9758, symBinAddr: 0x4FBF0, symSize: 0x24 }
  - { offsetInCU: 0x2C34E, offset: 0x9EC9D, size: 0x8, addend: 0x0, symName: __ZN4absl12lts_202206234Cord13ChunkIteratorC2EPKS1_.cold.3, symObjAddr: 0x96EC, symBinAddr: 0x4FB84, symSize: 0x24 }
  - { offsetInCU: 0x2C3A7, offset: 0x9ECF6, size: 0x8, addend: 0x0, symName: __ZN4absl12lts_202206234Cord13ChunkIteratorC2EPKS1_.cold.4, symObjAddr: 0x9710, symBinAddr: 0x4FBA8, symSize: 0x24 }
  - { offsetInCU: 0x2C440, offset: 0x9ED8F, size: 0x8, addend: 0x0, symName: __ZN4absl12lts_202206234Cord13ChunkIteratorC2EPKS1_.cold.5, symObjAddr: 0x9734, symBinAddr: 0x4FBCC, symSize: 0x24 }
  - { offsetInCU: 0x2C4D9, offset: 0x9EE28, size: 0x8, addend: 0x0, symName: __ZN4absl12lts_202206234Cord13ChunkIteratorC2EPKS1_.cold.2, symObjAddr: 0x96C8, symBinAddr: 0x4FB60, symSize: 0x24 }
  - { offsetInCU: 0x2C53F, offset: 0x9EE8E, size: 0x8, addend: 0x0, symName: __ZN4absl12lts_2022062313cord_internal21CordRepBtreeNavigator4InitILNS1_12CordRepBtree8EdgeTypeE0EEEPNS1_7CordRepEPS4_, symObjAddr: 0x7314, symBinAddr: 0x15FB4, symSize: 0xE0 }
  - { offsetInCU: 0x2C7B9, offset: 0x9F108, size: 0x8, addend: 0x0, symName: __ZN4absl12lts_202206234Cord13ChunkIterator17AdvanceBytesBtreeEm, symObjAddr: 0x73F4, symBinAddr: 0x16094, symSize: 0x80 }
  - { offsetInCU: 0x2C7CE, offset: 0x9F11D, size: 0x8, addend: 0x0, symName: __ZN4absl12lts_2022062313cord_internal18CordRepBtreeReader4InitEPNS1_12CordRepBtreeE.cold.1, symObjAddr: 0x977C, symBinAddr: 0x4FC14, symSize: 0x28 }
  - { offsetInCU: 0x2C7E6, offset: 0x9F135, size: 0x8, addend: 0x0, symName: __ZN4absl12lts_2022062313cord_internal18CordRepBtreeReader4InitEPNS1_12CordRepBtreeE.cold.5, symObjAddr: 0x9810, symBinAddr: 0x4FCA8, symSize: 0x24 }
  - { offsetInCU: 0x2C813, offset: 0x9F162, size: 0x8, addend: 0x0, symName: __ZN4absl12lts_2022062313cord_internal18CordRepBtreeReader4InitEPNS1_12CordRepBtreeE.cold.2, symObjAddr: 0x97A4, symBinAddr: 0x4FC3C, symSize: 0x24 }
  - { offsetInCU: 0x2C855, offset: 0x9F1A4, size: 0x8, addend: 0x0, symName: __ZN4absl12lts_2022062313cord_internal18CordRepBtreeReader4InitEPNS1_12CordRepBtreeE.cold.3, symObjAddr: 0x97C8, symBinAddr: 0x4FC60, symSize: 0x24 }
  - { offsetInCU: 0x2C8D7, offset: 0x9F226, size: 0x8, addend: 0x0, symName: __ZN4absl12lts_2022062313cord_internal18CordRepBtreeReader4InitEPNS1_12CordRepBtreeE.cold.4, symObjAddr: 0x97EC, symBinAddr: 0x4FC84, symSize: 0x24 }
  - { offsetInCU: 0x2C959, offset: 0x9F2A8, size: 0x8, addend: 0x0, symName: __ZN4absl12lts_2022062313cord_internal8EdgeDataEPKNS1_7CordRepE.cold.1, symObjAddr: 0x9834, symBinAddr: 0x4FCCC, symSize: 0x24 }
  - { offsetInCU: 0x2C986, offset: 0x9F2D5, size: 0x8, addend: 0x0, symName: __ZN4absl12lts_2022062313cord_internal8EdgeDataEPKNS1_7CordRepE.cold.5, symObjAddr: 0x98C4, symBinAddr: 0x4FD5C, symSize: 0x24 }
  - { offsetInCU: 0x2C99E, offset: 0x9F2ED, size: 0x8, addend: 0x0, symName: __ZN4absl12lts_2022062313cord_internal8EdgeDataEPKNS1_7CordRepE.cold.2, symObjAddr: 0x9858, symBinAddr: 0x4FCF0, symSize: 0x24 }
  - { offsetInCU: 0x2C9CB, offset: 0x9F31A, size: 0x8, addend: 0x0, symName: __ZN4absl12lts_2022062313cord_internal8EdgeDataEPKNS1_7CordRepE.cold.3, symObjAddr: 0x987C, symBinAddr: 0x4FD14, symSize: 0x24 }
  - { offsetInCU: 0x2CA38, offset: 0x9F387, size: 0x8, addend: 0x0, symName: __ZN4absl12lts_2022062313cord_internal8EdgeDataEPKNS1_7CordRepE.cold.4, symObjAddr: 0x98A0, symBinAddr: 0x4FD38, symSize: 0x24 }
  - { offsetInCU: 0x2CADD, offset: 0x9F42C, size: 0x8, addend: 0x0, symName: __ZN4absl12lts_2022062313cord_internal21CordRepBtreeNavigator4InitILNS1_12CordRepBtree8EdgeTypeE0EEEPNS1_7CordRepEPS4_.cold.6, symObjAddr: 0x99A4, symBinAddr: 0x4FE3C, symSize: 0x24 }
  - { offsetInCU: 0x2CB0A, offset: 0x9F459, size: 0x8, addend: 0x0, symName: __ZN4absl12lts_2022062313cord_internal21CordRepBtreeNavigator4InitILNS1_12CordRepBtree8EdgeTypeE0EEEPNS1_7CordRepEPS4_.cold.8, symObjAddr: 0x99EC, symBinAddr: 0x4FE84, symSize: 0x24 }
  - { offsetInCU: 0x2CB37, offset: 0x9F486, size: 0x8, addend: 0x0, symName: __ZN4absl12lts_2022062313cord_internal21CordRepBtreeNavigator4InitILNS1_12CordRepBtree8EdgeTypeE0EEEPNS1_7CordRepEPS4_.cold.7, symObjAddr: 0x99C8, symBinAddr: 0x4FE60, symSize: 0x24 }
  - { offsetInCU: 0x2CB64, offset: 0x9F4B3, size: 0x8, addend: 0x0, symName: __ZN4absl12lts_2022062313cord_internal21CordRepBtreeNavigator4InitILNS1_12CordRepBtree8EdgeTypeE0EEEPNS1_7CordRepEPS4_.cold.1, symObjAddr: 0x98E8, symBinAddr: 0x4FD80, symSize: 0x24 }
  - { offsetInCU: 0x2CB7C, offset: 0x9F4CB, size: 0x8, addend: 0x0, symName: __ZN4absl12lts_2022062313cord_internal21CordRepBtreeNavigator4InitILNS1_12CordRepBtree8EdgeTypeE0EEEPNS1_7CordRepEPS4_.cold.2, symObjAddr: 0x990C, symBinAddr: 0x4FDA4, symSize: 0x28 }
  - { offsetInCU: 0x2CB94, offset: 0x9F4E3, size: 0x8, addend: 0x0, symName: __ZN4absl12lts_2022062313cord_internal21CordRepBtreeNavigator4InitILNS1_12CordRepBtree8EdgeTypeE0EEEPNS1_7CordRepEPS4_.cold.3, symObjAddr: 0x9934, symBinAddr: 0x4FDCC, symSize: 0x28 }
  - { offsetInCU: 0x2CBAC, offset: 0x9F4FB, size: 0x8, addend: 0x0, symName: __ZN4absl12lts_2022062313cord_internal21CordRepBtreeNavigator4InitILNS1_12CordRepBtree8EdgeTypeE0EEEPNS1_7CordRepEPS4_.cold.4, symObjAddr: 0x995C, symBinAddr: 0x4FDF4, symSize: 0x24 }
  - { offsetInCU: 0x2CBD9, offset: 0x9F528, size: 0x8, addend: 0x0, symName: __ZN4absl12lts_2022062313cord_internal21CordRepBtreeNavigator4InitILNS1_12CordRepBtree8EdgeTypeE0EEEPNS1_7CordRepEPS4_.cold.5, symObjAddr: 0x9980, symBinAddr: 0x4FE18, symSize: 0x24 }
  - { offsetInCU: 0x2CC33, offset: 0x9F582, size: 0x8, addend: 0x0, symName: __ZN4absl12lts_2022062313cord_internal18CordRepBtreeReader4SeekEm, symObjAddr: 0x7474, symBinAddr: 0x16114, symSize: 0xFC }
  - { offsetInCU: 0x2CE1E, offset: 0x9F76D, size: 0x8, addend: 0x0, symName: __ZN4absl12lts_2022062313cord_internal21CordRepBtreeNavigator4SeekEm, symObjAddr: 0x7570, symBinAddr: 0x16210, symSize: 0x164 }
  - { offsetInCU: 0x2CE29, offset: 0x9F778, size: 0x8, addend: 0x0, symName: __ZN4absl12lts_202206234Cord13ChunkIterator17AdvanceBytesBtreeEm.cold.1, symObjAddr: 0x9A10, symBinAddr: 0x4FEA8, symSize: 0x28 }
  - { offsetInCU: 0x2CE41, offset: 0x9F790, size: 0x8, addend: 0x0, symName: __ZN4absl12lts_202206234Cord13ChunkIterator17AdvanceBytesBtreeEm.cold.2, symObjAddr: 0x9A38, symBinAddr: 0x4FED0, symSize: 0x28 }
  - { offsetInCU: 0x2CE6F, offset: 0x9F7BE, size: 0x8, addend: 0x0, symName: __ZN4absl12lts_2022062313cord_internal21CordRepBtreeNavigator4SeekEm, symObjAddr: 0x7570, symBinAddr: 0x16210, symSize: 0x164 }
  - { offsetInCU: 0x2D0B2, offset: 0x9FA01, size: 0x8, addend: 0x0, symName: __ZN4absl12lts_202206234CordD2Ev, symObjAddr: 0x76D4, symBinAddr: 0x16374, symSize: 0x34 }
  - { offsetInCU: 0x2D0BD, offset: 0x9FA0C, size: 0x8, addend: 0x0, symName: __ZN4absl12lts_2022062313cord_internal18CordRepBtreeReader4SeekEm.cold.2, symObjAddr: 0x9A84, symBinAddr: 0x4FF1C, symSize: 0x28 }
  - { offsetInCU: 0x2D0EA, offset: 0x9FA39, size: 0x8, addend: 0x0, symName: __ZN4absl12lts_2022062313cord_internal18CordRepBtreeReader4SeekEm.cold.5, symObjAddr: 0x9AF4, symBinAddr: 0x4FF8C, symSize: 0x24 }
  - { offsetInCU: 0x2D117, offset: 0x9FA66, size: 0x8, addend: 0x0, symName: __ZN4absl12lts_2022062313cord_internal18CordRepBtreeReader4SeekEm.cold.1, symObjAddr: 0x9A60, symBinAddr: 0x4FEF8, symSize: 0x24 }
  - { offsetInCU: 0x2D159, offset: 0x9FAA8, size: 0x8, addend: 0x0, symName: __ZN4absl12lts_2022062313cord_internal18CordRepBtreeReader4SeekEm.cold.3, symObjAddr: 0x9AAC, symBinAddr: 0x4FF44, symSize: 0x24 }
  - { offsetInCU: 0x2D1DB, offset: 0x9FB2A, size: 0x8, addend: 0x0, symName: __ZN4absl12lts_2022062313cord_internal18CordRepBtreeReader4SeekEm.cold.4, symObjAddr: 0x9AD0, symBinAddr: 0x4FF68, symSize: 0x24 }
  - { offsetInCU: 0x2D28D, offset: 0x9FBDC, size: 0x8, addend: 0x0, symName: __ZN4absl12lts_2022062313cord_internal21CordRepBtreeNavigator4SeekEm.cold.2, symObjAddr: 0x9B40, symBinAddr: 0x4FFD8, symSize: 0x24 }
  - { offsetInCU: 0x2D2BA, offset: 0x9FC09, size: 0x8, addend: 0x0, symName: __ZN4absl12lts_2022062313cord_internal21CordRepBtreeNavigator4SeekEm.cold.7, symObjAddr: 0x9BF8, symBinAddr: 0x50090, symSize: 0x24 }
  - { offsetInCU: 0x2D2E7, offset: 0x9FC36, size: 0x8, addend: 0x0, symName: __ZN4absl12lts_2022062313cord_internal21CordRepBtreeNavigator4SeekEm.cold.6, symObjAddr: 0x9BD4, symBinAddr: 0x5006C, symSize: 0x24 }
  - { offsetInCU: 0x2D314, offset: 0x9FC63, size: 0x8, addend: 0x0, symName: __ZN4absl12lts_2022062313cord_internal21CordRepBtreeNavigator4SeekEm.cold.5, symObjAddr: 0x9BAC, symBinAddr: 0x50044, symSize: 0x28 }
  - { offsetInCU: 0x2D341, offset: 0x9FC90, size: 0x8, addend: 0x0, symName: __ZN4absl12lts_2022062313cord_internal21CordRepBtreeNavigator4SeekEm.cold.1, symObjAddr: 0x9B18, symBinAddr: 0x4FFB0, symSize: 0x28 }
  - { offsetInCU: 0x2D359, offset: 0x9FCA8, size: 0x8, addend: 0x0, symName: __ZN4absl12lts_2022062313cord_internal21CordRepBtreeNavigator4SeekEm.cold.3, symObjAddr: 0x9B64, symBinAddr: 0x4FFFC, symSize: 0x24 }
  - { offsetInCU: 0x2D386, offset: 0x9FCD5, size: 0x8, addend: 0x0, symName: __ZN4absl12lts_2022062313cord_internal21CordRepBtreeNavigator4SeekEm.cold.4, symObjAddr: 0x9B88, symBinAddr: 0x50020, symSize: 0x24 }
  - { offsetInCU: 0x2D3B3, offset: 0x9FD02, size: 0x8, addend: 0x0, symName: __ZN4absl12lts_2022062313cord_internal21CordRepBtreeNavigator6NextUpEv.cold.1, symObjAddr: 0x9C1C, symBinAddr: 0x500B4, symSize: 0x24 }
  - { offsetInCU: 0x2D3E0, offset: 0x9FD2F, size: 0x8, addend: 0x0, symName: __ZN4absl12lts_2022062313cord_internal21CordRepBtreeNavigator6NextUpEv.cold.5, symObjAddr: 0x9CAC, symBinAddr: 0x50144, symSize: 0x24 }
  - { offsetInCU: 0x2D40D, offset: 0x9FD5C, size: 0x8, addend: 0x0, symName: __ZN4absl12lts_2022062313cord_internal21CordRepBtreeNavigator6NextUpEv.cold.4, symObjAddr: 0x9C88, symBinAddr: 0x50120, symSize: 0x24 }
  - { offsetInCU: 0x2D43A, offset: 0x9FD89, size: 0x8, addend: 0x0, symName: __ZN4absl12lts_2022062313cord_internal21CordRepBtreeNavigator6NextUpEv.cold.6, symObjAddr: 0x9CD0, symBinAddr: 0x50168, symSize: 0x28 }
  - { offsetInCU: 0x2D452, offset: 0x9FDA1, size: 0x8, addend: 0x0, symName: __ZN4absl12lts_2022062313cord_internal21CordRepBtreeNavigator6NextUpEv.cold.2, symObjAddr: 0x9C40, symBinAddr: 0x500D8, symSize: 0x24 }
  - { offsetInCU: 0x2D47F, offset: 0x9FDCE, size: 0x8, addend: 0x0, symName: __ZN4absl12lts_2022062313cord_internal21CordRepBtreeNavigator6NextUpEv.cold.3, symObjAddr: 0x9C64, symBinAddr: 0x500FC, symSize: 0x24 }
  - { offsetInCU: 0x2D4AC, offset: 0x9FDFB, size: 0x8, addend: 0x0, symName: __ZN4absl12lts_202206234Cord13ChunkIteratorC2EPNS0_13cord_internal7CordRepE.cold.4, symObjAddr: 0x9D64, symBinAddr: 0x501FC, symSize: 0x24 }
  - { offsetInCU: 0x2D4F0, offset: 0x9FE3F, size: 0x8, addend: 0x0, symName: __ZN4absl12lts_202206234Cord13ChunkIteratorC2EPNS0_13cord_internal7CordRepE.cold.1, symObjAddr: 0x9CF8, symBinAddr: 0x50190, symSize: 0x24 }
  - { offsetInCU: 0x2D549, offset: 0x9FE98, size: 0x8, addend: 0x0, symName: __ZN4absl12lts_202206234Cord13ChunkIteratorC2EPNS0_13cord_internal7CordRepE.cold.2, symObjAddr: 0x9D1C, symBinAddr: 0x501B4, symSize: 0x24 }
  - { offsetInCU: 0x2D5E2, offset: 0x9FF31, size: 0x8, addend: 0x0, symName: __ZN4absl12lts_202206234Cord13ChunkIteratorC2EPNS0_13cord_internal7CordRepE.cold.3, symObjAddr: 0x9D40, symBinAddr: 0x501D8, symSize: 0x24 }
  - { offsetInCU: 0x2D869, offset: 0xA01B8, size: 0x8, addend: 0x0, symName: __ZNK4absl12lts_202206234Cord15CompareSlowPathENS0_11string_viewEmm.cold.3, symObjAddr: 0x9DD8, symBinAddr: 0x50270, symSize: 0x24 }
  - { offsetInCU: 0x2D8C3, offset: 0xA0212, size: 0x8, addend: 0x0, symName: __ZNK4absl12lts_202206234Cord15CompareSlowPathENS0_11string_viewEmm.cold.4, symObjAddr: 0x9DFC, symBinAddr: 0x50294, symSize: 0x24 }
  - { offsetInCU: 0x2D907, offset: 0xA0256, size: 0x8, addend: 0x0, symName: __ZNK4absl12lts_202206234Cord15CompareSlowPathENS0_11string_viewEmm.cold.5, symObjAddr: 0x9E20, symBinAddr: 0x502B8, symSize: 0x24 }
  - { offsetInCU: 0x2D94B, offset: 0xA029A, size: 0x8, addend: 0x0, symName: __ZNK4absl12lts_202206234Cord15CompareSlowPathENS0_11string_viewEmm.cold.1, symObjAddr: 0x9D88, symBinAddr: 0x50220, symSize: 0x28 }
  - { offsetInCU: 0x2D963, offset: 0xA02B2, size: 0x8, addend: 0x0, symName: __ZNK4absl12lts_202206234Cord15CompareSlowPathENS0_11string_viewEmm.cold.2, symObjAddr: 0x9DB0, symBinAddr: 0x50248, symSize: 0x28 }
  - { offsetInCU: 0x2D99F, offset: 0xA02EE, size: 0x8, addend: 0x0, symName: __ZNK4absl12lts_202206234Cord9InlineRep18FindFlatStartPieceEv.cold.4, symObjAddr: 0x9EB4, symBinAddr: 0x5034C, symSize: 0x24 }
  - { offsetInCU: 0x2DA0D, offset: 0xA035C, size: 0x8, addend: 0x0, symName: __ZNK4absl12lts_202206234Cord9InlineRep18FindFlatStartPieceEv.cold.11, symObjAddr: 0x9FB8, symBinAddr: 0x50450, symSize: 0x24 }
  - { offsetInCU: 0x2DA3B, offset: 0xA038A, size: 0x8, addend: 0x0, symName: __ZNK4absl12lts_202206234Cord9InlineRep18FindFlatStartPieceEv.cold.1, symObjAddr: 0x9E44, symBinAddr: 0x502DC, symSize: 0x24 }
  - { offsetInCU: 0x2DAA9, offset: 0xA03F8, size: 0x8, addend: 0x0, symName: __ZNK4absl12lts_202206234Cord9InlineRep18FindFlatStartPieceEv.cold.2, symObjAddr: 0x9E68, symBinAddr: 0x50300, symSize: 0x28 }
  - { offsetInCU: 0x2DAD7, offset: 0xA0426, size: 0x8, addend: 0x0, symName: __ZNK4absl12lts_202206234Cord9InlineRep18FindFlatStartPieceEv.cold.3, symObjAddr: 0x9E90, symBinAddr: 0x50328, symSize: 0x24 }
  - { offsetInCU: 0x2DB05, offset: 0xA0454, size: 0x8, addend: 0x0, symName: __ZNK4absl12lts_202206234Cord9InlineRep18FindFlatStartPieceEv.cold.10, symObjAddr: 0x9F94, symBinAddr: 0x5042C, symSize: 0x24 }
  - { offsetInCU: 0x2DB73, offset: 0xA04C2, size: 0x8, addend: 0x0, symName: __ZNK4absl12lts_202206234Cord9InlineRep18FindFlatStartPieceEv.cold.5, symObjAddr: 0x9ED8, symBinAddr: 0x50370, symSize: 0x28 }
  - { offsetInCU: 0x2DB8B, offset: 0xA04DA, size: 0x8, addend: 0x0, symName: __ZNK4absl12lts_202206234Cord9InlineRep18FindFlatStartPieceEv.cold.13, symObjAddr: 0xA000, symBinAddr: 0x50498, symSize: 0x28 }
  - { offsetInCU: 0x2DBB9, offset: 0xA0508, size: 0x8, addend: 0x0, symName: __ZNK4absl12lts_202206234Cord9InlineRep18FindFlatStartPieceEv.cold.12, symObjAddr: 0x9FDC, symBinAddr: 0x50474, symSize: 0x24 }
  - { offsetInCU: 0x2DBFD, offset: 0xA054C, size: 0x8, addend: 0x0, symName: __ZNK4absl12lts_202206234Cord9InlineRep18FindFlatStartPieceEv.cold.9, symObjAddr: 0x9F6C, symBinAddr: 0x50404, symSize: 0x28 }
  - { offsetInCU: 0x2DC15, offset: 0xA0564, size: 0x8, addend: 0x0, symName: __ZNK4absl12lts_202206234Cord9InlineRep18FindFlatStartPieceEv.cold.8, symObjAddr: 0x9F48, symBinAddr: 0x503E0, symSize: 0x24 }
  - { offsetInCU: 0x2DC83, offset: 0xA05D2, size: 0x8, addend: 0x0, symName: __ZNK4absl12lts_202206234Cord9InlineRep18FindFlatStartPieceEv.cold.6, symObjAddr: 0x9F00, symBinAddr: 0x50398, symSize: 0x24 }
  - { offsetInCU: 0x2DCB1, offset: 0xA0600, size: 0x8, addend: 0x0, symName: __ZNK4absl12lts_202206234Cord9InlineRep18FindFlatStartPieceEv.cold.7, symObjAddr: 0x9F24, symBinAddr: 0x503BC, symSize: 0x24 }
  - { offsetInCU: 0x2DD1F, offset: 0xA066E, size: 0x8, addend: 0x0, symName: __ZN4absl12lts_2022062312_GLOBAL__N_113CompareChunksEPNS0_11string_viewES3_Pm.cold.1, symObjAddr: 0xA028, symBinAddr: 0x504C0, symSize: 0x28 }
  - { offsetInCU: 0x2DD37, offset: 0xA0686, size: 0x8, addend: 0x0, symName: __ZN4absl12lts_2022062312_GLOBAL__N_113CompareChunksEPNS0_11string_viewES3_Pm.cold.2, symObjAddr: 0xA050, symBinAddr: 0x504E8, symSize: 0x28 }
  - { offsetInCU: 0x2DD7B, offset: 0xA06CA, size: 0x8, addend: 0x0, symName: __ZN4absl12lts_2022062312_GLOBAL__N_113CompareChunksEPNS0_11string_viewES3_Pm.cold.3, symObjAddr: 0xA078, symBinAddr: 0x50510, symSize: 0x28 }
  - { offsetInCU: 0x2DE00, offset: 0xA074F, size: 0x8, addend: 0x0, symName: __ZNK4absl12lts_202206234Cord15CompareSlowPathERKS1_mm.cold.3, symObjAddr: 0xA0F0, symBinAddr: 0x50588, symSize: 0x24 }
  - { offsetInCU: 0x2DE5A, offset: 0xA07A9, size: 0x8, addend: 0x0, symName: __ZNK4absl12lts_202206234Cord15CompareSlowPathERKS1_mm.cold.4, symObjAddr: 0xA114, symBinAddr: 0x505AC, symSize: 0x24 }
  - { offsetInCU: 0x2DE9E, offset: 0xA07ED, size: 0x8, addend: 0x0, symName: __ZNK4absl12lts_202206234Cord15CompareSlowPathERKS1_mm.cold.5, symObjAddr: 0xA138, symBinAddr: 0x505D0, symSize: 0x24 }
  - { offsetInCU: 0x2DEF8, offset: 0xA0847, size: 0x8, addend: 0x0, symName: __ZNK4absl12lts_202206234Cord15CompareSlowPathERKS1_mm.cold.6, symObjAddr: 0xA15C, symBinAddr: 0x505F4, symSize: 0x24 }
  - { offsetInCU: 0x2DF3C, offset: 0xA088B, size: 0x8, addend: 0x0, symName: __ZNK4absl12lts_202206234Cord15CompareSlowPathERKS1_mm.cold.8, symObjAddr: 0xA1A4, symBinAddr: 0x5063C, symSize: 0x24 }
  - { offsetInCU: 0x2DF80, offset: 0xA08CF, size: 0x8, addend: 0x0, symName: __ZNK4absl12lts_202206234Cord15CompareSlowPathERKS1_mm.cold.7, symObjAddr: 0xA180, symBinAddr: 0x50618, symSize: 0x24 }
  - { offsetInCU: 0x2DFC4, offset: 0xA0913, size: 0x8, addend: 0x0, symName: __ZNK4absl12lts_202206234Cord15CompareSlowPathERKS1_mm.cold.1, symObjAddr: 0xA0A0, symBinAddr: 0x50538, symSize: 0x28 }
  - { offsetInCU: 0x2DFDC, offset: 0xA092B, size: 0x8, addend: 0x0, symName: __ZNK4absl12lts_202206234Cord15CompareSlowPathERKS1_mm.cold.2, symObjAddr: 0xA0C8, symBinAddr: 0x50560, symSize: 0x28 }
  - { offsetInCU: 0x2DFF4, offset: 0xA0943, size: 0x8, addend: 0x0, symName: __ZN4absl12lts_2022062314GenericCompareIiNS0_11string_viewEEET_RKNS0_4CordERKT0_m.cold.1, symObjAddr: 0xA1C8, symBinAddr: 0x50660, symSize: 0x24 }
  - { offsetInCU: 0x2E00C, offset: 0xA095B, size: 0x8, addend: 0x0, symName: __ZN4absl12lts_2022062314GenericCompareIiNS0_4CordEEET_RKS2_RKT0_m.cold.1, symObjAddr: 0xA1EC, symBinAddr: 0x50684, symSize: 0x24 }
  - { offsetInCU: 0x2E0BC, offset: 0xA0A0B, size: 0x8, addend: 0x0, symName: '__ZN4absl12lts_2022062313cord_internal19CordRepExternalImplIZNS0_4Cord15FlattenSlowPathEvE3$_2E7ReleaseEPNS1_15CordRepExternalE', symObjAddr: 0x8150, symBinAddr: 0x16D50, symSize: 0x68 }
  - { offsetInCU: 0x2E256, offset: 0xA0BA5, size: 0x8, addend: 0x0, symName: _OUTLINED_FUNCTION_0, symObjAddr: 0xA210, symBinAddr: 0x16DB8, symSize: 0x8 }
  - { offsetInCU: 0x2E26E, offset: 0xA0BBD, size: 0x8, addend: 0x0, symName: _OUTLINED_FUNCTION_1, symObjAddr: 0xA218, symBinAddr: 0x16DC0, symSize: 0x8 }
  - { offsetInCU: 0x2E286, offset: 0xA0BD5, size: 0x8, addend: 0x0, symName: _OUTLINED_FUNCTION_2, symObjAddr: 0xA220, symBinAddr: 0x16DC8, symSize: 0x8 }
  - { offsetInCU: 0x2E29E, offset: 0xA0BED, size: 0x8, addend: 0x0, symName: _OUTLINED_FUNCTION_3, symObjAddr: 0xA228, symBinAddr: 0x16DD0, symSize: 0x8 }
  - { offsetInCU: 0x2E2B6, offset: 0xA0C05, size: 0x8, addend: 0x0, symName: _OUTLINED_FUNCTION_4, symObjAddr: 0xA230, symBinAddr: 0x16DD8, symSize: 0x8 }
  - { offsetInCU: 0x2E2CE, offset: 0xA0C1D, size: 0x8, addend: 0x0, symName: _OUTLINED_FUNCTION_5, symObjAddr: 0xA238, symBinAddr: 0x16DE0, symSize: 0x8 }
  - { offsetInCU: 0x2E2E6, offset: 0xA0C35, size: 0x8, addend: 0x0, symName: _OUTLINED_FUNCTION_6, symObjAddr: 0xA240, symBinAddr: 0x16DE8, symSize: 0x8 }
  - { offsetInCU: 0x2E2FE, offset: 0xA0C4D, size: 0x8, addend: 0x0, symName: _OUTLINED_FUNCTION_7, symObjAddr: 0xA248, symBinAddr: 0x16DF0, symSize: 0x8 }
  - { offsetInCU: 0x2E316, offset: 0xA0C65, size: 0x8, addend: 0x0, symName: _OUTLINED_FUNCTION_8, symObjAddr: 0xA250, symBinAddr: 0x16DF8, symSize: 0x8 }
  - { offsetInCU: 0x2E32E, offset: 0xA0C7D, size: 0x8, addend: 0x0, symName: _OUTLINED_FUNCTION_9, symObjAddr: 0xA258, symBinAddr: 0x16E00, symSize: 0x8 }
  - { offsetInCU: 0x2E346, offset: 0xA0C95, size: 0x8, addend: 0x0, symName: _OUTLINED_FUNCTION_10, symObjAddr: 0xA260, symBinAddr: 0x16E08, symSize: 0x8 }
  - { offsetInCU: 0x2E35E, offset: 0xA0CAD, size: 0x8, addend: 0x0, symName: _OUTLINED_FUNCTION_11, symObjAddr: 0xA268, symBinAddr: 0x16E10, symSize: 0x8 }
  - { offsetInCU: 0x2E376, offset: 0xA0CC5, size: 0x8, addend: 0x0, symName: _OUTLINED_FUNCTION_12, symObjAddr: 0xA270, symBinAddr: 0x16E18, symSize: 0x8 }
  - { offsetInCU: 0x2E38E, offset: 0xA0CDD, size: 0x8, addend: 0x0, symName: _OUTLINED_FUNCTION_13, symObjAddr: 0xA278, symBinAddr: 0x16E20, symSize: 0x8 }
  - { offsetInCU: 0x2E3A6, offset: 0xA0CF5, size: 0x8, addend: 0x0, symName: _OUTLINED_FUNCTION_14, symObjAddr: 0xA280, symBinAddr: 0x16E28, symSize: 0x8 }
  - { offsetInCU: 0x2E3BE, offset: 0xA0D0D, size: 0x8, addend: 0x0, symName: _OUTLINED_FUNCTION_15, symObjAddr: 0xA288, symBinAddr: 0x16E30, symSize: 0x8 }
  - { offsetInCU: 0x2E3D6, offset: 0xA0D25, size: 0x8, addend: 0x0, symName: _OUTLINED_FUNCTION_16, symObjAddr: 0xA290, symBinAddr: 0x16E38, symSize: 0x8 }
  - { offsetInCU: 0x2E3EE, offset: 0xA0D3D, size: 0x8, addend: 0x0, symName: _OUTLINED_FUNCTION_17, symObjAddr: 0xA298, symBinAddr: 0x16E40, symSize: 0x8 }
  - { offsetInCU: 0x2E406, offset: 0xA0D55, size: 0x8, addend: 0x0, symName: _OUTLINED_FUNCTION_18, symObjAddr: 0xA2A0, symBinAddr: 0x16E48, symSize: 0x8 }
  - { offsetInCU: 0x2E41E, offset: 0xA0D6D, size: 0x8, addend: 0x0, symName: _OUTLINED_FUNCTION_19, symObjAddr: 0xA2A8, symBinAddr: 0x16E50, symSize: 0x8 }
  - { offsetInCU: 0x26, offset: 0xA0DCE, size: 0x8, addend: 0x0, symName: __ZN4absl12lts_2022062313cord_internal23GetEstimatedMemoryUsageEPKNS1_7CordRepE, symObjAddr: 0x0, symBinAddr: 0x16E58, symSize: 0x13C }
  - { offsetInCU: 0xA18, offset: 0xA17C0, size: 0x8, addend: 0x0, symName: __ZN4absl12lts_2022062313cord_internal12_GLOBAL__N_115AnalyzeDataEdgeILNS2_4ModeE0EEEvNS2_10CordRepRefIXT_EEERNS2_8RawUsageIXT_EEE, symObjAddr: 0x31C, symBinAddr: 0x17174, symSize: 0xC0 }
  - { offsetInCU: 0xB21, offset: 0xA18C9, size: 0x8, addend: 0x0, symName: __ZN4absl12lts_2022062313cord_internal12_GLOBAL__N_112AnalyzeBtreeILNS2_4ModeE0EEEvNS2_10CordRepRefIXT_EEERNS2_8RawUsageIXT_EEE, symObjAddr: 0x3DC, symBinAddr: 0x17234, symSize: 0xA4 }
  - { offsetInCU: 0xB35, offset: 0xA18DD, size: 0x8, addend: 0x0, symName: __ZN4absl12lts_2022062313cord_internal12_GLOBAL__N_112AnalyzeBtreeILNS2_4ModeE0EEEvNS2_10CordRepRefIXT_EEERNS2_8RawUsageIXT_EEE, symObjAddr: 0x3DC, symBinAddr: 0x17234, symSize: 0xA4 }
  - { offsetInCU: 0xCD3, offset: 0xA1A7B, size: 0x8, addend: 0x0, symName: __ZNK4absl12lts_2022062313cord_internal11CordRepRing11entry_childEj, symObjAddr: 0x480, symBinAddr: 0x172D8, symSize: 0x5C }
  - { offsetInCU: 0xE74, offset: 0xA1C1C, size: 0x8, addend: 0x0, symName: __ZN4absl12lts_2022062313cord_internal12_GLOBAL__N_115AnalyzeDataEdgeILNS2_4ModeE1EEEvNS2_10CordRepRefIXT_EEERNS2_8RawUsageIXT_EEE, symObjAddr: 0x4DC, symBinAddr: 0x17334, symSize: 0xF0 }
  - { offsetInCU: 0x1066, offset: 0xA1E0E, size: 0x8, addend: 0x0, symName: __ZN4absl12lts_2022062313cord_internal12_GLOBAL__N_112AnalyzeBtreeILNS2_4ModeE1EEEvNS2_10CordRepRefIXT_EEERNS2_8RawUsageIXT_EEE, symObjAddr: 0x5CC, symBinAddr: 0x17424, symSize: 0x108 }
  - { offsetInCU: 0x107A, offset: 0xA1E22, size: 0x8, addend: 0x0, symName: __ZN4absl12lts_2022062313cord_internal12_GLOBAL__N_112AnalyzeBtreeILNS2_4ModeE1EEEvNS2_10CordRepRefIXT_EEERNS2_8RawUsageIXT_EEE, symObjAddr: 0x5CC, symBinAddr: 0x17424, symSize: 0x108 }
  - { offsetInCU: 0x13EE, offset: 0xA2196, size: 0x8, addend: 0x0, symName: __ZN4absl12lts_2022062313cord_internal23GetEstimatedMemoryUsageEPKNS1_7CordRepE.cold.1, symObjAddr: 0x6D4, symBinAddr: 0x506A8, symSize: 0x24 }
  - { offsetInCU: 0x141F, offset: 0xA21C7, size: 0x8, addend: 0x0, symName: __ZN4absl12lts_2022062313cord_internal23GetEstimatedMemoryUsageEPKNS1_7CordRepE, symObjAddr: 0x0, symBinAddr: 0x16E58, symSize: 0x13C }
  - { offsetInCU: 0x1689, offset: 0xA2431, size: 0x8, addend: 0x0, symName: __ZN4absl12lts_2022062313cord_internal32GetEstimatedFairShareMemoryUsageEPKNS1_7CordRepE, symObjAddr: 0x13C, symBinAddr: 0x16F94, symSize: 0x1E0 }
  - { offsetInCU: 0x1693, offset: 0xA243B, size: 0x8, addend: 0x0, symName: __ZN4absl12lts_2022062313cord_internal32GetEstimatedFairShareMemoryUsageEPKNS1_7CordRepE, symObjAddr: 0x13C, symBinAddr: 0x16F94, symSize: 0x1E0 }
  - { offsetInCU: 0x1CEA, offset: 0xA2A92, size: 0x8, addend: 0x0, symName: __ZN4absl12lts_2022062313cord_internal12_GLOBAL__N_115AnalyzeDataEdgeILNS2_4ModeE0EEEvNS2_10CordRepRefIXT_EEERNS2_8RawUsageIXT_EEE, symObjAddr: 0x31C, symBinAddr: 0x17174, symSize: 0xC0 }
  - { offsetInCU: 0x6704, offset: 0xA74AC, size: 0x8, addend: 0x0, symName: __ZNK4absl12lts_2022062313cord_internal11CordRepRing11entry_childEj, symObjAddr: 0x480, symBinAddr: 0x172D8, symSize: 0x5C }
  - { offsetInCU: 0x6786, offset: 0xA752E, size: 0x8, addend: 0x0, symName: __ZN4absl12lts_2022062313cord_internal12_GLOBAL__N_115AnalyzeDataEdgeILNS2_4ModeE1EEEvNS2_10CordRepRefIXT_EEERNS2_8RawUsageIXT_EEE, symObjAddr: 0x4DC, symBinAddr: 0x17334, symSize: 0xF0 }
  - { offsetInCU: 0x6791, offset: 0xA7539, size: 0x8, addend: 0x0, symName: __ZN4absl12lts_2022062313cord_internal23GetEstimatedMemoryUsageEPKNS1_7CordRepE.cold.1, symObjAddr: 0x6D4, symBinAddr: 0x506A8, symSize: 0x24 }
  - { offsetInCU: 0x67D3, offset: 0xA757B, size: 0x8, addend: 0x0, symName: __ZN4absl12lts_2022062313cord_internal23GetEstimatedMemoryUsageEPKNS1_7CordRepE.cold.2, symObjAddr: 0x6F8, symBinAddr: 0x506CC, symSize: 0x28 }
  - { offsetInCU: 0x6A45, offset: 0xA77ED, size: 0x8, addend: 0x0, symName: __ZN4absl12lts_2022062313cord_internal32GetEstimatedFairShareMemoryUsageEPKNS1_7CordRepE.cold.1, symObjAddr: 0x720, symBinAddr: 0x506F4, symSize: 0x28 }
  - { offsetInCU: 0x6AA0, offset: 0xA7848, size: 0x8, addend: 0x0, symName: __ZN4absl12lts_2022062313cord_internal12_GLOBAL__N_115AnalyzeDataEdgeILNS2_4ModeE0EEEvNS2_10CordRepRefIXT_EEERNS2_8RawUsageIXT_EEE.cold.1, symObjAddr: 0x748, symBinAddr: 0x5071C, symSize: 0x24 }
  - { offsetInCU: 0x6ACD, offset: 0xA7875, size: 0x8, addend: 0x0, symName: __ZN4absl12lts_2022062313cord_internal12_GLOBAL__N_115AnalyzeDataEdgeILNS2_4ModeE0EEEvNS2_10CordRepRefIXT_EEERNS2_8RawUsageIXT_EEE.cold.3, symObjAddr: 0x794, symBinAddr: 0x50768, symSize: 0x28 }
  - { offsetInCU: 0x6AE5, offset: 0xA788D, size: 0x8, addend: 0x0, symName: __ZN4absl12lts_2022062313cord_internal12_GLOBAL__N_115AnalyzeDataEdgeILNS2_4ModeE0EEEvNS2_10CordRepRefIXT_EEERNS2_8RawUsageIXT_EEE.cold.2, symObjAddr: 0x76C, symBinAddr: 0x50740, symSize: 0x28 }
  - { offsetInCU: 0x6B6F, offset: 0xA7917, size: 0x8, addend: 0x0, symName: __ZN4absl12lts_2022062313cord_internal12_GLOBAL__N_112AnalyzeBtreeILNS2_4ModeE0EEEvNS2_10CordRepRefIXT_EEERNS2_8RawUsageIXT_EEE.cold.1, symObjAddr: 0x7BC, symBinAddr: 0x50790, symSize: 0x28 }
  - { offsetInCU: 0x6C06, offset: 0xA79AE, size: 0x8, addend: 0x0, symName: __ZNK4absl12lts_2022062313cord_internal11CordRepRing11entry_childEj.cold.2, symObjAddr: 0x80C, symBinAddr: 0x507E0, symSize: 0x28 }
  - { offsetInCU: 0x6C1E, offset: 0xA79C6, size: 0x8, addend: 0x0, symName: __ZNK4absl12lts_2022062313cord_internal11CordRepRing11entry_childEj.cold.1, symObjAddr: 0x7E4, symBinAddr: 0x507B8, symSize: 0x28 }
  - { offsetInCU: 0x6C4B, offset: 0xA79F3, size: 0x8, addend: 0x0, symName: __ZN4absl12lts_2022062313cord_internal12_GLOBAL__N_115AnalyzeDataEdgeILNS2_4ModeE1EEEvNS2_10CordRepRefIXT_EEERNS2_8RawUsageIXT_EEE.cold.1, symObjAddr: 0x834, symBinAddr: 0x50808, symSize: 0x24 }
  - { offsetInCU: 0x6C78, offset: 0xA7A20, size: 0x8, addend: 0x0, symName: __ZN4absl12lts_2022062313cord_internal12_GLOBAL__N_115AnalyzeDataEdgeILNS2_4ModeE1EEEvNS2_10CordRepRefIXT_EEERNS2_8RawUsageIXT_EEE.cold.3, symObjAddr: 0x880, symBinAddr: 0x50854, symSize: 0x28 }
  - { offsetInCU: 0x6C90, offset: 0xA7A38, size: 0x8, addend: 0x0, symName: __ZN4absl12lts_2022062313cord_internal12_GLOBAL__N_115AnalyzeDataEdgeILNS2_4ModeE1EEEvNS2_10CordRepRefIXT_EEERNS2_8RawUsageIXT_EEE.cold.2, symObjAddr: 0x858, symBinAddr: 0x5082C, symSize: 0x28 }
  - { offsetInCU: 0x6CBD, offset: 0xA7A65, size: 0x8, addend: 0x0, symName: __ZN4absl12lts_2022062313cord_internal12_GLOBAL__N_112AnalyzeBtreeILNS2_4ModeE1EEEvNS2_10CordRepRefIXT_EEERNS2_8RawUsageIXT_EEE.cold.1, symObjAddr: 0x8A8, symBinAddr: 0x5087C, symSize: 0x28 }
  - { offsetInCU: 0x6CEA, offset: 0xA7A92, size: 0x8, addend: 0x0, symName: _OUTLINED_FUNCTION_0, symObjAddr: 0x8D0, symBinAddr: 0x1752C, symSize: 0x8 }
  - { offsetInCU: 0x37, offset: 0xA7AE6, size: 0x8, addend: 0x0, symName: __ZN4absl12lts_2022062310CordBuffer13kDefaultLimitE, symObjAddr: 0x0, symBinAddr: 0x5A150, symSize: 0x0 }
  - { offsetInCU: 0x4B, offset: 0xA7AFA, size: 0x8, addend: 0x0, symName: __ZN4absl12lts_2022062310CordBuffer12kCustomLimitE, symObjAddr: 0x8, symBinAddr: 0x5A158, symSize: 0x0 }
  - { offsetInCU: 0x26, offset: 0xAA533, size: 0x8, addend: 0x0, symName: __ZN4absl12lts_2022062313cord_internal16LogFatalNodeTypeEPNS1_7CordRepE, symObjAddr: 0x0, symBinAddr: 0x17534, symSize: 0x88 }
  - { offsetInCU: 0x4E, offset: 0xAA55B, size: 0x8, addend: 0x0, symName: __ZN4absl12lts_2022062313cord_internal24cord_ring_buffer_enabledE, symObjAddr: 0x23208, symBinAddr: 0x6E1A1, symSize: 0x0 }
  - { offsetInCU: 0x68, offset: 0xAA575, size: 0x8, addend: 0x0, symName: __ZN4absl12lts_2022062313cord_internal24shallow_subcords_enabledE, symObjAddr: 0x23209, symBinAddr: 0x6E1A2, symSize: 0x0 }
  - { offsetInCU: 0x82, offset: 0xAA58F, size: 0x8, addend: 0x0, symName: __ZN4absl12lts_2022062313cord_internal32cord_btree_exhaustive_validationE, symObjAddr: 0x2320A, symBinAddr: 0x6E1A3, symSize: 0x0 }
  - { offsetInCU: 0x90, offset: 0xAA59D, size: 0x8, addend: 0x0, symName: __ZN4absl12lts_2022062313cord_internal16LogFatalNodeTypeEPNS1_7CordRepE, symObjAddr: 0x0, symBinAddr: 0x17534, symSize: 0x88 }
  - { offsetInCU: 0x48FA, offset: 0xAEE07, size: 0x8, addend: 0x0, symName: __ZN4absl12lts_202206238AlphaNumC2Ei, symObjAddr: 0x1B4, symBinAddr: 0x176C0, symSize: 0x44 }
  - { offsetInCU: 0x49B1, offset: 0xAEEBE, size: 0x8, addend: 0x0, symName: __ZN4absl12lts_2022062313cord_internal7CordRep7DestroyEPS2_.cold.1, symObjAddr: 0x1F8, symBinAddr: 0x508A4, symSize: 0x28 }
  - { offsetInCU: 0x4A96, offset: 0xAEFA3, size: 0x8, addend: 0x0, symName: __ZN4absl12lts_2022062313cord_internal7CordRep7DestroyEPS2_, symObjAddr: 0x88, symBinAddr: 0x175BC, symSize: 0x104 }
  - { offsetInCU: 0x4C38, offset: 0xAF145, size: 0x8, addend: 0x0, symName: __ZN4absl12lts_2022062313cord_internal7CordRep7DestroyEPS2_.cold.5, symObjAddr: 0x298, symBinAddr: 0x50944, symSize: 0x28 }
  - { offsetInCU: 0x4C71, offset: 0xAF17E, size: 0x8, addend: 0x0, symName: __ZN4absl12lts_202206238AlphaNumC2Ei, symObjAddr: 0x1B4, symBinAddr: 0x176C0, symSize: 0x44 }
  - { offsetInCU: 0x4C7C, offset: 0xAF189, size: 0x8, addend: 0x0, symName: __ZN4absl12lts_2022062313cord_internal7CordRep7DestroyEPS2_.cold.4, symObjAddr: 0x270, symBinAddr: 0x5091C, symSize: 0x28 }
  - { offsetInCU: 0x4CA9, offset: 0xAF1B6, size: 0x8, addend: 0x0, symName: __ZN4absl12lts_2022062313cord_internal7CordRep7DestroyEPS2_.cold.1, symObjAddr: 0x1F8, symBinAddr: 0x508A4, symSize: 0x28 }
  - { offsetInCU: 0x4CC1, offset: 0xAF1CE, size: 0x8, addend: 0x0, symName: __ZN4absl12lts_2022062313cord_internal7CordRep7DestroyEPS2_.cold.2, symObjAddr: 0x220, symBinAddr: 0x508CC, symSize: 0x28 }
  - { offsetInCU: 0x4CD9, offset: 0xAF1E6, size: 0x8, addend: 0x0, symName: __ZN4absl12lts_2022062313cord_internal7CordRep7DestroyEPS2_.cold.3, symObjAddr: 0x248, symBinAddr: 0x508F4, symSize: 0x28 }
  - { offsetInCU: 0x4DC7, offset: 0xAF2D4, size: 0x8, addend: 0x0, symName: __ZN4absl12lts_202206238AlphaNumC2Ei.cold.1, symObjAddr: 0x2E8, symBinAddr: 0x5096C, symSize: 0x28 }
  - { offsetInCU: 0x5C, offset: 0xAF39C, size: 0x8, addend: 0x0, symName: __ZN4absl12lts_2022062313cord_internal12CordRepBtree12kMaxCapacityE, symObjAddr: 0x8808, symBinAddr: 0x5A168, symSize: 0x0 }
  - { offsetInCU: 0x1036, offset: 0xB0376, size: 0x8, addend: 0x0, symName: __ZN4absl12lts_2022062313cord_internal12_GLOBAL__N_17DumpAllEPKNS1_7CordRepEbRNSt3__113basic_ostreamIcNS6_11char_traitsIcEEEEi, symObjAddr: 0x1A1C, symBinAddr: 0x19120, symSize: 0x664 }
  - { offsetInCU: 0x27E7, offset: 0xB1B27, size: 0x8, addend: 0x0, symName: __ZN4absl12lts_2022062313cord_internal12_GLOBAL__N_114DeleteLeafEdgeEPNS1_7CordRepE, symObjAddr: 0x2388, symBinAddr: 0x19A8C, symSize: 0x11C }
  - { offsetInCU: 0x29EE, offset: 0xB1D2E, size: 0x8, addend: 0x0, symName: __ZN4absl12lts_2022062313cord_internal12CordRepBtree7IsValidEPKS2_b, symObjAddr: 0x24A4, symBinAddr: 0x19BA8, symSize: 0x40C }
  - { offsetInCU: 0x2A85, offset: 0xB1DC5, size: 0x8, addend: 0x0, symName: __ZN4absl12lts_2022062313cord_internal12_GLOBAL__N_115CreateSubstringEPNS1_7CordRepEmm, symObjAddr: 0x57B8, symBinAddr: 0x1C73C, symSize: 0xF4 }
  - { offsetInCU: 0x2E03, offset: 0xB2143, size: 0x8, addend: 0x0, symName: __ZN4absl12lts_2022062313cord_internal12_GLOBAL__N_115StackOperationsILNS1_12CordRepBtree8EdgeTypeE1EE8FinalizeEPS4_NS4_8OpResultE, symObjAddr: 0x58AC, symBinAddr: 0x1C830, symSize: 0x12C }
  - { offsetInCU: 0x2E0D, offset: 0xB214D, size: 0x8, addend: 0x0, symName: __ZN4absl12lts_2022062313cord_internal12_GLOBAL__N_110ResizeEdgeEPNS1_7CordRepEmb, symObjAddr: 0x36E4, symBinAddr: 0x1AD98, symSize: 0x84 }
  - { offsetInCU: 0x2EA7, offset: 0xB21E7, size: 0x8, addend: 0x0, symName: __ZN4absl12lts_2022062313cord_internal12CordRepBtree7SubTreeEmm, symObjAddr: 0x3768, symBinAddr: 0x1AE1C, symSize: 0x48C }
  - { offsetInCU: 0x3AF1, offset: 0xB2E31, size: 0x8, addend: 0x0, symName: '__ZN4absl12lts_2022062319functional_internal12InvokeObjectIZNS0_13cord_internal12CordRepBtree10CreateSlowEPNS3_7CordRepEE3$_0vJS6_mmEEET0_NS1_7VoidPtrEDpNS1_8ForwardTIT1_E4typeE', symObjAddr: 0x5B04, symBinAddr: 0x1CA88, symSize: 0x100 }
  - { offsetInCU: 0x3EEE, offset: 0xB322E, size: 0x8, addend: 0x0, symName: '__ZN4absl12lts_2022062319functional_internal12InvokeObjectIZNS0_13cord_internal12CordRepBtree10AppendSlowEPS4_PNS3_7CordRepEE3$_1vJS7_mmEEET0_NS1_7VoidPtrEDpNS1_8ForwardTIT1_E4typeE', symObjAddr: 0x5C04, symBinAddr: 0x1CB88, symSize: 0x98 }
  - { offsetInCU: 0x40AF, offset: 0xB33EF, size: 0x8, addend: 0x0, symName: '__ZN4absl12lts_2022062319functional_internal12InvokeObjectIZNS0_13cord_internal12CordRepBtree11PrependSlowEPS4_PNS3_7CordRepEE3$_2vJS7_mmEEET0_NS1_7VoidPtrEDpNS1_8ForwardTIT1_E4typeE', symObjAddr: 0x5C9C, symBinAddr: 0x1CC20, symSize: 0x98 }
  - { offsetInCU: 0x7BB1, offset: 0xB6EF1, size: 0x8, addend: 0x0, symName: __ZN4absl12lts_2022062313cord_internal12CordRepBtree10CreateSlowEPNS1_7CordRepE, symObjAddr: 0x4960, symBinAddr: 0x1BF40, symSize: 0x40 }
  - { offsetInCU: 0x7C6D, offset: 0xB6FAD, size: 0x8, addend: 0x0, symName: __ZN4absl12lts_2022062313cord_internal12CordRepBtree10AppendSlowEPS2_PNS1_7CordRepE, symObjAddr: 0x49A0, symBinAddr: 0x1BF80, symSize: 0x5C }
  - { offsetInCU: 0x7D30, offset: 0xB7070, size: 0x8, addend: 0x0, symName: __ZN4absl12lts_2022062313cord_internal12CordRepBtree11PrependSlowEPS2_PNS1_7CordRepE, symObjAddr: 0x49FC, symBinAddr: 0x1BFDC, symSize: 0x60 }
  - { offsetInCU: 0x9DEA, offset: 0xB912A, size: 0x8, addend: 0x0, symName: __ZN4absl12lts_2022062313cord_internal12CordRepBtree10AddCordRepILNS2_8EdgeTypeE0EEEPS2_S5_PNS1_7CordRepE, symObjAddr: 0x0, symBinAddr: 0x17704, symSize: 0x1F0 }
  - { offsetInCU: 0xA15C, offset: 0xB949C, size: 0x8, addend: 0x0, symName: __ZN4absl12lts_2022062313cord_internal12CordRepBtree10AddCordRepILNS2_8EdgeTypeE0EEEPS2_S5_PNS1_7CordRepE.cold.2, symObjAddr: 0x5FAC, symBinAddr: 0x509B8, symSize: 0x24 }
  - { offsetInCU: 0xA19F, offset: 0xB94DF, size: 0x8, addend: 0x0, symName: __ZN4absl12lts_2022062313cord_internal12CordRepBtree10AddCordRepILNS2_8EdgeTypeE0EEEPS2_S5_PNS1_7CordRepE.cold.1, symObjAddr: 0x5F88, symBinAddr: 0x50994, symSize: 0x24 }
  - { offsetInCU: 0xA1E2, offset: 0xB9522, size: 0x8, addend: 0x0, symName: __ZN4absl12lts_2022062313cord_internal12CordRepBtree7AddEdgeILNS2_8EdgeTypeE0EEENS2_8OpResultEbPNS1_7CordRepEm, symObjAddr: 0x1F0, symBinAddr: 0x178F4, symSize: 0x194 }
  - { offsetInCU: 0xA8BF, offset: 0xB9BFF, size: 0x8, addend: 0x0, symName: __ZN4absl12lts_2022062313cord_internal12CordRepBtree10AddCordRepILNS2_8EdgeTypeE1EEEPS2_S5_PNS1_7CordRepE, symObjAddr: 0x384, symBinAddr: 0x17A88, symSize: 0x1F0 }
  - { offsetInCU: 0xA8D4, offset: 0xB9C14, size: 0x8, addend: 0x0, symName: __ZN4absl12lts_2022062313cord_internal12CordRepBtree7SetEdgeILNS2_8EdgeTypeE0EEENS2_8OpResultEbPNS1_7CordRepEm, symObjAddr: 0x5D34, symBinAddr: 0x1CCB8, symSize: 0x124 }
  - { offsetInCU: 0xACF5, offset: 0xBA035, size: 0x8, addend: 0x0, symName: __ZN4absl12lts_2022062313cord_internal12CordRepBtree7SetEdgeILNS2_8EdgeTypeE1EEENS2_8OpResultEbPNS1_7CordRepEm, symObjAddr: 0x5E58, symBinAddr: 0x1CDDC, symSize: 0x130 }
  - { offsetInCU: 0xAD0A, offset: 0xBA04A, size: 0x8, addend: 0x0, symName: __ZN4absl12lts_2022062313cord_internal12_GLOBAL__N_115StackOperationsILNS1_12CordRepBtree8EdgeTypeE0EE8FinalizeEPS4_NS4_8OpResultE, symObjAddr: 0x59D8, symBinAddr: 0x1C95C, symSize: 0x12C }
  - { offsetInCU: 0xB4A5, offset: 0xBA7E5, size: 0x8, addend: 0x0, symName: __ZN4absl12lts_2022062313cord_internal12CordRepBtree7AddEdgeILNS2_8EdgeTypeE0EEENS2_8OpResultEbPNS1_7CordRepEm.cold.1, symObjAddr: 0x5FD0, symBinAddr: 0x509DC, symSize: 0x24 }
  - { offsetInCU: 0xB5F0, offset: 0xBA930, size: 0x8, addend: 0x0, symName: __ZN4absl12lts_2022062313cord_internal12CordRepBtree10AddCordRepILNS2_8EdgeTypeE1EEEPS2_S5_PNS1_7CordRepE, symObjAddr: 0x384, symBinAddr: 0x17A88, symSize: 0x1F0 }
  - { offsetInCU: 0xB962, offset: 0xBACA2, size: 0x8, addend: 0x0, symName: __ZN4absl12lts_2022062313cord_internal12CordRepBtree10AddCordRepILNS2_8EdgeTypeE1EEEPS2_S5_PNS1_7CordRepE.cold.2, symObjAddr: 0x6018, symBinAddr: 0x50A24, symSize: 0x24 }
  - { offsetInCU: 0xB9A5, offset: 0xBACE5, size: 0x8, addend: 0x0, symName: __ZN4absl12lts_2022062313cord_internal12CordRepBtree10AddCordRepILNS2_8EdgeTypeE1EEEPS2_S5_PNS1_7CordRepE.cold.1, symObjAddr: 0x5FF4, symBinAddr: 0x50A00, symSize: 0x24 }
  - { offsetInCU: 0xB9E8, offset: 0xBAD28, size: 0x8, addend: 0x0, symName: __ZN4absl12lts_2022062313cord_internal12CordRepBtree7AddEdgeILNS2_8EdgeTypeE1EEENS2_8OpResultEbPNS1_7CordRepEm, symObjAddr: 0x574, symBinAddr: 0x17C78, symSize: 0x18C }
  - { offsetInCU: 0xC0A7, offset: 0xBB3E7, size: 0x8, addend: 0x0, symName: __ZN4absl12lts_2022062313cord_internal12CordRepBtree7AddDataILNS2_8EdgeTypeE0EEEPS2_S5_NS0_11string_viewEm, symObjAddr: 0x700, symBinAddr: 0x17E04, symSize: 0x69C }
  - { offsetInCU: 0xC0B2, offset: 0xBB3F2, size: 0x8, addend: 0x0, symName: __ZN4absl12lts_2022062313cord_internal12CordRepBtree7SetEdgeILNS2_8EdgeTypeE1EEENS2_8OpResultEbPNS1_7CordRepEm, symObjAddr: 0x5E58, symBinAddr: 0x1CDDC, symSize: 0x130 }
  - { offsetInCU: 0xC4E0, offset: 0xBB820, size: 0x8, addend: 0x0, symName: __ZN4absl12lts_2022062313cord_internal12CordRepBtree10AddCordRepILNS2_8EdgeTypeE0EEEPS2_S5_PNS1_7CordRepE.cold.1, symObjAddr: 0x5F88, symBinAddr: 0x50994, symSize: 0x24 }
  - { offsetInCU: 0xC4F5, offset: 0xBB835, size: 0x8, addend: 0x0, symName: __ZN4absl12lts_2022062313cord_internal12_GLOBAL__N_115StackOperationsILNS1_12CordRepBtree8EdgeTypeE1EE8FinalizeEPS4_NS4_8OpResultE, symObjAddr: 0x58AC, symBinAddr: 0x1C830, symSize: 0x12C }
  - { offsetInCU: 0xC8F0, offset: 0xBBC30, size: 0x8, addend: 0x0, symName: __ZN4absl12lts_2022062313cord_internal12CordRepBtree7AddEdgeILNS2_8EdgeTypeE1EEENS2_8OpResultEbPNS1_7CordRepEm.cold.2, symObjAddr: 0x6064, symBinAddr: 0x50A70, symSize: 0x24 }
  - { offsetInCU: 0xC94A, offset: 0xBBC8A, size: 0x8, addend: 0x0, symName: __ZN4absl12lts_2022062313cord_internal12CordRepBtree7AddEdgeILNS2_8EdgeTypeE1EEENS2_8OpResultEbPNS1_7CordRepEm.cold.1, symObjAddr: 0x603C, symBinAddr: 0x50A48, symSize: 0x28 }
  - { offsetInCU: 0xCA76, offset: 0xBBDB6, size: 0x8, addend: 0x0, symName: __ZN4absl12lts_2022062313cord_internal12CordRepBtree7AddDataILNS2_8EdgeTypeE0EEEPS2_S5_NS0_11string_viewEm, symObjAddr: 0x700, symBinAddr: 0x17E04, symSize: 0x69C }
  - { offsetInCU: 0xD4B5, offset: 0xBC7F5, size: 0x8, addend: 0x0, symName: __ZN4absl12lts_2022062313cord_internal12CordRepBtree7AddDataILNS2_8EdgeTypeE0EEENS0_11string_viewES5_m, symObjAddr: 0xD9C, symBinAddr: 0x184A0, symSize: 0x164 }
  - { offsetInCU: 0xD4CA, offset: 0xBC80A, size: 0x8, addend: 0x0, symName: __ZN4absl12lts_2022062313cord_internal12CordRepBtree7AddDataILNS2_8EdgeTypeE0EEEPS2_S5_NS0_11string_viewEm.cold.9, symObjAddr: 0x61BC, symBinAddr: 0x50BC8, symSize: 0x24 }
  - { offsetInCU: 0xD50D, offset: 0xBC84D, size: 0x8, addend: 0x0, symName: __ZN4absl12lts_2022062313cord_internal12CordRepBtree7AddDataILNS2_8EdgeTypeE0EEEPS2_S5_NS0_11string_viewEm.cold.8, symObjAddr: 0x6198, symBinAddr: 0x50BA4, symSize: 0x24 }
  - { offsetInCU: 0xD550, offset: 0xBC890, size: 0x8, addend: 0x0, symName: __ZN4absl12lts_2022062313cord_internal12CordRepBtree7AddDataILNS2_8EdgeTypeE0EEENS0_11string_viewES5_m, symObjAddr: 0xD9C, symBinAddr: 0x184A0, symSize: 0x164 }
  - { offsetInCU: 0xD810, offset: 0xBCB50, size: 0x8, addend: 0x0, symName: __ZN4absl12lts_2022062313cord_internal12CordRepBtree7NewLeafILNS2_8EdgeTypeE0EEEPS2_NS0_11string_viewEm, symObjAddr: 0xF00, symBinAddr: 0x18604, symSize: 0x128 }
  - { offsetInCU: 0xD825, offset: 0xBCB65, size: 0x8, addend: 0x0, symName: __ZN4absl12lts_2022062313cord_internal12CordRepBtree7NewLeafILNS2_8EdgeTypeE0EEEPS2_NS0_11string_viewEm, symObjAddr: 0xF00, symBinAddr: 0x18604, symSize: 0x128 }
  - { offsetInCU: 0xDC87, offset: 0xBCFC7, size: 0x8, addend: 0x0, symName: __ZNK4absl12lts_2022062313cord_internal12CordRepBtree12GetCharacterEm, symObjAddr: 0x46C4, symBinAddr: 0x1BCA4, symSize: 0xF8 }
  - { offsetInCU: 0xDC92, offset: 0xBCFD2, size: 0x8, addend: 0x0, symName: __ZN4absl12lts_2022062313cord_internal12CordRepBtree7AddDataILNS2_8EdgeTypeE0EEEPS2_S5_NS0_11string_viewEm.cold.4, symObjAddr: 0x60FC, symBinAddr: 0x50B08, symSize: 0x28 }
  - { offsetInCU: 0xDCC0, offset: 0xBD000, size: 0x8, addend: 0x0, symName: __ZN4absl12lts_2022062313cord_internal12CordRepBtree7AddDataILNS2_8EdgeTypeE0EEEPS2_S5_NS0_11string_viewEm.cold.3, symObjAddr: 0x60D8, symBinAddr: 0x50AE4, symSize: 0x24 }
  - { offsetInCU: 0xDD04, offset: 0xBD044, size: 0x8, addend: 0x0, symName: __ZN4absl12lts_2022062313cord_internal12CordRepBtree7AddDataILNS2_8EdgeTypeE0EEEPS2_S5_NS0_11string_viewEm.cold.1, symObjAddr: 0x6088, symBinAddr: 0x50A94, symSize: 0x28 }
  - { offsetInCU: 0xDD32, offset: 0xBD072, size: 0x8, addend: 0x0, symName: __ZN4absl12lts_2022062313cord_internal12CordRepBtree7AddDataILNS2_8EdgeTypeE0EEEPS2_S5_NS0_11string_viewEm.cold.2, symObjAddr: 0x60B0, symBinAddr: 0x50ABC, symSize: 0x28 }
  - { offsetInCU: 0xDD60, offset: 0xBD0A0, size: 0x8, addend: 0x0, symName: __ZN4absl12lts_2022062313cord_internal12CordRepBtree7AddDataILNS2_8EdgeTypeE0EEEPS2_S5_NS0_11string_viewEm.cold.7, symObjAddr: 0x6174, symBinAddr: 0x50B80, symSize: 0x24 }
  - { offsetInCU: 0xDDBA, offset: 0xBD0FA, size: 0x8, addend: 0x0, symName: __ZN4absl12lts_2022062313cord_internal12CordRepBtree7AddDataILNS2_8EdgeTypeE0EEEPS2_S5_NS0_11string_viewEm.cold.5, symObjAddr: 0x6124, symBinAddr: 0x50B30, symSize: 0x28 }
  - { offsetInCU: 0xDDD2, offset: 0xBD112, size: 0x8, addend: 0x0, symName: __ZN4absl12lts_2022062313cord_internal12CordRepBtree7AddDataILNS2_8EdgeTypeE0EEEPS2_S5_NS0_11string_viewEm.cold.6, symObjAddr: 0x614C, symBinAddr: 0x50B58, symSize: 0x28 }
  - { offsetInCU: 0xDFD4, offset: 0xBD314, size: 0x8, addend: 0x0, symName: __ZN4absl12lts_2022062313cord_internal12_GLOBAL__N_115CreateSubstringEPNS1_7CordRepEmm, symObjAddr: 0x57B8, symBinAddr: 0x1C73C, symSize: 0xF4 }
  - { offsetInCU: 0xDFF0, offset: 0xBD330, size: 0x8, addend: 0x0, symName: __ZN4absl12lts_2022062313cord_internal12CordRepBtree7AddDataILNS2_8EdgeTypeE0EEENS0_11string_viewES5_m.cold.1, symObjAddr: 0x61E0, symBinAddr: 0x50BEC, symSize: 0x28 }
  - { offsetInCU: 0xE008, offset: 0xBD348, size: 0x8, addend: 0x0, symName: __ZN4absl12lts_2022062313cord_internal12CordRepBtree7AddDataILNS2_8EdgeTypeE0EEENS0_11string_viewES5_m.cold.2, symObjAddr: 0x6208, symBinAddr: 0x50C14, symSize: 0x28 }
  - { offsetInCU: 0xE12A, offset: 0xBD46A, size: 0x8, addend: 0x0, symName: __ZN4absl12lts_2022062313cord_internal12CordRepBtree7AddDataILNS2_8EdgeTypeE1EEEPS2_S5_NS0_11string_viewEm, symObjAddr: 0x1028, symBinAddr: 0x1872C, symSize: 0x6AC }
  - { offsetInCU: 0xEB6C, offset: 0xBDEAC, size: 0x8, addend: 0x0, symName: __ZN4absl12lts_2022062313cord_internal12CordRepBtree7AddDataILNS2_8EdgeTypeE1EEENS0_11string_viewES5_m, symObjAddr: 0x16D4, symBinAddr: 0x18DD8, symSize: 0x154 }
  - { offsetInCU: 0xEB81, offset: 0xBDEC1, size: 0x8, addend: 0x0, symName: __ZN4absl12lts_2022062313cord_internal12CordRepBtree7AddDataILNS2_8EdgeTypeE1EEEPS2_S5_NS0_11string_viewEm.cold.9, symObjAddr: 0x6364, symBinAddr: 0x50D70, symSize: 0x24 }
  - { offsetInCU: 0xEBC4, offset: 0xBDF04, size: 0x8, addend: 0x0, symName: __ZN4absl12lts_2022062313cord_internal12CordRepBtree7AddDataILNS2_8EdgeTypeE1EEEPS2_S5_NS0_11string_viewEm.cold.8, symObjAddr: 0x6340, symBinAddr: 0x50D4C, symSize: 0x24 }
  - { offsetInCU: 0xEC07, offset: 0xBDF47, size: 0x8, addend: 0x0, symName: __ZN4absl12lts_2022062313cord_internal12CordRepBtree7AddDataILNS2_8EdgeTypeE1EEENS0_11string_viewES5_m, symObjAddr: 0x16D4, symBinAddr: 0x18DD8, symSize: 0x154 }
  - { offsetInCU: 0xEEC8, offset: 0xBE208, size: 0x8, addend: 0x0, symName: __ZN4absl12lts_2022062313cord_internal12CordRepBtree7NewLeafILNS2_8EdgeTypeE1EEEPS2_NS0_11string_viewEm, symObjAddr: 0x1828, symBinAddr: 0x18F2C, symSize: 0x130 }
  - { offsetInCU: 0xF248, offset: 0xBE588, size: 0x8, addend: 0x0, symName: __ZN4absl12lts_2022062313cord_internal12CordRepBtree7AddDataILNS2_8EdgeTypeE1EEEPS2_S5_NS0_11string_viewEm.cold.4, symObjAddr: 0x62A4, symBinAddr: 0x50CB0, symSize: 0x28 }
  - { offsetInCU: 0xF276, offset: 0xBE5B6, size: 0x8, addend: 0x0, symName: __ZN4absl12lts_2022062313cord_internal12CordRepBtree7AddDataILNS2_8EdgeTypeE1EEEPS2_S5_NS0_11string_viewEm.cold.3, symObjAddr: 0x6280, symBinAddr: 0x50C8C, symSize: 0x24 }
  - { offsetInCU: 0xF2BA, offset: 0xBE5FA, size: 0x8, addend: 0x0, symName: __ZN4absl12lts_2022062313cord_internal12CordRepBtree7AddDataILNS2_8EdgeTypeE1EEEPS2_S5_NS0_11string_viewEm.cold.1, symObjAddr: 0x6230, symBinAddr: 0x50C3C, symSize: 0x28 }
  - { offsetInCU: 0xF2E8, offset: 0xBE628, size: 0x8, addend: 0x0, symName: __ZN4absl12lts_2022062313cord_internal12CordRepBtree7AddDataILNS2_8EdgeTypeE1EEEPS2_S5_NS0_11string_viewEm.cold.2, symObjAddr: 0x6258, symBinAddr: 0x50C64, symSize: 0x28 }
  - { offsetInCU: 0xF316, offset: 0xBE656, size: 0x8, addend: 0x0, symName: __ZN4absl12lts_2022062313cord_internal12CordRepBtree7AddDataILNS2_8EdgeTypeE1EEEPS2_S5_NS0_11string_viewEm.cold.7, symObjAddr: 0x631C, symBinAddr: 0x50D28, symSize: 0x24 }
  - { offsetInCU: 0xF370, offset: 0xBE6B0, size: 0x8, addend: 0x0, symName: __ZN4absl12lts_2022062313cord_internal12CordRepBtree7AddDataILNS2_8EdgeTypeE1EEEPS2_S5_NS0_11string_viewEm.cold.5, symObjAddr: 0x62CC, symBinAddr: 0x50CD8, symSize: 0x28 }
  - { offsetInCU: 0xF388, offset: 0xBE6C8, size: 0x8, addend: 0x0, symName: __ZN4absl12lts_2022062313cord_internal12CordRepBtree7AddDataILNS2_8EdgeTypeE1EEEPS2_S5_NS0_11string_viewEm.cold.6, symObjAddr: 0x62F4, symBinAddr: 0x50D00, symSize: 0x28 }
  - { offsetInCU: 0xF3CC, offset: 0xBE70C, size: 0x8, addend: 0x0, symName: __ZN4absl12lts_2022062313cord_internal12CordRepBtree7AddDataILNS2_8EdgeTypeE1EEENS0_11string_viewES5_m.cold.1, symObjAddr: 0x6388, symBinAddr: 0x50D94, symSize: 0x28 }
  - { offsetInCU: 0xF3E4, offset: 0xBE724, size: 0x8, addend: 0x0, symName: __ZN4absl12lts_2022062313cord_internal12CordRepBtree7AddDataILNS2_8EdgeTypeE1EEENS0_11string_viewES5_m.cold.2, symObjAddr: 0x63B0, symBinAddr: 0x50DBC, symSize: 0x28 }
  - { offsetInCU: 0xF402, offset: 0xBE742, size: 0x8, addend: 0x0, symName: __ZN4absl12lts_2022062313cord_internal12CordRepBtree4DumpEPKNS1_7CordRepENS0_11string_viewEbRNSt3__113basic_ostreamIcNS7_11char_traitsIcEEEE, symObjAddr: 0x1958, symBinAddr: 0x1905C, symSize: 0xC4 }
  - { offsetInCU: 0xFC51, offset: 0xBEF91, size: 0x8, addend: 0x0, symName: __ZN4absl12lts_2022062313cord_internal12_GLOBAL__N_17DumpAllEPKNS1_7CordRepEbRNSt3__113basic_ostreamIcNS6_11char_traitsIcEEEEi.cold.1, symObjAddr: 0x63D8, symBinAddr: 0x50DE4, symSize: 0x28 }
  - { offsetInCU: 0xFC69, offset: 0xBEFA9, size: 0x8, addend: 0x0, symName: __ZN4absl12lts_2022062313cord_internal12CordRepBtree4DumpEPKNS1_7CordRepENS0_11string_viewERNSt3__113basic_ostreamIcNS7_11char_traitsIcEEEE, symObjAddr: 0x2080, symBinAddr: 0x19784, symSize: 0xC }
  - { offsetInCU: 0xFCDB, offset: 0xBF01B, size: 0x8, addend: 0x0, symName: __ZN4absl12lts_2022062313cord_internal12CordRepBtree4DumpEPKNS1_7CordRepERNSt3__113basic_ostreamIcNS6_11char_traitsIcEEEE, symObjAddr: 0x208C, symBinAddr: 0x19790, symSize: 0x14 }
  - { offsetInCU: 0xFD9D, offset: 0xBF0DD, size: 0x8, addend: 0x0, symName: __ZN4absl12lts_2022062313cord_internal12CordRepBtree7DestroyEPS2_, symObjAddr: 0x20A0, symBinAddr: 0x197A4, symSize: 0x2E8 }
  - { offsetInCU: 0x105DD, offset: 0xBF91D, size: 0x8, addend: 0x0, symName: __ZN4absl12lts_2022062313cord_internal12_GLOBAL__N_114DeleteLeafEdgeEPNS1_7CordRepE, symObjAddr: 0x2388, symBinAddr: 0x19A8C, symSize: 0x11C }
  - { offsetInCU: 0x105E8, offset: 0xBF928, size: 0x8, addend: 0x0, symName: __ZN4absl12lts_2022062313cord_internal12CordRepBtree7DestroyEPS2_.cold.8, symObjAddr: 0x64FC, symBinAddr: 0x50F08, symSize: 0x24 }
  - { offsetInCU: 0x1062C, offset: 0xBF96C, size: 0x8, addend: 0x0, symName: __ZN4absl12lts_2022062313cord_internal12CordRepBtree7DestroyEPS2_.cold.2, symObjAddr: 0x6424, symBinAddr: 0x50E30, symSize: 0x24 }
  - { offsetInCU: 0x10670, offset: 0xBF9B0, size: 0x8, addend: 0x0, symName: __ZN4absl12lts_2022062313cord_internal12CordRepBtree7DestroyEPS2_.cold.4, symObjAddr: 0x646C, symBinAddr: 0x50E78, symSize: 0x24 }
  - { offsetInCU: 0x106B4, offset: 0xBF9F4, size: 0x8, addend: 0x0, symName: __ZN4absl12lts_2022062313cord_internal12CordRepBtree7DestroyEPS2_.cold.6, symObjAddr: 0x64B4, symBinAddr: 0x50EC0, symSize: 0x24 }
  - { offsetInCU: 0x106E2, offset: 0xBFA22, size: 0x8, addend: 0x0, symName: __ZN4absl12lts_2022062313cord_internal12CordRepBtree7DestroyEPS2_.cold.7, symObjAddr: 0x64D8, symBinAddr: 0x50EE4, symSize: 0x24 }
  - { offsetInCU: 0x10726, offset: 0xBFA66, size: 0x8, addend: 0x0, symName: __ZN4absl12lts_2022062313cord_internal12CordRepBtree7DestroyEPS2_.cold.1, symObjAddr: 0x6400, symBinAddr: 0x50E0C, symSize: 0x24 }
  - { offsetInCU: 0x1076A, offset: 0xBFAAA, size: 0x8, addend: 0x0, symName: __ZN4absl12lts_2022062313cord_internal12CordRepBtree7DestroyEPS2_.cold.10, symObjAddr: 0x6544, symBinAddr: 0x50F50, symSize: 0x24 }
  - { offsetInCU: 0x107AE, offset: 0xBFAEE, size: 0x8, addend: 0x0, symName: __ZN4absl12lts_2022062313cord_internal12CordRepBtree7DestroyEPS2_.cold.5, symObjAddr: 0x6490, symBinAddr: 0x50E9C, symSize: 0x24 }
  - { offsetInCU: 0x107F2, offset: 0xBFB32, size: 0x8, addend: 0x0, symName: __ZN4absl12lts_2022062313cord_internal12CordRepBtree7DestroyEPS2_.cold.9, symObjAddr: 0x6520, symBinAddr: 0x50F2C, symSize: 0x24 }
  - { offsetInCU: 0x10836, offset: 0xBFB76, size: 0x8, addend: 0x0, symName: __ZN4absl12lts_2022062313cord_internal12CordRepBtree7DestroyEPS2_.cold.3, symObjAddr: 0x6448, symBinAddr: 0x50E54, symSize: 0x24 }
  - { offsetInCU: 0x108E0, offset: 0xBFC20, size: 0x8, addend: 0x0, symName: __ZN4absl12lts_2022062313cord_internal12_GLOBAL__N_114DeleteLeafEdgeEPNS1_7CordRepE.cold.1, symObjAddr: 0x6568, symBinAddr: 0x50F74, symSize: 0x28 }
  - { offsetInCU: 0x1090D, offset: 0xBFC4D, size: 0x8, addend: 0x0, symName: __ZN4absl12lts_2022062313cord_internal12_GLOBAL__N_114DeleteLeafEdgeEPNS1_7CordRepE.cold.8, symObjAddr: 0x6674, symBinAddr: 0x51080, symSize: 0x28 }
  - { offsetInCU: 0x10925, offset: 0xBFC65, size: 0x8, addend: 0x0, symName: __ZN4absl12lts_2022062313cord_internal12_GLOBAL__N_114DeleteLeafEdgeEPNS1_7CordRepE.cold.4, symObjAddr: 0x65DC, symBinAddr: 0x50FE8, symSize: 0x24 }
  - { offsetInCU: 0x10967, offset: 0xBFCA7, size: 0x8, addend: 0x0, symName: __ZN4absl12lts_2022062313cord_internal12_GLOBAL__N_114DeleteLeafEdgeEPNS1_7CordRepE.cold.2, symObjAddr: 0x6590, symBinAddr: 0x50F9C, symSize: 0x28 }
  - { offsetInCU: 0x10994, offset: 0xBFCD4, size: 0x8, addend: 0x0, symName: __ZN4absl12lts_2022062313cord_internal12_GLOBAL__N_114DeleteLeafEdgeEPNS1_7CordRepE.cold.3, symObjAddr: 0x65B8, symBinAddr: 0x50FC4, symSize: 0x24 }
  - { offsetInCU: 0x109C1, offset: 0xBFD01, size: 0x8, addend: 0x0, symName: __ZN4absl12lts_2022062313cord_internal12_GLOBAL__N_114DeleteLeafEdgeEPNS1_7CordRepE.cold.5, symObjAddr: 0x6600, symBinAddr: 0x5100C, symSize: 0x24 }
  - { offsetInCU: 0x10A03, offset: 0xBFD43, size: 0x8, addend: 0x0, symName: __ZN4absl12lts_2022062313cord_internal12_GLOBAL__N_114DeleteLeafEdgeEPNS1_7CordRepE.cold.7, symObjAddr: 0x664C, symBinAddr: 0x51058, symSize: 0x28 }
  - { offsetInCU: 0x10A30, offset: 0xBFD70, size: 0x8, addend: 0x0, symName: __ZN4absl12lts_2022062313cord_internal12_GLOBAL__N_114DeleteLeafEdgeEPNS1_7CordRepE.cold.6, symObjAddr: 0x6624, symBinAddr: 0x51030, symSize: 0x28 }
  - { offsetInCU: 0x10B4A, offset: 0xBFE8A, size: 0x8, addend: 0x0, symName: __ZN4absl12lts_2022062313cord_internal12CordRepBtree7IsValidEPKS2_b, symObjAddr: 0x24A4, symBinAddr: 0x19BA8, symSize: 0x40C }
  - { offsetInCU: 0x11950, offset: 0xC0C90, size: 0x8, addend: 0x0, symName: __ZN4absl12lts_2022062313cord_internal12CordRepBtree7IsValidEPKS2_b.cold.1, symObjAddr: 0x669C, symBinAddr: 0x510A8, symSize: 0x24 }
  - { offsetInCU: 0x1197E, offset: 0xC0CBE, size: 0x8, addend: 0x0, symName: __ZN4absl12lts_2022062313cord_internal12CordRepBtree11AssertValidEPS2_b, symObjAddr: 0x28B0, symBinAddr: 0x19FB4, symSize: 0x64 }
  - { offsetInCU: 0x11A24, offset: 0xC0D64, size: 0x8, addend: 0x0, symName: __ZN4absl12lts_2022062313cord_internal12CordRepBtree11AssertValidEPKS2_b, symObjAddr: 0x2914, symBinAddr: 0x1A018, symSize: 0x64 }
  - { offsetInCU: 0x11B94, offset: 0xC0ED4, size: 0x8, addend: 0x0, symName: __ZN4absl12lts_2022062313cord_internal12CordRepBtree10CopySuffixEm, symObjAddr: 0x2978, symBinAddr: 0x1A07C, symSize: 0x348 }
  - { offsetInCU: 0x1275A, offset: 0xC1A9A, size: 0x8, addend: 0x0, symName: __ZN4absl12lts_2022062313cord_internal12CordRepBtree10CopyPrefixEmb, symObjAddr: 0x2CC0, symBinAddr: 0x1A3C4, symSize: 0x3D8 }
  - { offsetInCU: 0x12765, offset: 0xC1AA5, size: 0x8, addend: 0x0, symName: __ZN4absl12lts_2022062313cord_internal12CordRepBtree10CopySuffixEm.cold.6, symObjAddr: 0x6784, symBinAddr: 0x51190, symSize: 0x24 }
  - { offsetInCU: 0x127A9, offset: 0xC1AE9, size: 0x8, addend: 0x0, symName: __ZN4absl12lts_2022062313cord_internal12CordRepBtree10CopySuffixEm.cold.11, symObjAddr: 0x683C, symBinAddr: 0x51248, symSize: 0x24 }
  - { offsetInCU: 0x127D7, offset: 0xC1B17, size: 0x8, addend: 0x0, symName: __ZN4absl12lts_2022062313cord_internal12CordRepBtree10CopySuffixEm.cold.10, symObjAddr: 0x6818, symBinAddr: 0x51224, symSize: 0x24 }
  - { offsetInCU: 0x1281B, offset: 0xC1B5B, size: 0x8, addend: 0x0, symName: __ZN4absl12lts_2022062313cord_internal12CordRepBtree10CopySuffixEm.cold.3, symObjAddr: 0x6710, symBinAddr: 0x5111C, symSize: 0x28 }
  - { offsetInCU: 0x12833, offset: 0xC1B73, size: 0x8, addend: 0x0, symName: __ZN4absl12lts_2022062313cord_internal12CordRepBtree10CopySuffixEm.cold.4, symObjAddr: 0x6738, symBinAddr: 0x51144, symSize: 0x24 }
  - { offsetInCU: 0x12861, offset: 0xC1BA1, size: 0x8, addend: 0x0, symName: __ZN4absl12lts_2022062313cord_internal12CordRepBtree10CopySuffixEm.cold.9, symObjAddr: 0x67F4, symBinAddr: 0x51200, symSize: 0x24 }
  - { offsetInCU: 0x1288F, offset: 0xC1BCF, size: 0x8, addend: 0x0, symName: __ZN4absl12lts_2022062313cord_internal12CordRepBtree10CopySuffixEm.cold.8, symObjAddr: 0x67D0, symBinAddr: 0x511DC, symSize: 0x24 }
  - { offsetInCU: 0x128BD, offset: 0xC1BFD, size: 0x8, addend: 0x0, symName: __ZN4absl12lts_2022062313cord_internal12CordRepBtree10CopySuffixEm.cold.5, symObjAddr: 0x675C, symBinAddr: 0x51168, symSize: 0x28 }
  - { offsetInCU: 0x128EB, offset: 0xC1C2B, size: 0x8, addend: 0x0, symName: __ZN4absl12lts_2022062313cord_internal12CordRepBtree10CopySuffixEm.cold.7, symObjAddr: 0x67A8, symBinAddr: 0x511B4, symSize: 0x28 }
  - { offsetInCU: 0x12919, offset: 0xC1C59, size: 0x8, addend: 0x0, symName: __ZN4absl12lts_2022062313cord_internal12CordRepBtree10CopySuffixEm.cold.12, symObjAddr: 0x6860, symBinAddr: 0x5126C, symSize: 0x28 }
  - { offsetInCU: 0x12931, offset: 0xC1C71, size: 0x8, addend: 0x0, symName: __ZN4absl12lts_2022062313cord_internal12CordRepBtree10CopySuffixEm.cold.1, symObjAddr: 0x66C0, symBinAddr: 0x510CC, symSize: 0x28 }
  - { offsetInCU: 0x1295F, offset: 0xC1C9F, size: 0x8, addend: 0x0, symName: __ZN4absl12lts_2022062313cord_internal12CordRepBtree10CopySuffixEm.cold.2, symObjAddr: 0x66E8, symBinAddr: 0x510F4, symSize: 0x28 }
  - { offsetInCU: 0x12A27, offset: 0xC1D67, size: 0x8, addend: 0x0, symName: __ZN4absl12lts_2022062313cord_internal12CordRepBtree10CopyPrefixEmb, symObjAddr: 0x2CC0, symBinAddr: 0x1A3C4, symSize: 0x3D8 }
  - { offsetInCU: 0x13640, offset: 0xC2980, size: 0x8, addend: 0x0, symName: __ZN4absl12lts_2022062313cord_internal12CordRepBtree12ExtractFrontEPS2_, symObjAddr: 0x3098, symBinAddr: 0x1A79C, symSize: 0x140 }
  - { offsetInCU: 0x1364B, offset: 0xC298B, size: 0x8, addend: 0x0, symName: __ZN4absl12lts_2022062313cord_internal12CordRepBtree10CopyPrefixEmb.cold.5, symObjAddr: 0x6920, symBinAddr: 0x5132C, symSize: 0x24 }
  - { offsetInCU: 0x13679, offset: 0xC29B9, size: 0x8, addend: 0x0, symName: __ZN4absl12lts_2022062313cord_internal12CordRepBtree10CopyPrefixEmb.cold.11, symObjAddr: 0x69F8, symBinAddr: 0x51404, symSize: 0x24 }
  - { offsetInCU: 0x136BD, offset: 0xC29FD, size: 0x8, addend: 0x0, symName: __ZN4absl12lts_2022062313cord_internal12CordRepBtree10CopyPrefixEmb.cold.15, symObjAddr: 0x6A88, symBinAddr: 0x51494, symSize: 0x24 }
  - { offsetInCU: 0x13701, offset: 0xC2A41, size: 0x8, addend: 0x0, symName: __ZN4absl12lts_2022062313cord_internal12CordRepBtree10CopyPrefixEmb.cold.6, symObjAddr: 0x6944, symBinAddr: 0x51350, symSize: 0x24 }
  - { offsetInCU: 0x1372F, offset: 0xC2A6F, size: 0x8, addend: 0x0, symName: __ZN4absl12lts_2022062313cord_internal12CordRepBtree10CopyPrefixEmb.cold.14, symObjAddr: 0x6A64, symBinAddr: 0x51470, symSize: 0x24 }
  - { offsetInCU: 0x1375D, offset: 0xC2A9D, size: 0x8, addend: 0x0, symName: __ZN4absl12lts_2022062313cord_internal12CordRepBtree10CopyPrefixEmb.cold.13, symObjAddr: 0x6A40, symBinAddr: 0x5144C, symSize: 0x24 }
  - { offsetInCU: 0x1378B, offset: 0xC2ACB, size: 0x8, addend: 0x0, symName: __ZN4absl12lts_2022062313cord_internal12CordRepBtree10CopyPrefixEmb.cold.12, symObjAddr: 0x6A1C, symBinAddr: 0x51428, symSize: 0x24 }
  - { offsetInCU: 0x137B9, offset: 0xC2AF9, size: 0x8, addend: 0x0, symName: __ZN4absl12lts_2022062313cord_internal12CordRepBtree10CopyPrefixEmb.cold.9, symObjAddr: 0x69B0, symBinAddr: 0x513BC, symSize: 0x24 }
  - { offsetInCU: 0x137E7, offset: 0xC2B27, size: 0x8, addend: 0x0, symName: __ZN4absl12lts_2022062313cord_internal12CordRepBtree10CopyPrefixEmb.cold.10, symObjAddr: 0x69D4, symBinAddr: 0x513E0, symSize: 0x24 }
  - { offsetInCU: 0x13815, offset: 0xC2B55, size: 0x8, addend: 0x0, symName: __ZN4absl12lts_2022062313cord_internal12CordRepBtree10CopyPrefixEmb.cold.17, symObjAddr: 0x6AD0, symBinAddr: 0x514DC, symSize: 0x24 }
  - { offsetInCU: 0x13843, offset: 0xC2B83, size: 0x8, addend: 0x0, symName: __ZN4absl12lts_2022062313cord_internal12CordRepBtree10CopyPrefixEmb.cold.1, symObjAddr: 0x6888, symBinAddr: 0x51294, symSize: 0x28 }
  - { offsetInCU: 0x1385B, offset: 0xC2B9B, size: 0x8, addend: 0x0, symName: __ZN4absl12lts_2022062313cord_internal12CordRepBtree10CopyPrefixEmb.cold.2, symObjAddr: 0x68B0, symBinAddr: 0x512BC, symSize: 0x28 }
  - { offsetInCU: 0x13873, offset: 0xC2BB3, size: 0x8, addend: 0x0, symName: __ZN4absl12lts_2022062313cord_internal12CordRepBtree10CopyPrefixEmb.cold.16, symObjAddr: 0x6AAC, symBinAddr: 0x514B8, symSize: 0x24 }
  - { offsetInCU: 0x138A1, offset: 0xC2BE1, size: 0x8, addend: 0x0, symName: __ZN4absl12lts_2022062313cord_internal12CordRepBtree10CopyPrefixEmb.cold.3, symObjAddr: 0x68D8, symBinAddr: 0x512E4, symSize: 0x24 }
  - { offsetInCU: 0x138CF, offset: 0xC2C0F, size: 0x8, addend: 0x0, symName: __ZN4absl12lts_2022062313cord_internal12CordRepBtree10CopyPrefixEmb.cold.4, symObjAddr: 0x68FC, symBinAddr: 0x51308, symSize: 0x24 }
  - { offsetInCU: 0x138FD, offset: 0xC2C3D, size: 0x8, addend: 0x0, symName: __ZN4absl12lts_2022062313cord_internal12CordRepBtree10CopyPrefixEmb.cold.7, symObjAddr: 0x6968, symBinAddr: 0x51374, symSize: 0x24 }
  - { offsetInCU: 0x1392B, offset: 0xC2C6B, size: 0x8, addend: 0x0, symName: __ZN4absl12lts_2022062313cord_internal12CordRepBtree10CopyPrefixEmb.cold.8, symObjAddr: 0x698C, symBinAddr: 0x51398, symSize: 0x24 }
  - { offsetInCU: 0x13A0A, offset: 0xC2D4A, size: 0x8, addend: 0x0, symName: __ZN4absl12lts_2022062313cord_internal12CordRepBtree12ExtractFrontEPS2_, symObjAddr: 0x3098, symBinAddr: 0x1A79C, symSize: 0x140 }
  - { offsetInCU: 0x13D70, offset: 0xC30B0, size: 0x8, addend: 0x0, symName: __ZN4absl12lts_2022062313cord_internal12CordRepBtree12ExtractFrontEPS2_.cold.1, symObjAddr: 0x6AF4, symBinAddr: 0x51500, symSize: 0x24 }
  - { offsetInCU: 0x13DB4, offset: 0xC30F4, size: 0x8, addend: 0x0, symName: __ZN4absl12lts_2022062313cord_internal12CordRepBtree12ExtractFrontEPS2_.cold.5, symObjAddr: 0x6B84, symBinAddr: 0x51590, symSize: 0x24 }
  - { offsetInCU: 0x13DE2, offset: 0xC3122, size: 0x8, addend: 0x0, symName: __ZN4absl12lts_2022062313cord_internal12CordRepBtree12ExtractFrontEPS2_.cold.2, symObjAddr: 0x6B18, symBinAddr: 0x51524, symSize: 0x24 }
  - { offsetInCU: 0x13E10, offset: 0xC3150, size: 0x8, addend: 0x0, symName: __ZN4absl12lts_2022062313cord_internal12CordRepBtree12ExtractFrontEPS2_.cold.3, symObjAddr: 0x6B3C, symBinAddr: 0x51548, symSize: 0x24 }
  - { offsetInCU: 0x13E3E, offset: 0xC317E, size: 0x8, addend: 0x0, symName: __ZN4absl12lts_2022062313cord_internal12CordRepBtree12ExtractFrontEPS2_.cold.4, symObjAddr: 0x6B60, symBinAddr: 0x5156C, symSize: 0x24 }
  - { offsetInCU: 0x13F16, offset: 0xC3256, size: 0x8, addend: 0x0, symName: __ZN4absl12lts_2022062313cord_internal12CordRepBtree14ConsumeBeginToEPS2_mm, symObjAddr: 0x3228, symBinAddr: 0x1A8DC, symSize: 0x1C8 }
  - { offsetInCU: 0x144CF, offset: 0xC380F, size: 0x8, addend: 0x0, symName: __ZN4absl12lts_2022062313cord_internal12CordRepBtree12RemoveSuffixEPS2_m, symObjAddr: 0x33F0, symBinAddr: 0x1AAA4, symSize: 0x2F4 }
  - { offsetInCU: 0x144DA, offset: 0xC381A, size: 0x8, addend: 0x0, symName: __ZN4absl12lts_2022062313cord_internal12CordRepBtree14ConsumeBeginToEPS2_mm.cold.8, symObjAddr: 0x6CF4, symBinAddr: 0x516B8, symSize: 0x24 }
  - { offsetInCU: 0x1451E, offset: 0xC385E, size: 0x8, addend: 0x0, symName: __ZN4absl12lts_2022062313cord_internal12CordRepBtree14ConsumeBeginToEPS2_mm.cold.4, symObjAddr: 0x6C64, symBinAddr: 0x51628, symSize: 0x24 }
  - { offsetInCU: 0x14562, offset: 0xC38A2, size: 0x8, addend: 0x0, symName: __ZN4absl12lts_2022062313cord_internal12CordRepBtree14ConsumeBeginToEPS2_mm.cold.1, symObjAddr: 0x6BF0, symBinAddr: 0x515B4, symSize: 0x28 }
  - { offsetInCU: 0x1457A, offset: 0xC38BA, size: 0x8, addend: 0x0, symName: __ZN4absl12lts_2022062313cord_internal12CordRepBtree14ConsumeBeginToEPS2_mm.cold.2, symObjAddr: 0x6C18, symBinAddr: 0x515DC, symSize: 0x24 }
  - { offsetInCU: 0x145A8, offset: 0xC38E8, size: 0x8, addend: 0x0, symName: __ZN4absl12lts_2022062313cord_internal12CordRepBtree14ConsumeBeginToEPS2_mm.cold.3, symObjAddr: 0x6C3C, symBinAddr: 0x51600, symSize: 0x28 }
  - { offsetInCU: 0x145D6, offset: 0xC3916, size: 0x8, addend: 0x0, symName: __ZN4absl12lts_2022062313cord_internal12CordRepBtree14ConsumeBeginToEPS2_mm.cold.5, symObjAddr: 0x6C88, symBinAddr: 0x5164C, symSize: 0x24 }
  - { offsetInCU: 0x14604, offset: 0xC3944, size: 0x8, addend: 0x0, symName: __ZN4absl12lts_2022062313cord_internal12CordRepBtree14ConsumeBeginToEPS2_mm.cold.6, symObjAddr: 0x6CAC, symBinAddr: 0x51670, symSize: 0x24 }
  - { offsetInCU: 0x14632, offset: 0xC3972, size: 0x8, addend: 0x0, symName: __ZN4absl12lts_2022062313cord_internal12CordRepBtree14ConsumeBeginToEPS2_mm.cold.7, symObjAddr: 0x6CD0, symBinAddr: 0x51694, symSize: 0x24 }
  - { offsetInCU: 0x14676, offset: 0xC39B6, size: 0x8, addend: 0x0, symName: __ZN4absl12lts_2022062313cord_internal12CordRepBtree14ConsumeBeginToEPS2_mm.cold.9, symObjAddr: 0x6D18, symBinAddr: 0x516DC, symSize: 0x24 }
  - { offsetInCU: 0x146E0, offset: 0xC3A20, size: 0x8, addend: 0x0, symName: __ZN4absl12lts_2022062313cord_internal12CordRepBtree12RemoveSuffixEPS2_m, symObjAddr: 0x33F0, symBinAddr: 0x1AAA4, symSize: 0x2F4 }
  - { offsetInCU: 0x14D8A, offset: 0xC40CA, size: 0x8, addend: 0x0, symName: __ZN4absl12lts_2022062313cord_internal12CordRepBtree12RemoveSuffixEPS2_m.cold.14, symObjAddr: 0x6F1C, symBinAddr: 0x518E0, symSize: 0x24 }
  - { offsetInCU: 0x14DB8, offset: 0xC40F8, size: 0x8, addend: 0x0, symName: __ZN4absl12lts_2022062313cord_internal12CordRepBtree12RemoveSuffixEPS2_m.cold.4, symObjAddr: 0x6DB0, symBinAddr: 0x51774, symSize: 0x24 }
  - { offsetInCU: 0x14DE6, offset: 0xC4126, size: 0x8, addend: 0x0, symName: __ZN4absl12lts_2022062313cord_internal12CordRepBtree12RemoveSuffixEPS2_m.cold.12, symObjAddr: 0x6ED0, symBinAddr: 0x51894, symSize: 0x28 }
  - { offsetInCU: 0x14DFE, offset: 0xC413E, size: 0x8, addend: 0x0, symName: __ZN4absl12lts_2022062313cord_internal12CordRepBtree12RemoveSuffixEPS2_m.cold.9, symObjAddr: 0x6E64, symBinAddr: 0x51828, symSize: 0x24 }
  - { offsetInCU: 0x14E2C, offset: 0xC416C, size: 0x8, addend: 0x0, symName: __ZN4absl12lts_2022062313cord_internal12CordRepBtree12RemoveSuffixEPS2_m.cold.6, symObjAddr: 0x6DF8, symBinAddr: 0x517BC, symSize: 0x24 }
  - { offsetInCU: 0x14E5A, offset: 0xC419A, size: 0x8, addend: 0x0, symName: __ZN4absl12lts_2022062313cord_internal12CordRepBtree12RemoveSuffixEPS2_m.cold.7, symObjAddr: 0x6E1C, symBinAddr: 0x517E0, symSize: 0x24 }
  - { offsetInCU: 0x14E88, offset: 0xC41C8, size: 0x8, addend: 0x0, symName: __ZN4absl12lts_2022062313cord_internal12CordRepBtree12RemoveSuffixEPS2_m.cold.8, symObjAddr: 0x6E40, symBinAddr: 0x51804, symSize: 0x24 }
  - { offsetInCU: 0x14EB6, offset: 0xC41F6, size: 0x8, addend: 0x0, symName: __ZN4absl12lts_2022062313cord_internal12CordRepBtree12RemoveSuffixEPS2_m.cold.1, symObjAddr: 0x6D3C, symBinAddr: 0x51700, symSize: 0x28 }
  - { offsetInCU: 0x14ECE, offset: 0xC420E, size: 0x8, addend: 0x0, symName: __ZN4absl12lts_2022062313cord_internal12CordRepBtree12RemoveSuffixEPS2_m.cold.2, symObjAddr: 0x6D64, symBinAddr: 0x51728, symSize: 0x28 }
  - { offsetInCU: 0x14EE6, offset: 0xC4226, size: 0x8, addend: 0x0, symName: __ZN4absl12lts_2022062313cord_internal12CordRepBtree12RemoveSuffixEPS2_m.cold.3, symObjAddr: 0x6D8C, symBinAddr: 0x51750, symSize: 0x24 }
  - { offsetInCU: 0x14F14, offset: 0xC4254, size: 0x8, addend: 0x0, symName: __ZN4absl12lts_2022062313cord_internal12CordRepBtree12RemoveSuffixEPS2_m.cold.5, symObjAddr: 0x6DD4, symBinAddr: 0x51798, symSize: 0x24 }
  - { offsetInCU: 0x14F42, offset: 0xC4282, size: 0x8, addend: 0x0, symName: __ZN4absl12lts_2022062313cord_internal12CordRepBtree12RemoveSuffixEPS2_m.cold.13, symObjAddr: 0x6EF8, symBinAddr: 0x518BC, symSize: 0x24 }
  - { offsetInCU: 0x14F70, offset: 0xC42B0, size: 0x8, addend: 0x0, symName: __ZN4absl12lts_2022062313cord_internal12CordRepBtree12RemoveSuffixEPS2_m.cold.11, symObjAddr: 0x6EAC, symBinAddr: 0x51870, symSize: 0x24 }
  - { offsetInCU: 0x14F9E, offset: 0xC42DE, size: 0x8, addend: 0x0, symName: __ZN4absl12lts_2022062313cord_internal12CordRepBtree12RemoveSuffixEPS2_m.cold.10, symObjAddr: 0x6E88, symBinAddr: 0x5184C, symSize: 0x24 }
  - { offsetInCU: 0x14FE2, offset: 0xC4322, size: 0x8, addend: 0x0, symName: __ZN4absl12lts_2022062313cord_internal12_GLOBAL__N_110ResizeEdgeEPNS1_7CordRepEmb.cold.1, symObjAddr: 0x6F40, symBinAddr: 0x51904, symSize: 0x28 }
  - { offsetInCU: 0x14FFA, offset: 0xC433A, size: 0x8, addend: 0x0, symName: __ZN4absl12lts_2022062313cord_internal12_GLOBAL__N_110ResizeEdgeEPNS1_7CordRepEmb.cold.2, symObjAddr: 0x6F68, symBinAddr: 0x5192C, symSize: 0x28 }
  - { offsetInCU: 0x15012, offset: 0xC4352, size: 0x8, addend: 0x0, symName: __ZN4absl12lts_2022062313cord_internal12_GLOBAL__N_110ResizeEdgeEPNS1_7CordRepEmb.cold.3, symObjAddr: 0x6F90, symBinAddr: 0x51954, symSize: 0x28 }
  - { offsetInCU: 0x15066, offset: 0xC43A6, size: 0x8, addend: 0x0, symName: __ZN4absl12lts_2022062313cord_internal12CordRepBtree7SubTreeEmm, symObjAddr: 0x3768, symBinAddr: 0x1AE1C, symSize: 0x48C }
  - { offsetInCU: 0x15E68, offset: 0xC51A8, size: 0x8, addend: 0x0, symName: __ZN4absl12lts_2022062313cord_internal12CordRepBtree7SubTreeEmm.cold.6, symObjAddr: 0x707C, symBinAddr: 0x51A40, symSize: 0x24 }
  - { offsetInCU: 0x15E96, offset: 0xC51D6, size: 0x8, addend: 0x0, symName: __ZN4absl12lts_2022062313cord_internal12CordRepBtree7SubTreeEmm.cold.12, symObjAddr: 0x7158, symBinAddr: 0x51B1C, symSize: 0x24 }
  - { offsetInCU: 0x15EC4, offset: 0xC5204, size: 0x8, addend: 0x0, symName: __ZN4absl12lts_2022062313cord_internal12CordRepBtree7SubTreeEmm.cold.11, symObjAddr: 0x7134, symBinAddr: 0x51AF8, symSize: 0x24 }
  - { offsetInCU: 0x15EF2, offset: 0xC5232, size: 0x8, addend: 0x0, symName: __ZN4absl12lts_2022062313cord_internal12CordRepBtree7SubTreeEmm.cold.1, symObjAddr: 0x6FB8, symBinAddr: 0x5197C, symSize: 0x28 }
  - { offsetInCU: 0x15F0A, offset: 0xC524A, size: 0x8, addend: 0x0, symName: __ZN4absl12lts_2022062313cord_internal12CordRepBtree7SubTreeEmm.cold.2, symObjAddr: 0x6FE0, symBinAddr: 0x519A4, symSize: 0x28 }
  - { offsetInCU: 0x15F22, offset: 0xC5262, size: 0x8, addend: 0x0, symName: __ZN4absl12lts_2022062313cord_internal12CordRepBtree7SubTreeEmm.cold.13, symObjAddr: 0x717C, symBinAddr: 0x51B40, symSize: 0x24 }
  - { offsetInCU: 0x15F50, offset: 0xC5290, size: 0x8, addend: 0x0, symName: __ZN4absl12lts_2022062313cord_internal12CordRepBtree7SubTreeEmm.cold.10, symObjAddr: 0x710C, symBinAddr: 0x51AD0, symSize: 0x28 }
  - { offsetInCU: 0x15F68, offset: 0xC52A8, size: 0x8, addend: 0x0, symName: __ZN4absl12lts_2022062313cord_internal12CordRepBtree7SubTreeEmm.cold.3, symObjAddr: 0x7008, symBinAddr: 0x519CC, symSize: 0x24 }
  - { offsetInCU: 0x15F96, offset: 0xC52D6, size: 0x8, addend: 0x0, symName: __ZN4absl12lts_2022062313cord_internal12CordRepBtree7SubTreeEmm.cold.4, symObjAddr: 0x702C, symBinAddr: 0x519F0, symSize: 0x28 }
  - { offsetInCU: 0x15FC4, offset: 0xC5304, size: 0x8, addend: 0x0, symName: __ZN4absl12lts_2022062313cord_internal12CordRepBtree7SubTreeEmm.cold.5, symObjAddr: 0x7054, symBinAddr: 0x51A18, symSize: 0x28 }
  - { offsetInCU: 0x15FF2, offset: 0xC5332, size: 0x8, addend: 0x0, symName: __ZN4absl12lts_2022062313cord_internal12CordRepBtree7SubTreeEmm.cold.8, symObjAddr: 0x70C4, symBinAddr: 0x51A88, symSize: 0x24 }
  - { offsetInCU: 0x16020, offset: 0xC5360, size: 0x8, addend: 0x0, symName: __ZN4absl12lts_2022062313cord_internal12CordRepBtree7SubTreeEmm.cold.7, symObjAddr: 0x70A0, symBinAddr: 0x51A64, symSize: 0x24 }
  - { offsetInCU: 0x1604E, offset: 0xC538E, size: 0x8, addend: 0x0, symName: __ZN4absl12lts_2022062313cord_internal12CordRepBtree7SubTreeEmm.cold.9, symObjAddr: 0x70E8, symBinAddr: 0x51AAC, symSize: 0x24 }
  - { offsetInCU: 0x160A7, offset: 0xC53E7, size: 0x8, addend: 0x0, symName: __ZN4absl12lts_2022062313cord_internal12CordRepBtree10MergeTreesEPS2_S3_, symObjAddr: 0x3BF4, symBinAddr: 0x1B2A8, symSize: 0x28 }
  - { offsetInCU: 0x16133, offset: 0xC5473, size: 0x8, addend: 0x0, symName: __ZN4absl12lts_2022062313cord_internal12CordRepBtree5MergeILNS2_8EdgeTypeE0EEEPS2_S5_S5_, symObjAddr: 0x4014, symBinAddr: 0x1B6C8, symSize: 0x408 }
  - { offsetInCU: 0x16C4E, offset: 0xC5F8E, size: 0x8, addend: 0x0, symName: __ZN4absl12lts_2022062313cord_internal12CordRepBtree5MergeILNS2_8EdgeTypeE1EEEPS2_S5_S5_, symObjAddr: 0x3C1C, symBinAddr: 0x1B2D0, symSize: 0x3F8 }
  - { offsetInCU: 0x17746, offset: 0xC6A86, size: 0x8, addend: 0x0, symName: __ZN4absl12lts_2022062313cord_internal12CordRepBtree5MergeILNS2_8EdgeTypeE0EEEPS2_S5_S5_, symObjAddr: 0x4014, symBinAddr: 0x1B6C8, symSize: 0x408 }
  - { offsetInCU: 0x177C1, offset: 0xC6B01, size: 0x8, addend: 0x0, symName: __ZN4absl12lts_2022062313cord_internal12CordRepBtree5MergeILNS2_8EdgeTypeE1EEEPS2_S5_S5_.cold.7, symObjAddr: 0x7280, symBinAddr: 0x51C44, symSize: 0x24 }
  - { offsetInCU: 0x17804, offset: 0xC6B44, size: 0x8, addend: 0x0, symName: __ZN4absl12lts_2022062313cord_internal12CordRepBtree5MergeILNS2_8EdgeTypeE1EEEPS2_S5_S5_.cold.6, symObjAddr: 0x725C, symBinAddr: 0x51C20, symSize: 0x24 }
  - { offsetInCU: 0x17847, offset: 0xC6B87, size: 0x8, addend: 0x0, symName: __ZN4absl12lts_2022062313cord_internal12CordRepBtree5MergeILNS2_8EdgeTypeE1EEEPS2_S5_S5_.cold.5, symObjAddr: 0x7238, symBinAddr: 0x51BFC, symSize: 0x24 }
  - { offsetInCU: 0x178A1, offset: 0xC6BE1, size: 0x8, addend: 0x0, symName: __ZN4absl12lts_2022062313cord_internal12CordRepBtree5MergeILNS2_8EdgeTypeE1EEEPS2_S5_S5_.cold.3, symObjAddr: 0x71EC, symBinAddr: 0x51BB0, symSize: 0x24 }
  - { offsetInCU: 0x178CF, offset: 0xC6C0F, size: 0x8, addend: 0x0, symName: __ZN4absl12lts_2022062313cord_internal12CordRepBtree5MergeILNS2_8EdgeTypeE1EEEPS2_S5_S5_.cold.1, symObjAddr: 0x71A0, symBinAddr: 0x51B64, symSize: 0x28 }
  - { offsetInCU: 0x178E7, offset: 0xC6C27, size: 0x8, addend: 0x0, symName: __ZN4absl12lts_2022062313cord_internal12CordRepBtree5MergeILNS2_8EdgeTypeE1EEEPS2_S5_S5_.cold.2, symObjAddr: 0x71C8, symBinAddr: 0x51B8C, symSize: 0x24 }
  - { offsetInCU: 0x1792B, offset: 0xC6C6B, size: 0x8, addend: 0x0, symName: __ZN4absl12lts_2022062313cord_internal12CordRepBtree5MergeILNS2_8EdgeTypeE1EEEPS2_S5_S5_.cold.4, symObjAddr: 0x7210, symBinAddr: 0x51BD4, symSize: 0x28 }
  - { offsetInCU: 0x179D5, offset: 0xC6D15, size: 0x8, addend: 0x0, symName: __ZN4absl12lts_2022062313cord_internal12CordRepBtree5MergeILNS2_8EdgeTypeE0EEEPS2_S5_S5_.cold.6, symObjAddr: 0x735C, symBinAddr: 0x51D20, symSize: 0x24 }
  - { offsetInCU: 0x17A18, offset: 0xC6D58, size: 0x8, addend: 0x0, symName: __ZN4absl12lts_2022062313cord_internal12CordRepBtree5MergeILNS2_8EdgeTypeE0EEEPS2_S5_S5_.cold.5, symObjAddr: 0x7338, symBinAddr: 0x51CFC, symSize: 0x24 }
  - { offsetInCU: 0x17A5B, offset: 0xC6D9B, size: 0x8, addend: 0x0, symName: __ZN4absl12lts_2022062313cord_internal12CordRepBtree5MergeILNS2_8EdgeTypeE0EEEPS2_S5_S5_.cold.4, symObjAddr: 0x7314, symBinAddr: 0x51CD8, symSize: 0x24 }
  - { offsetInCU: 0x17AB5, offset: 0xC6DF5, size: 0x8, addend: 0x0, symName: __ZN4absl12lts_2022062313cord_internal12CordRepBtree5MergeILNS2_8EdgeTypeE0EEEPS2_S5_S5_.cold.3, symObjAddr: 0x72F0, symBinAddr: 0x51CB4, symSize: 0x24 }
  - { offsetInCU: 0x17AE3, offset: 0xC6E23, size: 0x8, addend: 0x0, symName: __ZN4absl12lts_2022062313cord_internal12CordRepBtree5MergeILNS2_8EdgeTypeE0EEEPS2_S5_S5_.cold.1, symObjAddr: 0x72A4, symBinAddr: 0x51C68, symSize: 0x28 }
  - { offsetInCU: 0x17AFB, offset: 0xC6E3B, size: 0x8, addend: 0x0, symName: __ZN4absl12lts_2022062313cord_internal12CordRepBtree5MergeILNS2_8EdgeTypeE0EEEPS2_S5_S5_.cold.2, symObjAddr: 0x72CC, symBinAddr: 0x51C90, symSize: 0x24 }
  - { offsetInCU: 0x17B63, offset: 0xC6EA3, size: 0x8, addend: 0x0, symName: __ZNK4absl12lts_2022062313cord_internal12CordRepBtree6IsFlatEPNS0_11string_viewE, symObjAddr: 0x441C, symBinAddr: 0x1BAD0, symSize: 0x64 }
  - { offsetInCU: 0x17C60, offset: 0xC6FA0, size: 0x8, addend: 0x0, symName: __ZNK4absl12lts_2022062313cord_internal12CordRepBtree6IsFlatEmmPNS0_11string_viewE, symObjAddr: 0x4480, symBinAddr: 0x1BB34, symSize: 0x170 }
  - { offsetInCU: 0x17C6B, offset: 0xC6FAB, size: 0x8, addend: 0x0, symName: __ZNK4absl12lts_2022062313cord_internal12CordRepBtree6IsFlatEPNS0_11string_viewE.cold.1, symObjAddr: 0x7380, symBinAddr: 0x51D44, symSize: 0x24 }
  - { offsetInCU: 0x17D66, offset: 0xC70A6, size: 0x8, addend: 0x0, symName: __ZNK4absl12lts_2022062313cord_internal12CordRepBtree6IsFlatEmmPNS0_11string_viewE, symObjAddr: 0x4480, symBinAddr: 0x1BB34, symSize: 0x170 }
  - { offsetInCU: 0x1805F, offset: 0xC739F, size: 0x8, addend: 0x0, symName: __ZNK4absl12lts_2022062313cord_internal12CordRepBtree6IsFlatEmmPNS0_11string_viewE.cold.7, symObjAddr: 0x748C, symBinAddr: 0x51E50, symSize: 0x24 }
  - { offsetInCU: 0x1808D, offset: 0xC73CD, size: 0x8, addend: 0x0, symName: __ZNK4absl12lts_2022062313cord_internal12CordRepBtree6IsFlatEmmPNS0_11string_viewE.cold.10, symObjAddr: 0x74F8, symBinAddr: 0x51EBC, symSize: 0x24 }
  - { offsetInCU: 0x180BB, offset: 0xC73FB, size: 0x8, addend: 0x0, symName: __ZNK4absl12lts_2022062313cord_internal12CordRepBtree6IsFlatEmmPNS0_11string_viewE.cold.8, symObjAddr: 0x74B0, symBinAddr: 0x51E74, symSize: 0x24 }
  - { offsetInCU: 0x180E9, offset: 0xC7429, size: 0x8, addend: 0x0, symName: __ZNK4absl12lts_2022062313cord_internal12CordRepBtree6IsFlatEmmPNS0_11string_viewE.cold.9, symObjAddr: 0x74D4, symBinAddr: 0x51E98, symSize: 0x24 }
  - { offsetInCU: 0x18117, offset: 0xC7457, size: 0x8, addend: 0x0, symName: __ZNK4absl12lts_2022062313cord_internal12CordRepBtree6IsFlatEmmPNS0_11string_viewE.cold.1, symObjAddr: 0x73A4, symBinAddr: 0x51D68, symSize: 0x28 }
  - { offsetInCU: 0x1812F, offset: 0xC746F, size: 0x8, addend: 0x0, symName: __ZNK4absl12lts_2022062313cord_internal12CordRepBtree6IsFlatEmmPNS0_11string_viewE.cold.2, symObjAddr: 0x73CC, symBinAddr: 0x51D90, symSize: 0x28 }
  - { offsetInCU: 0x18147, offset: 0xC7487, size: 0x8, addend: 0x0, symName: __ZNK4absl12lts_2022062313cord_internal12CordRepBtree6IsFlatEmmPNS0_11string_viewE.cold.6, symObjAddr: 0x7464, symBinAddr: 0x51E28, symSize: 0x28 }
  - { offsetInCU: 0x18175, offset: 0xC74B5, size: 0x8, addend: 0x0, symName: __ZNK4absl12lts_2022062313cord_internal12CordRepBtree6IsFlatEmmPNS0_11string_viewE.cold.3, symObjAddr: 0x73F4, symBinAddr: 0x51DB8, symSize: 0x28 }
  - { offsetInCU: 0x181B8, offset: 0xC74F8, size: 0x8, addend: 0x0, symName: __ZNK4absl12lts_2022062313cord_internal12CordRepBtree6IsFlatEmmPNS0_11string_viewE.cold.4, symObjAddr: 0x741C, symBinAddr: 0x51DE0, symSize: 0x24 }
  - { offsetInCU: 0x1823B, offset: 0xC757B, size: 0x8, addend: 0x0, symName: __ZNK4absl12lts_2022062313cord_internal12CordRepBtree6IsFlatEmmPNS0_11string_viewE.cold.5, symObjAddr: 0x7440, symBinAddr: 0x51E04, symSize: 0x24 }
  - { offsetInCU: 0x1840F, offset: 0xC774F, size: 0x8, addend: 0x0, symName: __ZNK4absl12lts_2022062313cord_internal12CordRepBtree12GetCharacterEm, symObjAddr: 0x46C4, symBinAddr: 0x1BCA4, symSize: 0xF8 }
  - { offsetInCU: 0x1867B, offset: 0xC79BB, size: 0x8, addend: 0x0, symName: __ZN4absl12lts_2022062313cord_internal12CordRepBtree19GetAppendBufferSlowEm, symObjAddr: 0x47BC, symBinAddr: 0x1BD9C, symSize: 0x1A4 }
  - { offsetInCU: 0x18686, offset: 0xC79C6, size: 0x8, addend: 0x0, symName: __ZNK4absl12lts_2022062313cord_internal12CordRepBtree12GetCharacterEm.cold.6, symObjAddr: 0x76BC, symBinAddr: 0x51F9C, symSize: 0x24 }
  - { offsetInCU: 0x186B4, offset: 0xC79F4, size: 0x8, addend: 0x0, symName: __ZNK4absl12lts_2022062313cord_internal12CordRepBtree12GetCharacterEm.cold.8, symObjAddr: 0x7704, symBinAddr: 0x51FE4, symSize: 0x24 }
  - { offsetInCU: 0x186E2, offset: 0xC7A22, size: 0x8, addend: 0x0, symName: __ZNK4absl12lts_2022062313cord_internal12CordRepBtree12GetCharacterEm.cold.5, symObjAddr: 0x7698, symBinAddr: 0x51F78, symSize: 0x24 }
  - { offsetInCU: 0x18710, offset: 0xC7A50, size: 0x8, addend: 0x0, symName: __ZNK4absl12lts_2022062313cord_internal12CordRepBtree12GetCharacterEm.cold.7, symObjAddr: 0x76E0, symBinAddr: 0x51FC0, symSize: 0x24 }
  - { offsetInCU: 0x1873E, offset: 0xC7A7E, size: 0x8, addend: 0x0, symName: __ZNK4absl12lts_2022062313cord_internal12CordRepBtree12GetCharacterEm.cold.9, symObjAddr: 0x7728, symBinAddr: 0x52008, symSize: 0x28 }
  - { offsetInCU: 0x18756, offset: 0xC7A96, size: 0x8, addend: 0x0, symName: __ZNK4absl12lts_2022062313cord_internal12CordRepBtree12GetCharacterEm.cold.4, symObjAddr: 0x7670, symBinAddr: 0x51F50, symSize: 0x28 }
  - { offsetInCU: 0x18784, offset: 0xC7AC4, size: 0x8, addend: 0x0, symName: __ZNK4absl12lts_2022062313cord_internal12CordRepBtree12GetCharacterEm.cold.1, symObjAddr: 0x7600, symBinAddr: 0x51EE0, symSize: 0x24 }
  - { offsetInCU: 0x187C8, offset: 0xC7B08, size: 0x8, addend: 0x0, symName: __ZNK4absl12lts_2022062313cord_internal12CordRepBtree12GetCharacterEm.cold.3, symObjAddr: 0x764C, symBinAddr: 0x51F2C, symSize: 0x24 }
  - { offsetInCU: 0x1880C, offset: 0xC7B4C, size: 0x8, addend: 0x0, symName: __ZNK4absl12lts_2022062313cord_internal12CordRepBtree12GetCharacterEm.cold.2, symObjAddr: 0x7624, symBinAddr: 0x51F04, symSize: 0x28 }
  - { offsetInCU: 0x18850, offset: 0xC7B90, size: 0x8, addend: 0x0, symName: __ZN4absl12lts_2022062313cord_internal12CordRepBtree19GetAppendBufferSlowEm, symObjAddr: 0x47BC, symBinAddr: 0x1BD9C, symSize: 0x1A4 }
  - { offsetInCU: 0x18BF3, offset: 0xC7F33, size: 0x8, addend: 0x0, symName: __ZN4absl12lts_2022062313cord_internal12CordRepBtree19GetAppendBufferSlowEm.cold.3, symObjAddr: 0x779C, symBinAddr: 0x5207C, symSize: 0x24 }
  - { offsetInCU: 0x18C21, offset: 0xC7F61, size: 0x8, addend: 0x0, symName: __ZN4absl12lts_2022062313cord_internal12CordRepBtree19GetAppendBufferSlowEm.cold.1, symObjAddr: 0x7750, symBinAddr: 0x52030, symSize: 0x28 }
  - { offsetInCU: 0x18C39, offset: 0xC7F79, size: 0x8, addend: 0x0, symName: __ZN4absl12lts_2022062313cord_internal12CordRepBtree19GetAppendBufferSlowEm.cold.4, symObjAddr: 0x77C0, symBinAddr: 0x520A0, symSize: 0x28 }
  - { offsetInCU: 0x18C51, offset: 0xC7F91, size: 0x8, addend: 0x0, symName: __ZN4absl12lts_2022062313cord_internal12CordRepBtree19GetAppendBufferSlowEm.cold.2, symObjAddr: 0x7778, symBinAddr: 0x52058, symSize: 0x24 }
  - { offsetInCU: 0x18CC8, offset: 0xC8008, size: 0x8, addend: 0x0, symName: __ZN4absl12lts_2022062313cord_internal12CordRepBtree6AppendEPS2_NS0_11string_viewEm, symObjAddr: 0x4A5C, symBinAddr: 0x1C03C, symSize: 0x4 }
  - { offsetInCU: 0x18D0C, offset: 0xC804C, size: 0x8, addend: 0x0, symName: __ZN4absl12lts_2022062313cord_internal12CordRepBtree6AppendEPS2_NS0_11string_viewEm, symObjAddr: 0x4A5C, symBinAddr: 0x1C03C, symSize: 0x4 }
  - { offsetInCU: 0x18D34, offset: 0xC8074, size: 0x8, addend: 0x0, symName: __ZN4absl12lts_2022062313cord_internal12CordRepBtree7PrependEPS2_NS0_11string_viewEm, symObjAddr: 0x4A60, symBinAddr: 0x1C040, symSize: 0x4 }
  - { offsetInCU: 0x18D78, offset: 0xC80B8, size: 0x8, addend: 0x0, symName: __ZN4absl12lts_2022062313cord_internal12CordRepBtree7PrependEPS2_NS0_11string_viewEm, symObjAddr: 0x4A60, symBinAddr: 0x1C040, symSize: 0x4 }
  - { offsetInCU: 0x18E1E, offset: 0xC815E, size: 0x8, addend: 0x0, symName: __ZN4absl12lts_2022062313cord_internal12CordRepBtree7RebuildEPPS2_S3_b, symObjAddr: 0x4A64, symBinAddr: 0x1C044, symSize: 0x400 }
  - { offsetInCU: 0x19B67, offset: 0xC8EA7, size: 0x8, addend: 0x0, symName: __ZN4absl12lts_2022062313cord_internal12CordRepBtree7RebuildEPPS2_S3_b.cold.5, symObjAddr: 0x7878, symBinAddr: 0x52158, symSize: 0x24 }
  - { offsetInCU: 0x19B95, offset: 0xC8ED5, size: 0x8, addend: 0x0, symName: __ZN4absl12lts_2022062313cord_internal12CordRepBtree7RebuildEPPS2_S3_b.cold.4, symObjAddr: 0x7854, symBinAddr: 0x52134, symSize: 0x24 }
  - { offsetInCU: 0x19BC3, offset: 0xC8F03, size: 0x8, addend: 0x0, symName: __ZN4absl12lts_2022062313cord_internal12CordRepBtree7RebuildEPPS2_S3_b.cold.3, symObjAddr: 0x7830, symBinAddr: 0x52110, symSize: 0x24 }
  - { offsetInCU: 0x19BF1, offset: 0xC8F31, size: 0x8, addend: 0x0, symName: __ZN4absl12lts_2022062313cord_internal12CordRepBtree7RebuildEPPS2_S3_b.cold.1, symObjAddr: 0x77E8, symBinAddr: 0x520C8, symSize: 0x24 }
  - { offsetInCU: 0x19C1F, offset: 0xC8F5F, size: 0x8, addend: 0x0, symName: __ZN4absl12lts_2022062313cord_internal12CordRepBtree7RebuildEPPS2_S3_b.cold.2, symObjAddr: 0x780C, symBinAddr: 0x520EC, symSize: 0x24 }
  - { offsetInCU: 0x19C63, offset: 0xC8FA3, size: 0x8, addend: 0x0, symName: __ZN4absl12lts_2022062313cord_internal12CordRepBtree7RebuildEPS2_, symObjAddr: 0x4E64, symBinAddr: 0x1C444, symSize: 0xD0 }
  - { offsetInCU: 0x19EEE, offset: 0xC922E, size: 0x8, addend: 0x0, symName: __ZN4absl12lts_2022062313cord_internal12CordRepBtree7RebuildEPS2_.cold.1, symObjAddr: 0x789C, symBinAddr: 0x5217C, symSize: 0x28 }
  - { offsetInCU: 0x19F1C, offset: 0xC925C, size: 0x8, addend: 0x0, symName: __ZN4absl12lts_2022062313cord_internal12CordRepBtree19ExtractAppendBufferEPS2_m, symObjAddr: 0x4F34, symBinAddr: 0x1C514, symSize: 0x228 }
  - { offsetInCU: 0x1A349, offset: 0xC9689, size: 0x8, addend: 0x0, symName: __ZN4absl12lts_2022062313cord_internal12CordRepBtree19ExtractAppendBufferEPS2_m.cold.3, symObjAddr: 0x790C, symBinAddr: 0x521EC, symSize: 0x24 }
  - { offsetInCU: 0x1A377, offset: 0xC96B7, size: 0x8, addend: 0x0, symName: __ZN4absl12lts_2022062313cord_internal12CordRepBtree19ExtractAppendBufferEPS2_m.cold.2, symObjAddr: 0x78E8, symBinAddr: 0x521C8, symSize: 0x24 }
  - { offsetInCU: 0x1A3A5, offset: 0xC96E5, size: 0x8, addend: 0x0, symName: __ZN4absl12lts_2022062313cord_internal12CordRepBtree19ExtractAppendBufferEPS2_m.cold.1, symObjAddr: 0x78C4, symBinAddr: 0x521A4, symSize: 0x24 }
  - { offsetInCU: 0x1A95F, offset: 0xC9C9F, size: 0x8, addend: 0x0, symName: __ZN4absl12lts_2022062313cord_internal12_GLOBAL__N_115CreateSubstringEPNS1_7CordRepEmm.cold.1, symObjAddr: 0x79C8, symBinAddr: 0x52210, symSize: 0x28 }
  - { offsetInCU: 0x1A977, offset: 0xC9CB7, size: 0x8, addend: 0x0, symName: __ZN4absl12lts_2022062313cord_internal12_GLOBAL__N_115CreateSubstringEPNS1_7CordRepEmm.cold.2, symObjAddr: 0x79F0, symBinAddr: 0x52238, symSize: 0x24 }
  - { offsetInCU: 0x1A98F, offset: 0xC9CCF, size: 0x8, addend: 0x0, symName: __ZN4absl12lts_2022062313cord_internal12_GLOBAL__N_115CreateSubstringEPNS1_7CordRepEmm.cold.3, symObjAddr: 0x7A14, symBinAddr: 0x5225C, symSize: 0x28 }
  - { offsetInCU: 0x1A9A7, offset: 0xC9CE7, size: 0x8, addend: 0x0, symName: __ZN4absl12lts_2022062313cord_internal12_GLOBAL__N_115CreateSubstringEPNS1_7CordRepEmm.cold.4, symObjAddr: 0x7A3C, symBinAddr: 0x52284, symSize: 0x24 }
  - { offsetInCU: 0x1A9D4, offset: 0xC9D14, size: 0x8, addend: 0x0, symName: __ZN4absl12lts_2022062313cord_internal12_GLOBAL__N_115CreateSubstringEPNS1_7CordRepEmm.cold.5, symObjAddr: 0x7A60, symBinAddr: 0x522A8, symSize: 0x24 }
  - { offsetInCU: 0x1AA17, offset: 0xC9D57, size: 0x8, addend: 0x0, symName: __ZN4absl12lts_2022062313cord_internal12_GLOBAL__N_115CreateSubstringEPNS1_7CordRepEmm.cold.6, symObjAddr: 0x7A84, symBinAddr: 0x522CC, symSize: 0x28 }
  - { offsetInCU: 0x1AA2F, offset: 0xC9D6F, size: 0x8, addend: 0x0, symName: __ZN4absl12lts_2022062313cord_internal12_GLOBAL__N_115StackOperationsILNS1_12CordRepBtree8EdgeTypeE1EE8FinalizeEPS4_NS4_8OpResultE.cold.2, symObjAddr: 0x7AD0, symBinAddr: 0x52318, symSize: 0x24 }
  - { offsetInCU: 0x1AA5D, offset: 0xC9D9D, size: 0x8, addend: 0x0, symName: __ZN4absl12lts_2022062313cord_internal12_GLOBAL__N_115StackOperationsILNS1_12CordRepBtree8EdgeTypeE1EE8FinalizeEPS4_NS4_8OpResultE.cold.1, symObjAddr: 0x7AAC, symBinAddr: 0x522F4, symSize: 0x24 }
  - { offsetInCU: 0x1AA8B, offset: 0xC9DCB, size: 0x8, addend: 0x0, symName: __ZN4absl12lts_2022062313cord_internal12_GLOBAL__N_115StackOperationsILNS1_12CordRepBtree8EdgeTypeE1EE8FinalizeEPS4_NS4_8OpResultE.cold.3, symObjAddr: 0x7AF4, symBinAddr: 0x5233C, symSize: 0x24 }
  - { offsetInCU: 0x1AACF, offset: 0xC9E0F, size: 0x8, addend: 0x0, symName: __ZN4absl12lts_2022062313cord_internal12_GLOBAL__N_115StackOperationsILNS1_12CordRepBtree8EdgeTypeE0EE8FinalizeEPS4_NS4_8OpResultE.cold.2, symObjAddr: 0x7B3C, symBinAddr: 0x52384, symSize: 0x24 }
  - { offsetInCU: 0x1AAFD, offset: 0xC9E3D, size: 0x8, addend: 0x0, symName: __ZN4absl12lts_2022062313cord_internal12_GLOBAL__N_115StackOperationsILNS1_12CordRepBtree8EdgeTypeE0EE8FinalizeEPS4_NS4_8OpResultE.cold.1, symObjAddr: 0x7B18, symBinAddr: 0x52360, symSize: 0x24 }
  - { offsetInCU: 0x1AB2B, offset: 0xC9E6B, size: 0x8, addend: 0x0, symName: __ZN4absl12lts_2022062313cord_internal12_GLOBAL__N_115StackOperationsILNS1_12CordRepBtree8EdgeTypeE0EE8FinalizeEPS4_NS4_8OpResultE.cold.3, symObjAddr: 0x7B60, symBinAddr: 0x523A8, symSize: 0x24 }
  - { offsetInCU: 0x1AC1A, offset: 0xC9F5A, size: 0x8, addend: 0x0, symName: '__ZN4absl12lts_2022062319functional_internal12InvokeObjectIZNS0_13cord_internal12CordRepBtree10CreateSlowEPNS3_7CordRepEE3$_0vJS6_mmEEET0_NS1_7VoidPtrEDpNS1_8ForwardTIT1_E4typeE.cold.1', symObjAddr: 0x7B84, symBinAddr: 0x523CC, symSize: 0x24 }
  - { offsetInCU: 0x1AD51, offset: 0xCA091, size: 0x8, addend: 0x0, symName: '__ZN4absl12lts_2022062319functional_internal12InvokeObjectIZNS0_13cord_internal12CordRepBtree10AppendSlowEPS4_PNS3_7CordRepEE3$_1vJS7_mmEEET0_NS1_7VoidPtrEDpNS1_8ForwardTIT1_E4typeE.cold.1', symObjAddr: 0x7BA8, symBinAddr: 0x523F0, symSize: 0x24 }
  - { offsetInCU: 0x1AE88, offset: 0xCA1C8, size: 0x8, addend: 0x0, symName: '__ZN4absl12lts_2022062319functional_internal12InvokeObjectIZNS0_13cord_internal12CordRepBtree11PrependSlowEPS4_PNS3_7CordRepEE3$_2vJS7_mmEEET0_NS1_7VoidPtrEDpNS1_8ForwardTIT1_E4typeE.cold.1', symObjAddr: 0x7BCC, symBinAddr: 0x52414, symSize: 0x24 }
  - { offsetInCU: 0x1AF42, offset: 0xCA282, size: 0x8, addend: 0x0, symName: __ZN4absl12lts_2022062313cord_internal12CordRepBtree7SetEdgeILNS2_8EdgeTypeE0EEENS2_8OpResultEbPNS1_7CordRepEm.cold.3, symObjAddr: 0x7C38, symBinAddr: 0x52480, symSize: 0x24 }
  - { offsetInCU: 0x1AF70, offset: 0xCA2B0, size: 0x8, addend: 0x0, symName: __ZN4absl12lts_2022062313cord_internal12CordRepBtree7SetEdgeILNS2_8EdgeTypeE0EEENS2_8OpResultEbPNS1_7CordRepEm.cold.1, symObjAddr: 0x7BF0, symBinAddr: 0x52438, symSize: 0x24 }
  - { offsetInCU: 0x1AF9E, offset: 0xCA2DE, size: 0x8, addend: 0x0, symName: __ZN4absl12lts_2022062313cord_internal12CordRepBtree7SetEdgeILNS2_8EdgeTypeE0EEENS2_8OpResultEbPNS1_7CordRepEm.cold.2, symObjAddr: 0x7C14, symBinAddr: 0x5245C, symSize: 0x24 }
  - { offsetInCU: 0x1AFE2, offset: 0xCA322, size: 0x8, addend: 0x0, symName: __ZN4absl12lts_2022062313cord_internal12CordRepBtree7SetEdgeILNS2_8EdgeTypeE0EEENS2_8OpResultEbPNS1_7CordRepEm.cold.4, symObjAddr: 0x7C5C, symBinAddr: 0x524A4, symSize: 0x24 }
  - { offsetInCU: 0x1B010, offset: 0xCA350, size: 0x8, addend: 0x0, symName: __ZN4absl12lts_2022062313cord_internal12CordRepBtree7SetEdgeILNS2_8EdgeTypeE1EEENS2_8OpResultEbPNS1_7CordRepEm.cold.5, symObjAddr: 0x7D14, symBinAddr: 0x5255C, symSize: 0x24 }
  - { offsetInCU: 0x1B03E, offset: 0xCA37E, size: 0x8, addend: 0x0, symName: __ZN4absl12lts_2022062313cord_internal12CordRepBtree7SetEdgeILNS2_8EdgeTypeE1EEENS2_8OpResultEbPNS1_7CordRepEm.cold.1, symObjAddr: 0x7C80, symBinAddr: 0x524C8, symSize: 0x24 }
  - { offsetInCU: 0x1B06C, offset: 0xCA3AC, size: 0x8, addend: 0x0, symName: __ZN4absl12lts_2022062313cord_internal12CordRepBtree7SetEdgeILNS2_8EdgeTypeE1EEENS2_8OpResultEbPNS1_7CordRepEm.cold.2, symObjAddr: 0x7CA4, symBinAddr: 0x524EC, symSize: 0x24 }
  - { offsetInCU: 0x1B0B0, offset: 0xCA3F0, size: 0x8, addend: 0x0, symName: __ZN4absl12lts_2022062313cord_internal12CordRepBtree7SetEdgeILNS2_8EdgeTypeE1EEENS2_8OpResultEbPNS1_7CordRepEm.cold.3, symObjAddr: 0x7CC8, symBinAddr: 0x52510, symSize: 0x24 }
  - { offsetInCU: 0x1B0DE, offset: 0xCA41E, size: 0x8, addend: 0x0, symName: __ZN4absl12lts_2022062313cord_internal12CordRepBtree7SetEdgeILNS2_8EdgeTypeE1EEENS2_8OpResultEbPNS1_7CordRepEm.cold.4, symObjAddr: 0x7CEC, symBinAddr: 0x52534, symSize: 0x28 }
  - { offsetInCU: 0x1B10C, offset: 0xCA44C, size: 0x8, addend: 0x0, symName: _OUTLINED_FUNCTION_0, symObjAddr: 0x7D38, symBinAddr: 0x1CF0C, symSize: 0x8 }
  - { offsetInCU: 0x1B124, offset: 0xCA464, size: 0x8, addend: 0x0, symName: _OUTLINED_FUNCTION_1, symObjAddr: 0x7D40, symBinAddr: 0x1CF14, symSize: 0x8 }
  - { offsetInCU: 0x1B13C, offset: 0xCA47C, size: 0x8, addend: 0x0, symName: _OUTLINED_FUNCTION_2, symObjAddr: 0x7D48, symBinAddr: 0x1CF1C, symSize: 0x8 }
  - { offsetInCU: 0x1B154, offset: 0xCA494, size: 0x8, addend: 0x0, symName: _OUTLINED_FUNCTION_3, symObjAddr: 0x7D50, symBinAddr: 0x1CF24, symSize: 0x8 }
  - { offsetInCU: 0x1B16C, offset: 0xCA4AC, size: 0x8, addend: 0x0, symName: _OUTLINED_FUNCTION_4, symObjAddr: 0x7D58, symBinAddr: 0x1CF2C, symSize: 0x8 }
  - { offsetInCU: 0x1B184, offset: 0xCA4C4, size: 0x8, addend: 0x0, symName: _OUTLINED_FUNCTION_5, symObjAddr: 0x7D60, symBinAddr: 0x1CF34, symSize: 0x8 }
  - { offsetInCU: 0x1B19C, offset: 0xCA4DC, size: 0x8, addend: 0x0, symName: _OUTLINED_FUNCTION_6, symObjAddr: 0x7D68, symBinAddr: 0x1CF3C, symSize: 0x8 }
  - { offsetInCU: 0x1B1B4, offset: 0xCA4F4, size: 0x8, addend: 0x0, symName: _OUTLINED_FUNCTION_7, symObjAddr: 0x7D70, symBinAddr: 0x1CF44, symSize: 0x8 }
  - { offsetInCU: 0x1B1CC, offset: 0xCA50C, size: 0x8, addend: 0x0, symName: _OUTLINED_FUNCTION_8, symObjAddr: 0x7D78, symBinAddr: 0x1CF4C, symSize: 0x8 }
  - { offsetInCU: 0x1B1E4, offset: 0xCA524, size: 0x8, addend: 0x0, symName: _OUTLINED_FUNCTION_9, symObjAddr: 0x7D80, symBinAddr: 0x1CF54, symSize: 0x8 }
  - { offsetInCU: 0x1B1FC, offset: 0xCA53C, size: 0x8, addend: 0x0, symName: _OUTLINED_FUNCTION_10, symObjAddr: 0x7D88, symBinAddr: 0x1CF5C, symSize: 0x8 }
  - { offsetInCU: 0x1B214, offset: 0xCA554, size: 0x8, addend: 0x0, symName: _OUTLINED_FUNCTION_11, symObjAddr: 0x7D90, symBinAddr: 0x1CF64, symSize: 0x8 }
  - { offsetInCU: 0x1B22C, offset: 0xCA56C, size: 0x8, addend: 0x0, symName: _OUTLINED_FUNCTION_12, symObjAddr: 0x7D98, symBinAddr: 0x1CF6C, symSize: 0x8 }
  - { offsetInCU: 0x1B244, offset: 0xCA584, size: 0x8, addend: 0x0, symName: _OUTLINED_FUNCTION_13, symObjAddr: 0x7DA0, symBinAddr: 0x1CF74, symSize: 0x8 }
  - { offsetInCU: 0x1B25C, offset: 0xCA59C, size: 0x8, addend: 0x0, symName: _OUTLINED_FUNCTION_14, symObjAddr: 0x7DA8, symBinAddr: 0x1CF7C, symSize: 0x8 }
  - { offsetInCU: 0x26, offset: 0xCA604, size: 0x8, addend: 0x0, symName: __ZN4absl12lts_2022062313cord_internal21CordRepBtreeNavigator4SkipEm, symObjAddr: 0x0, symBinAddr: 0x1CF84, symSize: 0x1A8 }
  - { offsetInCU: 0xC82, offset: 0xCB260, size: 0x8, addend: 0x0, symName: __ZN4absl12lts_2022062313cord_internal12_GLOBAL__N_19SubstringEPNS1_7CordRepEmm, symObjAddr: 0x560, symBinAddr: 0x1D4E4, symSize: 0x104 }
  - { offsetInCU: 0xFE2, offset: 0xCB5C0, size: 0x8, addend: 0x0, symName: __ZN4absl12lts_2022062313cord_internal21CordRepBtreeNavigator4SkipEm.cold.1, symObjAddr: 0x664, symBinAddr: 0x52580, symSize: 0x24 }
  - { offsetInCU: 0x2F9A, offset: 0xCD578, size: 0x8, addend: 0x0, symName: __ZN4absl12lts_2022062313cord_internal21CordRepBtreeNavigator4SkipEm, symObjAddr: 0x0, symBinAddr: 0x1CF84, symSize: 0x1A8 }
  - { offsetInCU: 0x31A5, offset: 0xCD783, size: 0x8, addend: 0x0, symName: __ZN4absl12lts_2022062313cord_internal21CordRepBtreeNavigator4ReadEmm, symObjAddr: 0x1A8, symBinAddr: 0x1D12C, symSize: 0x3B8 }
  - { offsetInCU: 0x31B0, offset: 0xCD78E, size: 0x8, addend: 0x0, symName: __ZN4absl12lts_2022062313cord_internal21CordRepBtreeNavigator4SkipEm.cold.3, symObjAddr: 0x6AC, symBinAddr: 0x525C8, symSize: 0x28 }
  - { offsetInCU: 0x31C8, offset: 0xCD7A6, size: 0x8, addend: 0x0, symName: __ZN4absl12lts_2022062313cord_internal21CordRepBtreeNavigator4SkipEm.cold.4, symObjAddr: 0x6D4, symBinAddr: 0x525F0, symSize: 0x24 }
  - { offsetInCU: 0x31F5, offset: 0xCD7D3, size: 0x8, addend: 0x0, symName: __ZN4absl12lts_2022062313cord_internal21CordRepBtreeNavigator4SkipEm.cold.2, symObjAddr: 0x688, symBinAddr: 0x525A4, symSize: 0x24 }
  - { offsetInCU: 0x3222, offset: 0xCD800, size: 0x8, addend: 0x0, symName: __ZN4absl12lts_2022062313cord_internal21CordRepBtreeNavigator4SkipEm.cold.7, symObjAddr: 0x744, symBinAddr: 0x52660, symSize: 0x24 }
  - { offsetInCU: 0x324F, offset: 0xCD82D, size: 0x8, addend: 0x0, symName: __ZN4absl12lts_2022062313cord_internal21CordRepBtreeNavigator4SkipEm.cold.1, symObjAddr: 0x664, symBinAddr: 0x52580, symSize: 0x24 }
  - { offsetInCU: 0x327C, offset: 0xCD85A, size: 0x8, addend: 0x0, symName: __ZN4absl12lts_2022062313cord_internal21CordRepBtreeNavigator4SkipEm.cold.8, symObjAddr: 0x768, symBinAddr: 0x52684, symSize: 0x24 }
  - { offsetInCU: 0x32A9, offset: 0xCD887, size: 0x8, addend: 0x0, symName: __ZN4absl12lts_2022062313cord_internal21CordRepBtreeNavigator4SkipEm.cold.6, symObjAddr: 0x71C, symBinAddr: 0x52638, symSize: 0x28 }
  - { offsetInCU: 0x32D6, offset: 0xCD8B4, size: 0x8, addend: 0x0, symName: __ZN4absl12lts_2022062313cord_internal21CordRepBtreeNavigator4SkipEm.cold.5, symObjAddr: 0x6F8, symBinAddr: 0x52614, symSize: 0x24 }
  - { offsetInCU: 0x3628, offset: 0xCDC06, size: 0x8, addend: 0x0, symName: __ZN4absl12lts_2022062313cord_internal21CordRepBtreeNavigator4ReadEmm, symObjAddr: 0x1A8, symBinAddr: 0x1D12C, symSize: 0x3B8 }
  - { offsetInCU: 0x41E7, offset: 0xCE7C5, size: 0x8, addend: 0x0, symName: __ZN4absl12lts_2022062313cord_internal21CordRepBtreeNavigator4ReadEmm.cold.3, symObjAddr: 0x7D4, symBinAddr: 0x526F0, symSize: 0x24 }
  - { offsetInCU: 0x4214, offset: 0xCE7F2, size: 0x8, addend: 0x0, symName: __ZN4absl12lts_2022062313cord_internal21CordRepBtreeNavigator4ReadEmm.cold.4, symObjAddr: 0x7F8, symBinAddr: 0x52714, symSize: 0x24 }
  - { offsetInCU: 0x4241, offset: 0xCE81F, size: 0x8, addend: 0x0, symName: __ZN4absl12lts_2022062313cord_internal21CordRepBtreeNavigator4ReadEmm.cold.2, symObjAddr: 0x7B0, symBinAddr: 0x526CC, symSize: 0x24 }
  - { offsetInCU: 0x426E, offset: 0xCE84C, size: 0x8, addend: 0x0, symName: __ZN4absl12lts_2022062313cord_internal21CordRepBtreeNavigator4ReadEmm.cold.7, symObjAddr: 0x868, symBinAddr: 0x52784, symSize: 0x24 }
  - { offsetInCU: 0x429B, offset: 0xCE879, size: 0x8, addend: 0x0, symName: __ZN4absl12lts_2022062313cord_internal21CordRepBtreeNavigator4ReadEmm.cold.1, symObjAddr: 0x78C, symBinAddr: 0x526A8, symSize: 0x24 }
  - { offsetInCU: 0x42C8, offset: 0xCE8A6, size: 0x8, addend: 0x0, symName: __ZN4absl12lts_2022062313cord_internal21CordRepBtreeNavigator4ReadEmm.cold.10, symObjAddr: 0x8DC, symBinAddr: 0x527F8, symSize: 0x24 }
  - { offsetInCU: 0x42F5, offset: 0xCE8D3, size: 0x8, addend: 0x0, symName: __ZN4absl12lts_2022062313cord_internal21CordRepBtreeNavigator4ReadEmm.cold.9, symObjAddr: 0x8B4, symBinAddr: 0x527D0, symSize: 0x28 }
  - { offsetInCU: 0x430D, offset: 0xCE8EB, size: 0x8, addend: 0x0, symName: __ZN4absl12lts_2022062313cord_internal21CordRepBtreeNavigator4ReadEmm.cold.6, symObjAddr: 0x840, symBinAddr: 0x5275C, symSize: 0x28 }
  - { offsetInCU: 0x433A, offset: 0xCE918, size: 0x8, addend: 0x0, symName: __ZN4absl12lts_2022062313cord_internal21CordRepBtreeNavigator4ReadEmm.cold.5, symObjAddr: 0x81C, symBinAddr: 0x52738, symSize: 0x24 }
  - { offsetInCU: 0x4367, offset: 0xCE945, size: 0x8, addend: 0x0, symName: __ZN4absl12lts_2022062313cord_internal21CordRepBtreeNavigator4ReadEmm.cold.8, symObjAddr: 0x88C, symBinAddr: 0x527A8, symSize: 0x28 }
  - { offsetInCU: 0x43FF, offset: 0xCE9DD, size: 0x8, addend: 0x0, symName: __ZN4absl12lts_2022062313cord_internal12_GLOBAL__N_19SubstringEPNS1_7CordRepEmm.cold.1, symObjAddr: 0x900, symBinAddr: 0x5281C, symSize: 0x28 }
  - { offsetInCU: 0x4417, offset: 0xCE9F5, size: 0x8, addend: 0x0, symName: __ZN4absl12lts_2022062313cord_internal12_GLOBAL__N_19SubstringEPNS1_7CordRepEmm.cold.5, symObjAddr: 0x9A0, symBinAddr: 0x528BC, symSize: 0x28 }
  - { offsetInCU: 0x442F, offset: 0xCEA0D, size: 0x8, addend: 0x0, symName: __ZN4absl12lts_2022062313cord_internal12_GLOBAL__N_19SubstringEPNS1_7CordRepEmm.cold.2, symObjAddr: 0x928, symBinAddr: 0x52844, symSize: 0x28 }
  - { offsetInCU: 0x4447, offset: 0xCEA25, size: 0x8, addend: 0x0, symName: __ZN4absl12lts_2022062313cord_internal12_GLOBAL__N_19SubstringEPNS1_7CordRepEmm.cold.4, symObjAddr: 0x978, symBinAddr: 0x52894, symSize: 0x28 }
  - { offsetInCU: 0x445F, offset: 0xCEA3D, size: 0x8, addend: 0x0, symName: __ZN4absl12lts_2022062313cord_internal12_GLOBAL__N_19SubstringEPNS1_7CordRepEmm.cold.3, symObjAddr: 0x950, symBinAddr: 0x5286C, symSize: 0x28 }
  - { offsetInCU: 0x4477, offset: 0xCEA55, size: 0x8, addend: 0x0, symName: _OUTLINED_FUNCTION_0, symObjAddr: 0x9C8, symBinAddr: 0x1D5E8, symSize: 0x8 }
  - { offsetInCU: 0x448F, offset: 0xCEA6D, size: 0x8, addend: 0x0, symName: _OUTLINED_FUNCTION_1, symObjAddr: 0x9D0, symBinAddr: 0x1D5F0, symSize: 0x8 }
  - { offsetInCU: 0x26, offset: 0xCEAAF, size: 0x8, addend: 0x0, symName: __ZN4absl12lts_2022062313cord_internal18CordRepBtreeReader4ReadEmmRPNS1_7CordRepE, symObjAddr: 0x0, symBinAddr: 0x1D5F8, symSize: 0x214 }
  - { offsetInCU: 0x2E88, offset: 0xD1911, size: 0x8, addend: 0x0, symName: __ZN4absl12lts_2022062313cord_internal18CordRepBtreeReader4ReadEmmRPNS1_7CordRepE, symObjAddr: 0x0, symBinAddr: 0x1D5F8, symSize: 0x214 }
  - { offsetInCU: 0x338D, offset: 0xD1E16, size: 0x8, addend: 0x0, symName: __ZN4absl12lts_2022062313cord_internal18CordRepBtreeReader4ReadEmmRPNS1_7CordRepE.cold.1, symObjAddr: 0x3E4, symBinAddr: 0x528E4, symSize: 0x28 }
  - { offsetInCU: 0x343D, offset: 0xD1EC6, size: 0x8, addend: 0x0, symName: __ZN4absl12lts_2022062313cord_internal18CordRepBtreeReader4ReadEmmRPNS1_7CordRepE.cold.1, symObjAddr: 0x3E4, symBinAddr: 0x528E4, symSize: 0x28 }
  - { offsetInCU: 0x346A, offset: 0xD1EF3, size: 0x8, addend: 0x0, symName: __ZN4absl12lts_2022062313cord_internal18CordRepBtreeReader4ReadEmmRPNS1_7CordRepE.cold.2, symObjAddr: 0x40C, symBinAddr: 0x5290C, symSize: 0x24 }
  - { offsetInCU: 0x34AC, offset: 0xD1F35, size: 0x8, addend: 0x0, symName: __ZN4absl12lts_2022062313cord_internal18CordRepBtreeReader4ReadEmmRPNS1_7CordRepE.cold.13, symObjAddr: 0x5A8, symBinAddr: 0x52AA8, symSize: 0x24 }
  - { offsetInCU: 0x34EE, offset: 0xD1F77, size: 0x8, addend: 0x0, symName: __ZN4absl12lts_2022062313cord_internal18CordRepBtreeReader4ReadEmmRPNS1_7CordRepE.cold.3, symObjAddr: 0x430, symBinAddr: 0x52930, symSize: 0x28 }
  - { offsetInCU: 0x3506, offset: 0xD1F8F, size: 0x8, addend: 0x0, symName: __ZN4absl12lts_2022062313cord_internal18CordRepBtreeReader4ReadEmmRPNS1_7CordRepE.cold.4, symObjAddr: 0x458, symBinAddr: 0x52958, symSize: 0x28 }
  - { offsetInCU: 0x3533, offset: 0xD1FBC, size: 0x8, addend: 0x0, symName: __ZN4absl12lts_2022062313cord_internal18CordRepBtreeReader4ReadEmmRPNS1_7CordRepE.cold.5, symObjAddr: 0x480, symBinAddr: 0x52980, symSize: 0x24 }
  - { offsetInCU: 0x3575, offset: 0xD1FFE, size: 0x8, addend: 0x0, symName: __ZN4absl12lts_2022062313cord_internal18CordRepBtreeReader4ReadEmmRPNS1_7CordRepE.cold.10, symObjAddr: 0x53C, symBinAddr: 0x52A3C, symSize: 0x24 }
  - { offsetInCU: 0x35B7, offset: 0xD2040, size: 0x8, addend: 0x0, symName: __ZN4absl12lts_2022062313cord_internal18CordRepBtreeReader4ReadEmmRPNS1_7CordRepE.cold.11, symObjAddr: 0x560, symBinAddr: 0x52A60, symSize: 0x24 }
  - { offsetInCU: 0x35F9, offset: 0xD2082, size: 0x8, addend: 0x0, symName: __ZN4absl12lts_2022062313cord_internal18CordRepBtreeReader4ReadEmmRPNS1_7CordRepE.cold.12, symObjAddr: 0x584, symBinAddr: 0x52A84, symSize: 0x24 }
  - { offsetInCU: 0x363B, offset: 0xD20C4, size: 0x8, addend: 0x0, symName: __ZN4absl12lts_2022062313cord_internal18CordRepBtreeReader4ReadEmmRPNS1_7CordRepE.cold.9, symObjAddr: 0x514, symBinAddr: 0x52A14, symSize: 0x28 }
  - { offsetInCU: 0x3668, offset: 0xD20F1, size: 0x8, addend: 0x0, symName: __ZN4absl12lts_2022062313cord_internal18CordRepBtreeReader4ReadEmmRPNS1_7CordRepE.cold.6, symObjAddr: 0x4A4, symBinAddr: 0x529A4, symSize: 0x28 }
  - { offsetInCU: 0x36AA, offset: 0xD2133, size: 0x8, addend: 0x0, symName: __ZN4absl12lts_2022062313cord_internal18CordRepBtreeReader4ReadEmmRPNS1_7CordRepE.cold.7, symObjAddr: 0x4CC, symBinAddr: 0x529CC, symSize: 0x24 }
  - { offsetInCU: 0x372C, offset: 0xD21B5, size: 0x8, addend: 0x0, symName: __ZN4absl12lts_2022062313cord_internal18CordRepBtreeReader4ReadEmmRPNS1_7CordRepE.cold.8, symObjAddr: 0x4F0, symBinAddr: 0x529F0, symSize: 0x24 }
  - { offsetInCU: 0x3937, offset: 0xD23C0, size: 0x8, addend: 0x0, symName: _OUTLINED_FUNCTION_0, symObjAddr: 0x790, symBinAddr: 0x1D80C, symSize: 0x8 }
  - { offsetInCU: 0x394F, offset: 0xD23D8, size: 0x8, addend: 0x0, symName: _OUTLINED_FUNCTION_1, symObjAddr: 0x798, symBinAddr: 0x1D814, symSize: 0x8 }
  - { offsetInCU: 0x3967, offset: 0xD23F0, size: 0x8, addend: 0x0, symName: _OUTLINED_FUNCTION_2, symObjAddr: 0x7A0, symBinAddr: 0x1D81C, symSize: 0x8 }
  - { offsetInCU: 0x26, offset: 0xD2437, size: 0x8, addend: 0x0, symName: __ZN4absl12lts_2022062313cord_internal7ConsumeEPNS1_7CordRepENS0_11FunctionRefIFvS3_mmEEE, symObjAddr: 0x0, symBinAddr: 0x1D824, symSize: 0xE0 }
  - { offsetInCU: 0xC3F, offset: 0xD3050, size: 0x8, addend: 0x0, symName: __ZN4absl12lts_2022062313cord_internal7ConsumeEPNS1_7CordRepENS0_11FunctionRefIFvS3_mmEEE, symObjAddr: 0x0, symBinAddr: 0x1D824, symSize: 0xE0 }
  - { offsetInCU: 0xE4C, offset: 0xD325D, size: 0x8, addend: 0x0, symName: __ZN4absl12lts_2022062313cord_internal14ReverseConsumeEPNS1_7CordRepENS0_11FunctionRefIFvS3_mmEEE, symObjAddr: 0xE0, symBinAddr: 0x1D904, symSize: 0x4 }
  - { offsetInCU: 0xE83, offset: 0xD3294, size: 0x8, addend: 0x0, symName: __ZN4absl12lts_2022062313cord_internal14ReverseConsumeEPNS1_7CordRepENS0_11FunctionRefIFvS3_mmEEE, symObjAddr: 0xE0, symBinAddr: 0x1D904, symSize: 0x4 }
  - { offsetInCU: 0x2EE6, offset: 0xD52F7, size: 0x8, addend: 0x0, symName: __ZN4absl12lts_2022062313cord_internal7ConsumeEPNS1_7CordRepENS0_11FunctionRefIFvS3_mmEEE.cold.1, symObjAddr: 0xE4, symBinAddr: 0x52ACC, symSize: 0x28 }
  - { offsetInCU: 0x2F28, offset: 0xD5339, size: 0x8, addend: 0x0, symName: __ZN4absl12lts_2022062313cord_internal7ConsumeEPNS1_7CordRepENS0_11FunctionRefIFvS3_mmEEE.cold.2, symObjAddr: 0x10C, symBinAddr: 0x52AF4, symSize: 0x28 }
  - { offsetInCU: 0x26, offset: 0xD53B7, size: 0x8, addend: 0x0, symName: __ZN4absl12lts_2022062313cord_internal10CordRepCrc3NewEPNS1_7CordRepEj, symObjAddr: 0x0, symBinAddr: 0x1D908, symSize: 0xE4 }
  - { offsetInCU: 0x2E4F, offset: 0xD81E0, size: 0x8, addend: 0x0, symName: __ZN4absl12lts_2022062313cord_internal10CordRepCrc3NewEPNS1_7CordRepEj, symObjAddr: 0x0, symBinAddr: 0x1D908, symSize: 0xE4 }
  - { offsetInCU: 0x31F6, offset: 0xD8587, size: 0x8, addend: 0x0, symName: __ZN4absl12lts_2022062313cord_internal10CordRepCrc3NewEPNS1_7CordRepEj.cold.2, symObjAddr: 0x170, symBinAddr: 0x52B44, symSize: 0x28 }
  - { offsetInCU: 0x3223, offset: 0xD85B4, size: 0x8, addend: 0x0, symName: __ZN4absl12lts_2022062313cord_internal10CordRepCrc3NewEPNS1_7CordRepEj.cold.1, symObjAddr: 0x148, symBinAddr: 0x52B1C, symSize: 0x28 }
  - { offsetInCU: 0x323B, offset: 0xD85CC, size: 0x8, addend: 0x0, symName: __ZN4absl12lts_2022062313cord_internal10CordRepCrc3NewEPNS1_7CordRepEj.cold.5, symObjAddr: 0x1E8, symBinAddr: 0x52BBC, symSize: 0x28 }
  - { offsetInCU: 0x3268, offset: 0xD85F9, size: 0x8, addend: 0x0, symName: __ZN4absl12lts_2022062313cord_internal10CordRepCrc3NewEPNS1_7CordRepEj.cold.3, symObjAddr: 0x198, symBinAddr: 0x52B6C, symSize: 0x28 }
  - { offsetInCU: 0x3295, offset: 0xD8626, size: 0x8, addend: 0x0, symName: __ZN4absl12lts_2022062313cord_internal10CordRepCrc3NewEPNS1_7CordRepEj.cold.4, symObjAddr: 0x1C0, symBinAddr: 0x52B94, symSize: 0x28 }
  - { offsetInCU: 0x32D8, offset: 0xD8669, size: 0x8, addend: 0x0, symName: __ZN4absl12lts_2022062313cord_internal10CordRepCrc7DestroyEPS2_, symObjAddr: 0xE4, symBinAddr: 0x1D9EC, symSize: 0x64 }
  - { offsetInCU: 0x339D, offset: 0xD872E, size: 0x8, addend: 0x0, symName: __ZN4absl12lts_2022062313cord_internal10CordRepCrc7DestroyEPS2_.cold.1, symObjAddr: 0x210, symBinAddr: 0x52BE4, symSize: 0x28 }
  - { offsetInCU: 0x33CA, offset: 0xD875B, size: 0x8, addend: 0x0, symName: __ZN4absl12lts_2022062313cord_internal10CordRepCrc7DestroyEPS2_.cold.2, symObjAddr: 0x238, symBinAddr: 0x52C0C, symSize: 0x28 }
  - { offsetInCU: 0x5C, offset: 0xD87FA, size: 0x8, addend: 0x0, symName: __ZN4absl12lts_2022062313cord_internal11CordRepRing12kMaxCapacityE, symObjAddr: 0x4CA8, symBinAddr: 0x5A170, symSize: 0x0 }
  - { offsetInCU: 0xC4E, offset: 0xD93EC, size: 0x8, addend: 0x0, symName: __ZN4absl12lts_2022062313cord_internal12_GLOBAL__N_112UnrefEntriesEPKNS1_11CordRepRingEjj, symObjAddr: 0x8AC, symBinAddr: 0x1E2A0, symSize: 0x90 }
  - { offsetInCU: 0xDB6, offset: 0xD9554, size: 0x8, addend: 0x0, symName: __ZN4absl12lts_2022062313cord_internal12_GLOBAL__N_110CreateFlatEPKcmm, symObjAddr: 0x1A58, symBinAddr: 0x1F44C, symSize: 0x54 }
  - { offsetInCU: 0xE1C, offset: 0xD95BA, size: 0x8, addend: 0x0, symName: __ZN4absl12lts_2022062313cord_internal11CordRepRing6Filler3AddEPNS1_7CordRepEmm, symObjAddr: 0x1AAC, symBinAddr: 0x1F4A0, symSize: 0x78 }
  - { offsetInCU: 0xE5C, offset: 0xD95FA, size: 0x8, addend: 0x0, symName: __ZN4absl12lts_2022062313cord_internallsERNSt3__113basic_ostreamIcNS2_11char_traitsIcEEEERKNS1_11CordRepRingE, symObjAddr: 0x0, symBinAddr: 0x1DA50, symSize: 0x288 }
  - { offsetInCU: 0x2065, offset: 0xDA803, size: 0x8, addend: 0x0, symName: '__ZN4absl12lts_2022062319functional_internal12InvokeObjectIZNS0_13cord_internal11CordRepRing10CreateSlowEPNS3_7CordRepEmE3$_0vJS6_mmEEET0_NS1_7VoidPtrEDpNS1_8ForwardTIT1_E4typeE', symObjAddr: 0x3140, symBinAddr: 0x20698, symSize: 0xD8 }
  - { offsetInCU: 0x21F2, offset: 0xDA990, size: 0x8, addend: 0x0, symName: '__ZN4absl12lts_2022062319functional_internal12InvokeObjectIZNS0_13cord_internal11CordRepRing10AppendSlowEPS4_PNS3_7CordRepEE3$_1vJS7_mmEEET0_NS1_7VoidPtrEDpNS1_8ForwardTIT1_E4typeE', symObjAddr: 0x3218, symBinAddr: 0x20770, symSize: 0x44 }
  - { offsetInCU: 0x2224, offset: 0xDA9C2, size: 0x8, addend: 0x0, symName: '__ZN4absl12lts_2022062319functional_internal12InvokeObjectIZNS0_13cord_internal11CordRepRing10AppendSlowEPS4_PNS3_7CordRepEE3$_1vJS7_mmEEET0_NS1_7VoidPtrEDpNS1_8ForwardTIT1_E4typeE', symObjAddr: 0x3218, symBinAddr: 0x20770, symSize: 0x44 }
  - { offsetInCU: 0x2346, offset: 0xDAAE4, size: 0x8, addend: 0x0, symName: '__ZN4absl12lts_2022062319functional_internal12InvokeObjectIZNS0_13cord_internal11CordRepRing11PrependSlowEPS4_PNS3_7CordRepEE3$_2vJS7_mmEEET0_NS1_7VoidPtrEDpNS1_8ForwardTIT1_E4typeE', symObjAddr: 0x34F4, symBinAddr: 0x20A4C, symSize: 0x58 }
  - { offsetInCU: 0x2476, offset: 0xDAC14, size: 0x8, addend: 0x0, symName: __ZN4absl12lts_2022062313cord_internallsERNSt3__113basic_ostreamIcNS2_11char_traitsIcEEEERKNS1_11CordRepRingE.cold.1, symObjAddr: 0x354C, symBinAddr: 0x52C34, symSize: 0x24 }
  - { offsetInCU: 0x5A6F, offset: 0xDE20D, size: 0x8, addend: 0x0, symName: __ZN4absl12lts_2022062313cord_internal11CordRepRing10CreateSlowEPNS1_7CordRepEm, symObjAddr: 0xF8C, symBinAddr: 0x1E980, symSize: 0x40 }
  - { offsetInCU: 0x5B10, offset: 0xDE2AE, size: 0x8, addend: 0x0, symName: __ZN4absl12lts_2022062313cord_internal11CordRepRing10AppendSlowEPS2_PNS1_7CordRepE, symObjAddr: 0x1048, symBinAddr: 0x1EA3C, symSize: 0x3C }
  - { offsetInCU: 0x5B8F, offset: 0xDE32D, size: 0x8, addend: 0x0, symName: __ZN4absl12lts_2022062313cord_internal11CordRepRing11PrependSlowEPS2_PNS1_7CordRepE, symObjAddr: 0x147C, symBinAddr: 0x1EE70, symSize: 0x3C }
  - { offsetInCU: 0x7BA7, offset: 0xE0345, size: 0x8, addend: 0x0, symName: __ZNK4absl12lts_2022062313cord_internal11CordRepRing17entry_data_offsetEj, symObjAddr: 0x2E4, symBinAddr: 0x1DCD8, symSize: 0x5C }
  - { offsetInCU: 0x7BB2, offset: 0xE0350, size: 0x8, addend: 0x0, symName: __ZNK4absl12lts_2022062313cord_internal11CordRepRing15entry_begin_posEj, symObjAddr: 0xDE4, symBinAddr: 0x1E7D8, symSize: 0x44 }
  - { offsetInCU: 0x7C16, offset: 0xE03B4, size: 0x8, addend: 0x0, symName: __ZN4absl12lts_2022062313cord_internal11CordRepRing16GetPrependBufferEm, symObjAddr: 0xE28, symBinAddr: 0x1E81C, symSize: 0xEC }
  - { offsetInCU: 0x7C21, offset: 0xE03BF, size: 0x8, addend: 0x0, symName: __ZNK4absl12lts_2022062313cord_internal11CordRepRing13entry_end_posEj, symObjAddr: 0x340, symBinAddr: 0x1DD34, symSize: 0x58 }
  - { offsetInCU: 0x7CA8, offset: 0xE0446, size: 0x8, addend: 0x0, symName: __ZN4absl12lts_2022062313cord_internal11CordRepRing13AddDataOffsetEjm, symObjAddr: 0x398, symBinAddr: 0x1DD8C, symSize: 0x34 }
  - { offsetInCU: 0x7CB3, offset: 0xE0451, size: 0x8, addend: 0x0, symName: __ZNK4absl12lts_2022062313cord_internal11CordRepRing17entry_data_offsetEj, symObjAddr: 0x2E4, symBinAddr: 0x1DCD8, symSize: 0x5C }
  - { offsetInCU: 0x7D35, offset: 0xE04D3, size: 0x8, addend: 0x0, symName: __ZNK4absl12lts_2022062313cord_internal11CordRepRing13entry_end_posEj, symObjAddr: 0x340, symBinAddr: 0x1DD34, symSize: 0x58 }
  - { offsetInCU: 0x7D40, offset: 0xE04DE, size: 0x8, addend: 0x0, symName: __ZN4absl12lts_2022062313cord_internallsERNSt3__113basic_ostreamIcNS2_11char_traitsIcEEEERKNS1_11CordRepRingE.cold.1, symObjAddr: 0x354C, symBinAddr: 0x52C34, symSize: 0x24 }
  - { offsetInCU: 0x7E56, offset: 0xE05F4, size: 0x8, addend: 0x0, symName: __ZNK4absl12lts_2022062313cord_internal11CordRepRing17entry_data_offsetEj.cold.2, symObjAddr: 0x35E0, symBinAddr: 0x52C7C, symSize: 0x28 }
  - { offsetInCU: 0x7E6E, offset: 0xE060C, size: 0x8, addend: 0x0, symName: __ZNK4absl12lts_2022062313cord_internal11CordRepRing17entry_data_offsetEj.cold.1, symObjAddr: 0x35BC, symBinAddr: 0x52C58, symSize: 0x24 }
  - { offsetInCU: 0x7EF0, offset: 0xE068E, size: 0x8, addend: 0x0, symName: __ZNK4absl12lts_2022062313cord_internal11CordRepRing13entry_end_posEj.cold.2, symObjAddr: 0x362C, symBinAddr: 0x52CC8, symSize: 0x28 }
  - { offsetInCU: 0x7F08, offset: 0xE06A6, size: 0x8, addend: 0x0, symName: __ZNK4absl12lts_2022062313cord_internal11CordRepRing13entry_end_posEj.cold.1, symObjAddr: 0x3608, symBinAddr: 0x52CA4, symSize: 0x24 }
  - { offsetInCU: 0x7FA2, offset: 0xE0740, size: 0x8, addend: 0x0, symName: __ZN4absl12lts_2022062313cord_internal11CordRepRing13AddDataOffsetEjm, symObjAddr: 0x398, symBinAddr: 0x1DD8C, symSize: 0x34 }
  - { offsetInCU: 0x8026, offset: 0xE07C4, size: 0x8, addend: 0x0, symName: __ZN4absl12lts_2022062313cord_internal11CordRepRing9SubLengthEjm, symObjAddr: 0x3CC, symBinAddr: 0x1DDC0, symSize: 0x2C }
  - { offsetInCU: 0x8031, offset: 0xE07CF, size: 0x8, addend: 0x0, symName: __ZN4absl12lts_2022062313cord_internal11CordRepRing13AddDataOffsetEjm.cold.1, symObjAddr: 0x3654, symBinAddr: 0x52CF0, symSize: 0x24 }
  - { offsetInCU: 0x80CB, offset: 0xE0869, size: 0x8, addend: 0x0, symName: __ZN4absl12lts_2022062313cord_internal11CordRepRing9SubLengthEjm, symObjAddr: 0x3CC, symBinAddr: 0x1DDC0, symSize: 0x2C }
  - { offsetInCU: 0x8137, offset: 0xE08D5, size: 0x8, addend: 0x0, symName: __ZNK4absl12lts_2022062313cord_internal11CordRepRing7IsValidERNSt3__113basic_ostreamIcNS3_11char_traitsIcEEEE, symObjAddr: 0x3F8, symBinAddr: 0x1DDEC, symSize: 0x344 }
  - { offsetInCU: 0x8142, offset: 0xE08E0, size: 0x8, addend: 0x0, symName: __ZN4absl12lts_2022062313cord_internal11CordRepRing9SubLengthEjm.cold.1, symObjAddr: 0x3678, symBinAddr: 0x52D14, symSize: 0x24 }
  - { offsetInCU: 0x81A9, offset: 0xE0947, size: 0x8, addend: 0x0, symName: __ZNK4absl12lts_2022062313cord_internal11CordRepRing7IsValidERNSt3__113basic_ostreamIcNS3_11char_traitsIcEEEE, symObjAddr: 0x3F8, symBinAddr: 0x1DDEC, symSize: 0x344 }
  - { offsetInCU: 0x8813, offset: 0xE0FB1, size: 0x8, addend: 0x0, symName: __ZN4absl12lts_2022062313cord_internal11CordRepRing3NewEmm, symObjAddr: 0x73C, symBinAddr: 0x1E130, symSize: 0x5C }
  - { offsetInCU: 0x881E, offset: 0xE0FBC, size: 0x8, addend: 0x0, symName: __ZNK4absl12lts_2022062313cord_internal11CordRepRing7IsValidERNSt3__113basic_ostreamIcNS3_11char_traitsIcEEEE.cold.1, symObjAddr: 0x369C, symBinAddr: 0x52D38, symSize: 0x24 }
  - { offsetInCU: 0x8A1F, offset: 0xE11BD, size: 0x8, addend: 0x0, symName: __ZN4absl12lts_2022062313cord_internal11CordRepRing3NewEmm, symObjAddr: 0x73C, symBinAddr: 0x1E130, symSize: 0x5C }
  - { offsetInCU: 0x8C5B, offset: 0xE13F9, size: 0x8, addend: 0x0, symName: __ZN4absl12lts_2022062313cord_internal11CordRepRing21SetCapacityForTestingEm, symObjAddr: 0x798, symBinAddr: 0x1E18C, symSize: 0xC8 }
  - { offsetInCU: 0x8D0B, offset: 0xE14A9, size: 0x8, addend: 0x0, symName: __ZN4absl12lts_2022062313cord_internal11CordRepRing21SetCapacityForTestingEm, symObjAddr: 0x798, symBinAddr: 0x1E18C, symSize: 0xC8 }
  - { offsetInCU: 0x8EA6, offset: 0xE1644, size: 0x8, addend: 0x0, symName: __ZN4absl12lts_2022062313cord_internal11CordRepRing6DeleteEPS2_, symObjAddr: 0x860, symBinAddr: 0x1E254, symSize: 0x24 }
  - { offsetInCU: 0x8EB1, offset: 0xE164F, size: 0x8, addend: 0x0, symName: __ZNK4absl12lts_2022062313cord_internal11CordRepRing7entriesEjj, symObjAddr: 0x9D8, symBinAddr: 0x1E3CC, symSize: 0x30 }
  - { offsetInCU: 0x8EF8, offset: 0xE1696, size: 0x8, addend: 0x0, symName: __ZN4absl12lts_2022062313cord_internal11CordRepRing4FillILb1EEEvPKS2_jj, symObjAddr: 0xA08, symBinAddr: 0x1E3FC, symSize: 0xD0 }
  - { offsetInCU: 0x8F03, offset: 0xE16A1, size: 0x8, addend: 0x0, symName: __ZN4absl12lts_2022062313cord_internal11CordRepRing21SetCapacityForTestingEm.cold.1, symObjAddr: 0x36C0, symBinAddr: 0x52D5C, symSize: 0x28 }
  - { offsetInCU: 0x8F1B, offset: 0xE16B9, size: 0x8, addend: 0x0, symName: __ZN4absl12lts_2022062313cord_internal11CordRepRing21SetCapacityForTestingEm.cold.2, symObjAddr: 0x36E8, symBinAddr: 0x52D84, symSize: 0x24 }
  - { offsetInCU: 0x8F48, offset: 0xE16E6, size: 0x8, addend: 0x0, symName: __ZN4absl12lts_2022062313cord_internal11CordRepRing21SetCapacityForTestingEm.cold.3, symObjAddr: 0x370C, symBinAddr: 0x52DA8, symSize: 0x28 }
  - { offsetInCU: 0x8F76, offset: 0xE1714, size: 0x8, addend: 0x0, symName: __ZN4absl12lts_2022062313cord_internal11CordRepRing6DeleteEPS2_, symObjAddr: 0x860, symBinAddr: 0x1E254, symSize: 0x24 }
  - { offsetInCU: 0x8FC7, offset: 0xE1765, size: 0x8, addend: 0x0, symName: __ZN4absl12lts_2022062313cord_internal11CordRepRing7DestroyEPS2_, symObjAddr: 0x884, symBinAddr: 0x1E278, symSize: 0x28 }
  - { offsetInCU: 0x8FE3, offset: 0xE1781, size: 0x8, addend: 0x0, symName: __ZN4absl12lts_2022062313cord_internal11CordRepRing6DeleteEPS2_.cold.1, symObjAddr: 0x3734, symBinAddr: 0x52DD0, symSize: 0x28 }
  - { offsetInCU: 0x8FFB, offset: 0xE1799, size: 0x8, addend: 0x0, symName: __ZN4absl12lts_2022062313cord_internal11CordRepRing7DestroyEPS2_, symObjAddr: 0x884, symBinAddr: 0x1E278, symSize: 0x28 }
  - { offsetInCU: 0x90E1, offset: 0xE187F, size: 0x8, addend: 0x0, symName: '__ZZN4absl12lts_2022062313cord_internal12_GLOBAL__N_112UnrefEntriesEPKNS1_11CordRepRingEjjENK3$_3clEj', symObjAddr: 0x2680, symBinAddr: 0x20074, symSize: 0xA4 }
  - { offsetInCU: 0x92C6, offset: 0xE1A64, size: 0x8, addend: 0x0, symName: __ZN4absl12lts_2022062313cord_internal11CordRepRing4CopyEPS2_jjm, symObjAddr: 0x93C, symBinAddr: 0x1E330, symSize: 0x9C }
  - { offsetInCU: 0x9426, offset: 0xE1BC4, size: 0x8, addend: 0x0, symName: __ZN4absl12lts_2022062313cord_internal11CordRepRing4FillILb1EEEvPKS2_jj, symObjAddr: 0xA08, symBinAddr: 0x1E3FC, symSize: 0xD0 }
  - { offsetInCU: 0x9615, offset: 0xE1DB3, size: 0x8, addend: 0x0, symName: __ZN4absl12lts_2022062313cord_internal11CordRepRing7MutableEPS2_m, symObjAddr: 0xAD8, symBinAddr: 0x1E4CC, symSize: 0xA0 }
  - { offsetInCU: 0x962A, offset: 0xE1DC8, size: 0x8, addend: 0x0, symName: __ZN4absl12lts_2022062313cord_internal11CordRepRing4CopyEPS2_jjm.cold.1, symObjAddr: 0x375C, symBinAddr: 0x52DF8, symSize: 0x24 }
  - { offsetInCU: 0x9658, offset: 0xE1DF6, size: 0x8, addend: 0x0, symName: __ZN4absl12lts_2022062313cord_internal11CordRepRing4CopyEPS2_jjm.cold.2, symObjAddr: 0x3780, symBinAddr: 0x52E1C, symSize: 0x24 }
  - { offsetInCU: 0x969C, offset: 0xE1E3A, size: 0x8, addend: 0x0, symName: __ZNK4absl12lts_2022062313cord_internal11CordRepRing7entriesEjj.cold.1, symObjAddr: 0x37A4, symBinAddr: 0x52E40, symSize: 0x28 }
  - { offsetInCU: 0x9718, offset: 0xE1EB6, size: 0x8, addend: 0x0, symName: __ZNK4absl12lts_2022062313cord_internal11CordRepRing7ForEachIZNS2_4FillILb1EEEvPKS2_jjEUljE_EEvjjOT_, symObjAddr: 0x2BC0, symBinAddr: 0x20118, symSize: 0x190 }
  - { offsetInCU: 0x998E, offset: 0xE212C, size: 0x8, addend: 0x0, symName: __ZNK4absl12lts_2022062313cord_internal11CordRepRing7ForEachIZNS2_4FillILb0EEEvPKS2_jjEUljE_EEvjjOT_, symObjAddr: 0x2D50, symBinAddr: 0x202A8, symSize: 0x158 }
  - { offsetInCU: 0x99A2, offset: 0xE2140, size: 0x8, addend: 0x0, symName: __ZN4absl12lts_2022062313cord_internal11CordRepRing4FillILb1EEEvPKS2_jj.cold.1, symObjAddr: 0x37CC, symBinAddr: 0x52E68, symSize: 0x24 }
  - { offsetInCU: 0x99CF, offset: 0xE216D, size: 0x8, addend: 0x0, symName: __ZN4absl12lts_2022062313cord_internal11CordRepRing4FillILb1EEEvPKS2_jj.cold.2, symObjAddr: 0x37F0, symBinAddr: 0x52E8C, symSize: 0x24 }
  - { offsetInCU: 0x9A29, offset: 0xE21C7, size: 0x8, addend: 0x0, symName: __ZN4absl12lts_2022062313cord_internal11CordRepRing7MutableEPS2_m, symObjAddr: 0xAD8, symBinAddr: 0x1E4CC, symSize: 0xA0 }
  - { offsetInCU: 0x9BEA, offset: 0xE2388, size: 0x8, addend: 0x0, symName: __ZN4absl12lts_2022062313cord_internal11CordRepRing4FillILb0EEEvPKS2_jj, symObjAddr: 0xB78, symBinAddr: 0x1E56C, symSize: 0xD0 }
  - { offsetInCU: 0x9DD9, offset: 0xE2577, size: 0x8, addend: 0x0, symName: __ZN4absl12lts_2022062313cord_internal11CordRepRing15GetAppendBufferEm, symObjAddr: 0xC48, symBinAddr: 0x1E63C, symSize: 0x19C }
  - { offsetInCU: 0x9DF4, offset: 0xE2592, size: 0x8, addend: 0x0, symName: __ZNK4absl12lts_2022062313cord_internal11CordRepRing7ForEachIZNS2_4FillILb0EEEvPKS2_jjEUljE_EEvjjOT_, symObjAddr: 0x2D50, symBinAddr: 0x202A8, symSize: 0x158 }
  - { offsetInCU: 0x9F70, offset: 0xE270E, size: 0x8, addend: 0x0, symName: __ZN4absl12lts_2022062313cord_internal11CordRepRing4FillILb0EEEvPKS2_jj.cold.1, symObjAddr: 0x3814, symBinAddr: 0x52EB0, symSize: 0x24 }
  - { offsetInCU: 0x9F9D, offset: 0xE273B, size: 0x8, addend: 0x0, symName: __ZN4absl12lts_2022062313cord_internal11CordRepRing4FillILb0EEEvPKS2_jj.cold.2, symObjAddr: 0x3838, symBinAddr: 0x52ED4, symSize: 0x24 }
  - { offsetInCU: 0xA025, offset: 0xE27C3, size: 0x8, addend: 0x0, symName: __ZN4absl12lts_2022062313cord_internal11CordRepRing15GetAppendBufferEm, symObjAddr: 0xC48, symBinAddr: 0x1E63C, symSize: 0x19C }
  - { offsetInCU: 0xA355, offset: 0xE2AF3, size: 0x8, addend: 0x0, symName: __ZNK4absl12lts_2022062313cord_internal11CordRepRing15entry_begin_posEj, symObjAddr: 0xDE4, symBinAddr: 0x1E7D8, symSize: 0x44 }
  - { offsetInCU: 0xA360, offset: 0xE2AFE, size: 0x8, addend: 0x0, symName: __ZN4absl12lts_2022062313cord_internal11CordRepRing15GetAppendBufferEm.cold.5, symObjAddr: 0x38EC, symBinAddr: 0x52F88, symSize: 0x28 }
  - { offsetInCU: 0xA378, offset: 0xE2B16, size: 0x8, addend: 0x0, symName: __ZN4absl12lts_2022062313cord_internal11CordRepRing15GetAppendBufferEm.cold.4, symObjAddr: 0x38C8, symBinAddr: 0x52F64, symSize: 0x24 }
  - { offsetInCU: 0xA3A6, offset: 0xE2B44, size: 0x8, addend: 0x0, symName: __ZN4absl12lts_2022062313cord_internal11CordRepRing15GetAppendBufferEm.cold.1, symObjAddr: 0x385C, symBinAddr: 0x52EF8, symSize: 0x24 }
  - { offsetInCU: 0xA3D4, offset: 0xE2B72, size: 0x8, addend: 0x0, symName: __ZN4absl12lts_2022062313cord_internal11CordRepRing15GetAppendBufferEm.cold.3, symObjAddr: 0x38A4, symBinAddr: 0x52F40, symSize: 0x24 }
  - { offsetInCU: 0xA418, offset: 0xE2BB6, size: 0x8, addend: 0x0, symName: __ZN4absl12lts_2022062313cord_internal11CordRepRing15GetAppendBufferEm.cold.2, symObjAddr: 0x3880, symBinAddr: 0x52F1C, symSize: 0x24 }
  - { offsetInCU: 0xA446, offset: 0xE2BE4, size: 0x8, addend: 0x0, symName: __ZNK4absl12lts_2022062313cord_internal11CordRepRing15entry_begin_posEj.cold.1, symObjAddr: 0x3914, symBinAddr: 0x52FB0, symSize: 0x24 }
  - { offsetInCU: 0xA474, offset: 0xE2C12, size: 0x8, addend: 0x0, symName: __ZN4absl12lts_2022062313cord_internal11CordRepRing16GetPrependBufferEm, symObjAddr: 0xE28, symBinAddr: 0x1E81C, symSize: 0xEC }
  - { offsetInCU: 0xA65F, offset: 0xE2DFD, size: 0x8, addend: 0x0, symName: __ZN4absl12lts_2022062313cord_internal11CordRepRing14CreateFromLeafEPNS1_7CordRepEmmm, symObjAddr: 0xF14, symBinAddr: 0x1E908, symSize: 0x78 }
  - { offsetInCU: 0xA66A, offset: 0xE2E08, size: 0x8, addend: 0x0, symName: __ZN4absl12lts_2022062313cord_internal11CordRepRing16GetPrependBufferEm.cold.3, symObjAddr: 0x3980, symBinAddr: 0x5301C, symSize: 0x28 }
  - { offsetInCU: 0xA682, offset: 0xE2E20, size: 0x8, addend: 0x0, symName: __ZN4absl12lts_2022062313cord_internal11CordRepRing16GetPrependBufferEm.cold.2, symObjAddr: 0x395C, symBinAddr: 0x52FF8, symSize: 0x24 }
  - { offsetInCU: 0xA6C6, offset: 0xE2E64, size: 0x8, addend: 0x0, symName: __ZN4absl12lts_2022062313cord_internal11CordRepRing16GetPrependBufferEm.cold.1, symObjAddr: 0x3938, symBinAddr: 0x52FD4, symSize: 0x24 }
  - { offsetInCU: 0xA71A, offset: 0xE2EB8, size: 0x8, addend: 0x0, symName: __ZN4absl12lts_2022062313cord_internal11CordRepRing14CreateFromLeafEPNS1_7CordRepEmmm, symObjAddr: 0xF14, symBinAddr: 0x1E908, symSize: 0x78 }
  - { offsetInCU: 0xA859, offset: 0xE2FF7, size: 0x8, addend: 0x0, symName: __ZN4absl12lts_2022062313cord_internal11CordRepRing10CreateSlowEPNS1_7CordRepEm, symObjAddr: 0xF8C, symBinAddr: 0x1E980, symSize: 0x40 }
  - { offsetInCU: 0xA864, offset: 0xE3002, size: 0x8, addend: 0x0, symName: __ZN4absl12lts_2022062313cord_internal11CordRepRing14CreateFromLeafEPNS1_7CordRepEmmm.cold.1, symObjAddr: 0x39A8, symBinAddr: 0x53044, symSize: 0x24 }
  - { offsetInCU: 0xA892, offset: 0xE3030, size: 0x8, addend: 0x0, symName: __ZN4absl12lts_2022062313cord_internal11CordRepRing14CreateFromLeafEPNS1_7CordRepEmmm.cold.2, symObjAddr: 0x39CC, symBinAddr: 0x53068, symSize: 0x24 }
  - { offsetInCU: 0xA91B, offset: 0xE30B9, size: 0x8, addend: 0x0, symName: __ZN4absl12lts_2022062313cord_internal11CordRepRing6CreateEPNS1_7CordRepEm, symObjAddr: 0xFCC, symBinAddr: 0x1E9C0, symSize: 0x7C }
  - { offsetInCU: 0xAA01, offset: 0xE319F, size: 0x8, addend: 0x0, symName: __ZN4absl12lts_2022062313cord_internal11CordRepRing10AppendLeafEPS2_PNS1_7CordRepEmm, symObjAddr: 0x1084, symBinAddr: 0x1EA78, symSize: 0x8C }
  - { offsetInCU: 0xAB38, offset: 0xE32D6, size: 0x8, addend: 0x0, symName: __ZN4absl12lts_2022062313cord_internal11CordRepRing6AppendEPS2_PNS1_7CordRepE, symObjAddr: 0x1110, symBinAddr: 0x1EB04, symSize: 0x7C }
  - { offsetInCU: 0xAB43, offset: 0xE32E1, size: 0x8, addend: 0x0, symName: __ZN4absl12lts_2022062313cord_internal11CordRepRing10AppendLeafEPS2_PNS1_7CordRepEmm.cold.2, symObjAddr: 0x3A14, symBinAddr: 0x530B0, symSize: 0x24 }
  - { offsetInCU: 0xAB71, offset: 0xE330F, size: 0x8, addend: 0x0, symName: __ZN4absl12lts_2022062313cord_internal11CordRepRing10AppendLeafEPS2_PNS1_7CordRepEmm.cold.1, symObjAddr: 0x39F0, symBinAddr: 0x5308C, symSize: 0x24 }
  - { offsetInCU: 0xABD8, offset: 0xE3376, size: 0x8, addend: 0x0, symName: __ZN4absl12lts_2022062313cord_internal11CordRepRing6AppendEPS2_PNS1_7CordRepE, symObjAddr: 0x1110, symBinAddr: 0x1EB04, symSize: 0x7C }
  - { offsetInCU: 0xACBB, offset: 0xE3459, size: 0x8, addend: 0x0, symName: __ZN4absl12lts_2022062313cord_internal11CordRepRing7AddRingILNS2_7AddModeE0EEEPS2_S5_S5_mm, symObjAddr: 0x118C, symBinAddr: 0x1EB80, symSize: 0x2F0 }
  - { offsetInCU: 0xB3C3, offset: 0xE3B61, size: 0x8, addend: 0x0, symName: __ZNK4absl12lts_2022062313cord_internal11CordRepRing8FindSlowEjm, symObjAddr: 0x1D08, symBinAddr: 0x1F6FC, symSize: 0xD8 }
  - { offsetInCU: 0xB557, offset: 0xE3CF5, size: 0x8, addend: 0x0, symName: __ZNK4absl12lts_2022062313cord_internal11CordRepRing10FindBinaryILb0EEEjjjm, symObjAddr: 0x1DE0, symBinAddr: 0x1F7D4, symSize: 0xA8 }
  - { offsetInCU: 0xB562, offset: 0xE3D00, size: 0x8, addend: 0x0, symName: __ZNK4absl12lts_2022062313cord_internal11CordRepRing12FindTailSlowEjm, symObjAddr: 0x1F78, symBinAddr: 0x1F96C, symSize: 0xE4 }
  - { offsetInCU: 0xB6C1, offset: 0xE3E5F, size: 0x8, addend: 0x0, symName: __ZNK4absl12lts_2022062313cord_internal11CordRepRing12GetCharacterEm, symObjAddr: 0x205C, symBinAddr: 0x1FA50, symSize: 0x100 }
  - { offsetInCU: 0xB6D8, offset: 0xE3E76, size: 0x8, addend: 0x0, symName: __ZNK4absl12lts_2022062313cord_internal11CordRepRing7ForEachIZNS2_7AddRingILNS2_7AddModeE0EEEPS2_S6_S6_mmEUljE_EEvjjOT_, symObjAddr: 0x2EA8, symBinAddr: 0x20400, symSize: 0x130 }
  - { offsetInCU: 0xB888, offset: 0xE4026, size: 0x8, addend: 0x0, symName: __ZNK4absl12lts_2022062313cord_internal11CordRepRing7ForEachIZNS2_7AddRingILNS2_7AddModeE0EEEPS2_S6_S6_mmEUljE0_EEvjjOT_, symObjAddr: 0x2FD8, symBinAddr: 0x20530, symSize: 0x168 }
  - { offsetInCU: 0xBB3E, offset: 0xE42DC, size: 0x8, addend: 0x0, symName: '__ZN4absl12lts_2022062319functional_internal12InvokeObjectIZNS0_13cord_internal11CordRepRing10CreateSlowEPNS3_7CordRepEmE3$_0vJS6_mmEEET0_NS1_7VoidPtrEDpNS1_8ForwardTIT1_E4typeE', symObjAddr: 0x3140, symBinAddr: 0x20698, symSize: 0xD8 }
  - { offsetInCU: 0xBB52, offset: 0xE42F0, size: 0x8, addend: 0x0, symName: __ZN4absl12lts_2022062313cord_internal11CordRepRing7AddRingILNS2_7AddModeE0EEEPS2_S5_S5_mm.cold.2, symObjAddr: 0x3A5C, symBinAddr: 0x530F8, symSize: 0x24 }
  - { offsetInCU: 0xBB80, offset: 0xE431E, size: 0x8, addend: 0x0, symName: __ZN4absl12lts_2022062313cord_internal11CordRepRing7AddRingILNS2_7AddModeE0EEEPS2_S5_S5_mm.cold.1, symObjAddr: 0x3A38, symBinAddr: 0x530D4, symSize: 0x24 }
  - { offsetInCU: 0xBBAE, offset: 0xE434C, size: 0x8, addend: 0x0, symName: __ZN4absl12lts_2022062313cord_internal11CordRepRing7AddRingILNS2_7AddModeE0EEEPS2_S5_S5_mm.cold.8, symObjAddr: 0x3B34, symBinAddr: 0x531D0, symSize: 0x28 }
  - { offsetInCU: 0xBBC6, offset: 0xE4364, size: 0x8, addend: 0x0, symName: __ZN4absl12lts_2022062313cord_internal11CordRepRing7AddRingILNS2_7AddModeE0EEEPS2_S5_S5_mm.cold.5, symObjAddr: 0x3AC8, symBinAddr: 0x53164, symSize: 0x24 }
  - { offsetInCU: 0xBC1F, offset: 0xE43BD, size: 0x8, addend: 0x0, symName: __ZN4absl12lts_2022062313cord_internal11CordRepRing7AddRingILNS2_7AddModeE0EEEPS2_S5_S5_mm.cold.4, symObjAddr: 0x3AA4, symBinAddr: 0x53140, symSize: 0x24 }
  - { offsetInCU: 0xBC4D, offset: 0xE43EB, size: 0x8, addend: 0x0, symName: __ZN4absl12lts_2022062313cord_internal11CordRepRing7AddRingILNS2_7AddModeE0EEEPS2_S5_S5_mm.cold.3, symObjAddr: 0x3A80, symBinAddr: 0x5311C, symSize: 0x24 }
  - { offsetInCU: 0xBCA6, offset: 0xE4444, size: 0x8, addend: 0x0, symName: __ZN4absl12lts_2022062313cord_internal11CordRepRing7AddRingILNS2_7AddModeE0EEEPS2_S5_S5_mm.cold.6, symObjAddr: 0x3AEC, symBinAddr: 0x53188, symSize: 0x24 }
  - { offsetInCU: 0xBCD4, offset: 0xE4472, size: 0x8, addend: 0x0, symName: __ZN4absl12lts_2022062313cord_internal11CordRepRing7AddRingILNS2_7AddModeE0EEEPS2_S5_S5_mm.cold.7, symObjAddr: 0x3B10, symBinAddr: 0x531AC, symSize: 0x24 }
  - { offsetInCU: 0xBD18, offset: 0xE44B6, size: 0x8, addend: 0x0, symName: __ZN4absl12lts_2022062313cord_internal11CordRepRing11PrependLeafEPS2_PNS1_7CordRepEmm, symObjAddr: 0x14B8, symBinAddr: 0x1EEAC, symSize: 0x94 }
  - { offsetInCU: 0xBE4F, offset: 0xE45ED, size: 0x8, addend: 0x0, symName: __ZN4absl12lts_2022062313cord_internal11CordRepRing7PrependEPS2_PNS1_7CordRepE, symObjAddr: 0x154C, symBinAddr: 0x1EF40, symSize: 0x7C }
  - { offsetInCU: 0xBE5A, offset: 0xE45F8, size: 0x8, addend: 0x0, symName: __ZN4absl12lts_2022062313cord_internal11CordRepRing11PrependLeafEPS2_PNS1_7CordRepEmm.cold.2, symObjAddr: 0x3B80, symBinAddr: 0x5321C, symSize: 0x24 }
  - { offsetInCU: 0xBE88, offset: 0xE4626, size: 0x8, addend: 0x0, symName: __ZN4absl12lts_2022062313cord_internal11CordRepRing11PrependLeafEPS2_PNS1_7CordRepEmm.cold.1, symObjAddr: 0x3B5C, symBinAddr: 0x531F8, symSize: 0x24 }
  - { offsetInCU: 0xBEEF, offset: 0xE468D, size: 0x8, addend: 0x0, symName: __ZN4absl12lts_2022062313cord_internal11CordRepRing7PrependEPS2_PNS1_7CordRepE, symObjAddr: 0x154C, symBinAddr: 0x1EF40, symSize: 0x7C }
  - { offsetInCU: 0xBFD2, offset: 0xE4770, size: 0x8, addend: 0x0, symName: __ZN4absl12lts_2022062313cord_internal11CordRepRing7AddRingILNS2_7AddModeE1EEEPS2_S5_S5_mm, symObjAddr: 0x15C8, symBinAddr: 0x1EFBC, symSize: 0x31C }
  - { offsetInCU: 0xC644, offset: 0xE4DE2, size: 0x8, addend: 0x0, symName: __ZNK4absl12lts_2022062313cord_internal11CordRepRing7ForEachIZNS2_7AddRingILNS2_7AddModeE1EEEPS2_S6_S6_mmEUljE_EEvjjOT_, symObjAddr: 0x325C, symBinAddr: 0x207B4, symSize: 0x130 }
  - { offsetInCU: 0xC7F4, offset: 0xE4F92, size: 0x8, addend: 0x0, symName: __ZNK4absl12lts_2022062313cord_internal11CordRepRing7ForEachIZNS2_7AddRingILNS2_7AddModeE1EEEPS2_S6_S6_mmEUljE0_EEvjjOT_, symObjAddr: 0x338C, symBinAddr: 0x208E4, symSize: 0x168 }
  - { offsetInCU: 0xCAAA, offset: 0xE5248, size: 0x8, addend: 0x0, symName: '__ZN4absl12lts_2022062319functional_internal12InvokeObjectIZNS0_13cord_internal11CordRepRing11PrependSlowEPS4_PNS3_7CordRepEE3$_2vJS7_mmEEET0_NS1_7VoidPtrEDpNS1_8ForwardTIT1_E4typeE', symObjAddr: 0x34F4, symBinAddr: 0x20A4C, symSize: 0x58 }
  - { offsetInCU: 0xCABE, offset: 0xE525C, size: 0x8, addend: 0x0, symName: __ZN4absl12lts_2022062313cord_internal11CordRepRing7AddRingILNS2_7AddModeE1EEEPS2_S5_S5_mm.cold.2, symObjAddr: 0x3BC8, symBinAddr: 0x53264, symSize: 0x24 }
  - { offsetInCU: 0xCAEC, offset: 0xE528A, size: 0x8, addend: 0x0, symName: __ZN4absl12lts_2022062313cord_internal11CordRepRing7AddRingILNS2_7AddModeE1EEEPS2_S5_S5_mm.cold.1, symObjAddr: 0x3BA4, symBinAddr: 0x53240, symSize: 0x24 }
  - { offsetInCU: 0xCB1A, offset: 0xE52B8, size: 0x8, addend: 0x0, symName: __ZN4absl12lts_2022062313cord_internal11CordRepRing7AddRingILNS2_7AddModeE1EEEPS2_S5_S5_mm.cold.9, symObjAddr: 0x3CC8, symBinAddr: 0x53364, symSize: 0x28 }
  - { offsetInCU: 0xCB32, offset: 0xE52D0, size: 0x8, addend: 0x0, symName: __ZN4absl12lts_2022062313cord_internal11CordRepRing7AddRingILNS2_7AddModeE1EEEPS2_S5_S5_mm.cold.3, symObjAddr: 0x3BEC, symBinAddr: 0x53288, symSize: 0x28 }
  - { offsetInCU: 0xCB60, offset: 0xE52FE, size: 0x8, addend: 0x0, symName: __ZN4absl12lts_2022062313cord_internal11CordRepRing7AddRingILNS2_7AddModeE1EEEPS2_S5_S5_mm.cold.6, symObjAddr: 0x3C5C, symBinAddr: 0x532F8, symSize: 0x24 }
  - { offsetInCU: 0xCBB9, offset: 0xE5357, size: 0x8, addend: 0x0, symName: __ZN4absl12lts_2022062313cord_internal11CordRepRing7AddRingILNS2_7AddModeE1EEEPS2_S5_S5_mm.cold.5, symObjAddr: 0x3C38, symBinAddr: 0x532D4, symSize: 0x24 }
  - { offsetInCU: 0xCBE7, offset: 0xE5385, size: 0x8, addend: 0x0, symName: __ZN4absl12lts_2022062313cord_internal11CordRepRing7AddRingILNS2_7AddModeE1EEEPS2_S5_S5_mm.cold.4, symObjAddr: 0x3C14, symBinAddr: 0x532B0, symSize: 0x24 }
  - { offsetInCU: 0xCC40, offset: 0xE53DE, size: 0x8, addend: 0x0, symName: __ZN4absl12lts_2022062313cord_internal11CordRepRing7AddRingILNS2_7AddModeE1EEEPS2_S5_S5_mm.cold.7, symObjAddr: 0x3C80, symBinAddr: 0x5331C, symSize: 0x24 }
  - { offsetInCU: 0xCC6E, offset: 0xE540C, size: 0x8, addend: 0x0, symName: __ZN4absl12lts_2022062313cord_internal11CordRepRing7AddRingILNS2_7AddModeE1EEEPS2_S5_S5_mm.cold.8, symObjAddr: 0x3CA4, symBinAddr: 0x53340, symSize: 0x24 }
  - { offsetInCU: 0xCD2A, offset: 0xE54C8, size: 0x8, addend: 0x0, symName: __ZN4absl12lts_2022062313cord_internal11CordRepRing6AppendEPS2_NS0_11string_viewEm, symObjAddr: 0x18E4, symBinAddr: 0x1F2D8, symSize: 0x174 }
  - { offsetInCU: 0xCFF3, offset: 0xE5791, size: 0x8, addend: 0x0, symName: __ZN4absl12lts_2022062313cord_internal12_GLOBAL__N_110CreateFlatEPKcmm, symObjAddr: 0x1A58, symBinAddr: 0x1F44C, symSize: 0x54 }
  - { offsetInCU: 0xD199, offset: 0xE5937, size: 0x8, addend: 0x0, symName: __ZN4absl12lts_2022062313cord_internal11CordRepRing6Filler3AddEPNS1_7CordRepEmm, symObjAddr: 0x1AAC, symBinAddr: 0x1F4A0, symSize: 0x78 }
  - { offsetInCU: 0xD2E1, offset: 0xE5A7F, size: 0x8, addend: 0x0, symName: __ZN4absl12lts_2022062313cord_internal11CordRepRing7PrependEPS2_NS0_11string_viewEm, symObjAddr: 0x1B24, symBinAddr: 0x1F518, symSize: 0x1E4 }
  - { offsetInCU: 0xD2EC, offset: 0xE5A8A, size: 0x8, addend: 0x0, symName: __ZN4absl12lts_2022062313cord_internal11CordRepRing6AppendEPS2_NS0_11string_viewEm.cold.1, symObjAddr: 0x3CF0, symBinAddr: 0x5338C, symSize: 0x28 }
  - { offsetInCU: 0xD330, offset: 0xE5ACE, size: 0x8, addend: 0x0, symName: __ZN4absl12lts_2022062313cord_internal12_GLOBAL__N_110CreateFlatEPKcmm.cold.1, symObjAddr: 0x3D18, symBinAddr: 0x533B4, symSize: 0x28 }
  - { offsetInCU: 0xD348, offset: 0xE5AE6, size: 0x8, addend: 0x0, symName: __ZN4absl12lts_2022062313cord_internal11CordRepRing6Filler3AddEPNS1_7CordRepEmm.cold.3, symObjAddr: 0x3D88, symBinAddr: 0x53424, symSize: 0x24 }
  - { offsetInCU: 0xD38B, offset: 0xE5B29, size: 0x8, addend: 0x0, symName: __ZN4absl12lts_2022062313cord_internal11CordRepRing6Filler3AddEPNS1_7CordRepEmm.cold.2, symObjAddr: 0x3D64, symBinAddr: 0x53400, symSize: 0x24 }
  - { offsetInCU: 0xD3CE, offset: 0xE5B6C, size: 0x8, addend: 0x0, symName: __ZN4absl12lts_2022062313cord_internal11CordRepRing6Filler3AddEPNS1_7CordRepEmm.cold.1, symObjAddr: 0x3D40, symBinAddr: 0x533DC, symSize: 0x24 }
  - { offsetInCU: 0xD460, offset: 0xE5BFE, size: 0x8, addend: 0x0, symName: __ZN4absl12lts_2022062313cord_internal11CordRepRing7PrependEPS2_NS0_11string_viewEm, symObjAddr: 0x1B24, symBinAddr: 0x1F518, symSize: 0x1E4 }
  - { offsetInCU: 0xD7EB, offset: 0xE5F89, size: 0x8, addend: 0x0, symName: __ZNK4absl12lts_2022062313cord_internal11CordRepRing8FindSlowEjm, symObjAddr: 0x1D08, symBinAddr: 0x1F6FC, symSize: 0xD8 }
  - { offsetInCU: 0xD7F6, offset: 0xE5F94, size: 0x8, addend: 0x0, symName: __ZN4absl12lts_2022062313cord_internal11CordRepRing7PrependEPS2_NS0_11string_viewEm.cold.3, symObjAddr: 0x3DFC, symBinAddr: 0x53498, symSize: 0x24 }
  - { offsetInCU: 0xD80E, offset: 0xE5FAC, size: 0x8, addend: 0x0, symName: __ZN4absl12lts_2022062313cord_internal11CordRepRing7PrependEPS2_NS0_11string_viewEm.cold.1, symObjAddr: 0x3DAC, symBinAddr: 0x53448, symSize: 0x28 }
  - { offsetInCU: 0xD83C, offset: 0xE5FDA, size: 0x8, addend: 0x0, symName: __ZN4absl12lts_2022062313cord_internal11CordRepRing7PrependEPS2_NS0_11string_viewEm.cold.2, symObjAddr: 0x3DD4, symBinAddr: 0x53470, symSize: 0x28 }
  - { offsetInCU: 0xD880, offset: 0xE601E, size: 0x8, addend: 0x0, symName: __ZN4absl12lts_2022062313cord_internal11CordRepRing7PrependEPS2_NS0_11string_viewEm.cold.4, symObjAddr: 0x3E20, symBinAddr: 0x534BC, symSize: 0x28 }
  - { offsetInCU: 0xD8C4, offset: 0xE6062, size: 0x8, addend: 0x0, symName: __ZNK4absl12lts_2022062313cord_internal11CordRepRing10FindBinaryILb0EEEjjjm, symObjAddr: 0x1DE0, symBinAddr: 0x1F7D4, symSize: 0xA8 }
  - { offsetInCU: 0xD9E9, offset: 0xE6187, size: 0x8, addend: 0x0, symName: __ZNK4absl12lts_2022062313cord_internal11CordRepRing10FindBinaryILb1EEEjjjm, symObjAddr: 0x1E88, symBinAddr: 0x1F87C, symSize: 0xF0 }
  - { offsetInCU: 0xD9FE, offset: 0xE619C, size: 0x8, addend: 0x0, symName: __ZNK4absl12lts_2022062313cord_internal11CordRepRing10FindBinaryILb1EEEjjjm, symObjAddr: 0x1E88, symBinAddr: 0x1F87C, symSize: 0xF0 }
  - { offsetInCU: 0xDB86, offset: 0xE6324, size: 0x8, addend: 0x0, symName: __ZNK4absl12lts_2022062313cord_internal11CordRepRing12FindTailSlowEjm, symObjAddr: 0x1F78, symBinAddr: 0x1F96C, symSize: 0xE4 }
  - { offsetInCU: 0xDB9B, offset: 0xE6339, size: 0x8, addend: 0x0, symName: __ZNK4absl12lts_2022062313cord_internal11CordRepRing8FindSlowEjm.cold.1, symObjAddr: 0x3E48, symBinAddr: 0x534E4, symSize: 0x24 }
  - { offsetInCU: 0xDBEB, offset: 0xE6389, size: 0x8, addend: 0x0, symName: __ZNK4absl12lts_2022062313cord_internal11CordRepRing10FindBinaryILb0EEEjjjm.cold.2, symObjAddr: 0x3E94, symBinAddr: 0x53530, symSize: 0x28 }
  - { offsetInCU: 0xDC03, offset: 0xE63A1, size: 0x8, addend: 0x0, symName: __ZNK4absl12lts_2022062313cord_internal11CordRepRing10FindBinaryILb0EEEjjjm.cold.1, symObjAddr: 0x3E6C, symBinAddr: 0x53508, symSize: 0x28 }
  - { offsetInCU: 0xDC1B, offset: 0xE63B9, size: 0x8, addend: 0x0, symName: __ZNK4absl12lts_2022062313cord_internal11CordRepRing10FindBinaryILb1EEEjjjm.cold.4, symObjAddr: 0x3F2C, symBinAddr: 0x535C8, symSize: 0x28 }
  - { offsetInCU: 0xDC33, offset: 0xE63D1, size: 0x8, addend: 0x0, symName: __ZNK4absl12lts_2022062313cord_internal11CordRepRing10FindBinaryILb1EEEjjjm.cold.1, symObjAddr: 0x3EBC, symBinAddr: 0x53558, symSize: 0x24 }
  - { offsetInCU: 0xDC61, offset: 0xE63FF, size: 0x8, addend: 0x0, symName: __ZNK4absl12lts_2022062313cord_internal11CordRepRing10FindBinaryILb1EEEjjjm.cold.3, symObjAddr: 0x3F08, symBinAddr: 0x535A4, symSize: 0x24 }
  - { offsetInCU: 0xDC8F, offset: 0xE642D, size: 0x8, addend: 0x0, symName: __ZNK4absl12lts_2022062313cord_internal11CordRepRing10FindBinaryILb1EEEjjjm.cold.2, symObjAddr: 0x3EE0, symBinAddr: 0x5357C, symSize: 0x28 }
  - { offsetInCU: 0xDCA7, offset: 0xE6445, size: 0x8, addend: 0x0, symName: __ZNK4absl12lts_2022062313cord_internal11CordRepRing12FindTailSlowEjm.cold.2, symObjAddr: 0x3F78, symBinAddr: 0x53614, symSize: 0x24 }
  - { offsetInCU: 0xDCD5, offset: 0xE6473, size: 0x8, addend: 0x0, symName: __ZNK4absl12lts_2022062313cord_internal11CordRepRing12FindTailSlowEjm.cold.1, symObjAddr: 0x3F54, symBinAddr: 0x535F0, symSize: 0x24 }
  - { offsetInCU: 0xDD75, offset: 0xE6513, size: 0x8, addend: 0x0, symName: __ZNK4absl12lts_2022062313cord_internal11CordRepRing12GetCharacterEm, symObjAddr: 0x205C, symBinAddr: 0x1FA50, symSize: 0x100 }
  - { offsetInCU: 0xDF19, offset: 0xE66B7, size: 0x8, addend: 0x0, symName: __ZN4absl12lts_2022062313cord_internal11CordRepRing7SubRingEPS2_mmm, symObjAddr: 0x215C, symBinAddr: 0x1FB50, symSize: 0x280 }
  - { offsetInCU: 0xDF24, offset: 0xE66C2, size: 0x8, addend: 0x0, symName: __ZNK4absl12lts_2022062313cord_internal11CordRepRing12GetCharacterEm.cold.4, symObjAddr: 0x4014, symBinAddr: 0x536B0, symSize: 0x28 }
  - { offsetInCU: 0xDF3C, offset: 0xE66DA, size: 0x8, addend: 0x0, symName: __ZNK4absl12lts_2022062313cord_internal11CordRepRing12GetCharacterEm.cold.1, symObjAddr: 0x3F9C, symBinAddr: 0x53638, symSize: 0x28 }
  - { offsetInCU: 0xDF80, offset: 0xE671E, size: 0x8, addend: 0x0, symName: __ZNK4absl12lts_2022062313cord_internal11CordRepRing12GetCharacterEm.cold.2, symObjAddr: 0x3FC4, symBinAddr: 0x53660, symSize: 0x28 }
  - { offsetInCU: 0xDFC4, offset: 0xE6762, size: 0x8, addend: 0x0, symName: __ZNK4absl12lts_2022062313cord_internal11CordRepRing12GetCharacterEm.cold.3, symObjAddr: 0x3FEC, symBinAddr: 0x53688, symSize: 0x28 }
  - { offsetInCU: 0xE01E, offset: 0xE67BC, size: 0x8, addend: 0x0, symName: __ZN4absl12lts_2022062313cord_internal11CordRepRing7SubRingEPS2_mmm, symObjAddr: 0x215C, symBinAddr: 0x1FB50, symSize: 0x280 }
  - { offsetInCU: 0xE477, offset: 0xE6C15, size: 0x8, addend: 0x0, symName: __ZN4absl12lts_2022062313cord_internal11CordRepRing12RemovePrefixEPS2_mm, symObjAddr: 0x23DC, symBinAddr: 0x1FDD0, symSize: 0x158 }
  - { offsetInCU: 0xE482, offset: 0xE6C20, size: 0x8, addend: 0x0, symName: __ZN4absl12lts_2022062313cord_internal11CordRepRing7SubRingEPS2_mmm.cold.5, symObjAddr: 0x40D4, symBinAddr: 0x53770, symSize: 0x24 }
  - { offsetInCU: 0xE4B0, offset: 0xE6C4E, size: 0x8, addend: 0x0, symName: __ZN4absl12lts_2022062313cord_internal11CordRepRing7SubRingEPS2_mmm.cold.4, symObjAddr: 0x40B0, symBinAddr: 0x5374C, symSize: 0x24 }
  - { offsetInCU: 0xE4DE, offset: 0xE6C7C, size: 0x8, addend: 0x0, symName: __ZN4absl12lts_2022062313cord_internal11CordRepRing7SubRingEPS2_mmm.cold.1, symObjAddr: 0x403C, symBinAddr: 0x536D8, symSize: 0x28 }
  - { offsetInCU: 0xE4F6, offset: 0xE6C94, size: 0x8, addend: 0x0, symName: __ZN4absl12lts_2022062313cord_internal11CordRepRing7SubRingEPS2_mmm.cold.2, symObjAddr: 0x4064, symBinAddr: 0x53700, symSize: 0x28 }
  - { offsetInCU: 0xE50E, offset: 0xE6CAC, size: 0x8, addend: 0x0, symName: __ZN4absl12lts_2022062313cord_internal11CordRepRing7SubRingEPS2_mmm.cold.9, symObjAddr: 0x4164, symBinAddr: 0x53800, symSize: 0x28 }
  - { offsetInCU: 0xE53C, offset: 0xE6CDA, size: 0x8, addend: 0x0, symName: __ZN4absl12lts_2022062313cord_internal11CordRepRing7SubRingEPS2_mmm.cold.3, symObjAddr: 0x408C, symBinAddr: 0x53728, symSize: 0x24 }
  - { offsetInCU: 0xE580, offset: 0xE6D1E, size: 0x8, addend: 0x0, symName: __ZN4absl12lts_2022062313cord_internal11CordRepRing7SubRingEPS2_mmm.cold.8, symObjAddr: 0x4140, symBinAddr: 0x537DC, symSize: 0x24 }
  - { offsetInCU: 0xE5D9, offset: 0xE6D77, size: 0x8, addend: 0x0, symName: __ZN4absl12lts_2022062313cord_internal11CordRepRing7SubRingEPS2_mmm.cold.7, symObjAddr: 0x411C, symBinAddr: 0x537B8, symSize: 0x24 }
  - { offsetInCU: 0xE607, offset: 0xE6DA5, size: 0x8, addend: 0x0, symName: __ZN4absl12lts_2022062313cord_internal11CordRepRing7SubRingEPS2_mmm.cold.6, symObjAddr: 0x40F8, symBinAddr: 0x53794, symSize: 0x24 }
  - { offsetInCU: 0xE660, offset: 0xE6DFE, size: 0x8, addend: 0x0, symName: __ZN4absl12lts_2022062313cord_internal11CordRepRing12RemovePrefixEPS2_mm, symObjAddr: 0x23DC, symBinAddr: 0x1FDD0, symSize: 0x158 }
  - { offsetInCU: 0xE8C1, offset: 0xE705F, size: 0x8, addend: 0x0, symName: __ZN4absl12lts_2022062313cord_internal11CordRepRing12RemoveSuffixEPS2_mm, symObjAddr: 0x2534, symBinAddr: 0x1FF28, symSize: 0x14C }
  - { offsetInCU: 0xE8CC, offset: 0xE706A, size: 0x8, addend: 0x0, symName: __ZN4absl12lts_2022062313cord_internal11CordRepRing12RemovePrefixEPS2_mm.cold.1, symObjAddr: 0x418C, symBinAddr: 0x53828, symSize: 0x28 }
  - { offsetInCU: 0xE8E4, offset: 0xE7082, size: 0x8, addend: 0x0, symName: __ZN4absl12lts_2022062313cord_internal11CordRepRing12RemovePrefixEPS2_mm.cold.2, symObjAddr: 0x41B4, symBinAddr: 0x53850, symSize: 0x24 }
  - { offsetInCU: 0xE928, offset: 0xE70C6, size: 0x8, addend: 0x0, symName: __ZN4absl12lts_2022062313cord_internal11CordRepRing12RemovePrefixEPS2_mm.cold.4, symObjAddr: 0x41FC, symBinAddr: 0x53898, symSize: 0x28 }
  - { offsetInCU: 0xE956, offset: 0xE70F4, size: 0x8, addend: 0x0, symName: __ZN4absl12lts_2022062313cord_internal11CordRepRing12RemovePrefixEPS2_mm.cold.3, symObjAddr: 0x41D8, symBinAddr: 0x53874, symSize: 0x24 }
  - { offsetInCU: 0xE9D3, offset: 0xE7171, size: 0x8, addend: 0x0, symName: __ZN4absl12lts_2022062313cord_internal11CordRepRing12RemoveSuffixEPS2_mm, symObjAddr: 0x2534, symBinAddr: 0x1FF28, symSize: 0x14C }
  - { offsetInCU: 0xEC31, offset: 0xE73CF, size: 0x8, addend: 0x0, symName: '__ZZN4absl12lts_2022062313cord_internal12_GLOBAL__N_112UnrefEntriesEPKNS1_11CordRepRingEjjENK3$_3clEj', symObjAddr: 0x2680, symBinAddr: 0x20074, symSize: 0xA4 }
  - { offsetInCU: 0xEC3C, offset: 0xE73DA, size: 0x8, addend: 0x0, symName: __ZN4absl12lts_2022062313cord_internal11CordRepRing12RemoveSuffixEPS2_mm.cold.1, symObjAddr: 0x4224, symBinAddr: 0x538C0, symSize: 0x28 }
  - { offsetInCU: 0xEC54, offset: 0xE73F2, size: 0x8, addend: 0x0, symName: __ZN4absl12lts_2022062313cord_internal11CordRepRing12RemoveSuffixEPS2_mm.cold.2, symObjAddr: 0x424C, symBinAddr: 0x538E8, symSize: 0x24 }
  - { offsetInCU: 0xEC98, offset: 0xE7436, size: 0x8, addend: 0x0, symName: __ZN4absl12lts_2022062313cord_internal11CordRepRing12RemoveSuffixEPS2_mm.cold.4, symObjAddr: 0x4294, symBinAddr: 0x53930, symSize: 0x24 }
  - { offsetInCU: 0xECC6, offset: 0xE7464, size: 0x8, addend: 0x0, symName: __ZN4absl12lts_2022062313cord_internal11CordRepRing12RemoveSuffixEPS2_mm.cold.3, symObjAddr: 0x4270, symBinAddr: 0x5390C, symSize: 0x24 }
  - { offsetInCU: 0xEDA6, offset: 0xE7544, size: 0x8, addend: 0x0, symName: '__ZZN4absl12lts_2022062313cord_internal12_GLOBAL__N_112UnrefEntriesEPKNS1_11CordRepRingEjjENK3$_3clEj.cold.1', symObjAddr: 0x42B8, symBinAddr: 0x53954, symSize: 0x28 }
  - { offsetInCU: 0xEDD3, offset: 0xE7571, size: 0x8, addend: 0x0, symName: '__ZZN4absl12lts_2022062313cord_internal12_GLOBAL__N_112UnrefEntriesEPKNS1_11CordRepRingEjjENK3$_3clEj.cold.2', symObjAddr: 0x42E0, symBinAddr: 0x5397C, symSize: 0x24 }
  - { offsetInCU: 0xEE00, offset: 0xE759E, size: 0x8, addend: 0x0, symName: '__ZZN4absl12lts_2022062313cord_internal12_GLOBAL__N_112UnrefEntriesEPKNS1_11CordRepRingEjjENK3$_3clEj.cold.4', symObjAddr: 0x432C, symBinAddr: 0x539C8, symSize: 0x28 }
  - { offsetInCU: 0xEE2D, offset: 0xE75CB, size: 0x8, addend: 0x0, symName: '__ZZN4absl12lts_2022062313cord_internal12_GLOBAL__N_112UnrefEntriesEPKNS1_11CordRepRingEjjENK3$_3clEj.cold.3', symObjAddr: 0x4304, symBinAddr: 0x539A0, symSize: 0x28 }
  - { offsetInCU: 0xF58D, offset: 0xE7D2B, size: 0x8, addend: 0x0, symName: __ZNK4absl12lts_2022062313cord_internal11CordRepRing7ForEachIZNS2_4FillILb1EEEvPKS2_jjEUljE_EEvjjOT_.cold.1, symObjAddr: 0x43A4, symBinAddr: 0x539F0, symSize: 0x24 }
  - { offsetInCU: 0xF5D1, offset: 0xE7D6F, size: 0x8, addend: 0x0, symName: __ZNK4absl12lts_2022062313cord_internal11CordRepRing7ForEachIZNS2_4FillILb1EEEvPKS2_jjEUljE_EEvjjOT_.cold.2, symObjAddr: 0x43C8, symBinAddr: 0x53A14, symSize: 0x24 }
  - { offsetInCU: 0xF6CC, offset: 0xE7E6A, size: 0x8, addend: 0x0, symName: __ZNK4absl12lts_2022062313cord_internal11CordRepRing7ForEachIZNS2_7AddRingILNS2_7AddModeE0EEEPS2_S6_S6_mmEUljE0_EEvjjOT_.cold.1, symObjAddr: 0x43EC, symBinAddr: 0x53A38, symSize: 0x24 }
  - { offsetInCU: 0xF710, offset: 0xE7EAE, size: 0x8, addend: 0x0, symName: __ZNK4absl12lts_2022062313cord_internal11CordRepRing7ForEachIZNS2_7AddRingILNS2_7AddModeE0EEEPS2_S6_S6_mmEUljE0_EEvjjOT_.cold.2, symObjAddr: 0x4410, symBinAddr: 0x53A5C, symSize: 0x24 }
  - { offsetInCU: 0xF818, offset: 0xE7FB6, size: 0x8, addend: 0x0, symName: '__ZN4absl12lts_2022062319functional_internal12InvokeObjectIZNS0_13cord_internal11CordRepRing10CreateSlowEPNS3_7CordRepEmE3$_0vJS6_mmEEET0_NS1_7VoidPtrEDpNS1_8ForwardTIT1_E4typeE.cold.3', symObjAddr: 0x447C, symBinAddr: 0x53AC8, symSize: 0x24 }
  - { offsetInCU: 0xF885, offset: 0xE8023, size: 0x8, addend: 0x0, symName: '__ZN4absl12lts_2022062319functional_internal12InvokeObjectIZNS0_13cord_internal11CordRepRing10CreateSlowEPNS3_7CordRepEmE3$_0vJS6_mmEEET0_NS1_7VoidPtrEDpNS1_8ForwardTIT1_E4typeE.cold.2', symObjAddr: 0x4458, symBinAddr: 0x53AA4, symSize: 0x24 }
  - { offsetInCU: 0xF8F2, offset: 0xE8090, size: 0x8, addend: 0x0, symName: '__ZN4absl12lts_2022062319functional_internal12InvokeObjectIZNS0_13cord_internal11CordRepRing10CreateSlowEPNS3_7CordRepEmE3$_0vJS6_mmEEET0_NS1_7VoidPtrEDpNS1_8ForwardTIT1_E4typeE.cold.1', symObjAddr: 0x4434, symBinAddr: 0x53A80, symSize: 0x24 }
  - { offsetInCU: 0xFA74, offset: 0xE8212, size: 0x8, addend: 0x0, symName: __ZNK4absl12lts_2022062313cord_internal11CordRepRing7ForEachIZNS2_7AddRingILNS2_7AddModeE1EEEPS2_S6_S6_mmEUljE0_EEvjjOT_.cold.1, symObjAddr: 0x44A0, symBinAddr: 0x53AEC, symSize: 0x24 }
  - { offsetInCU: 0xFAB8, offset: 0xE8256, size: 0x8, addend: 0x0, symName: __ZNK4absl12lts_2022062313cord_internal11CordRepRing7ForEachIZNS2_7AddRingILNS2_7AddModeE1EEEPS2_S6_S6_mmEUljE0_EEvjjOT_.cold.2, symObjAddr: 0x44C4, symBinAddr: 0x53B10, symSize: 0x24 }
  - { offsetInCU: 0xFB9B, offset: 0xE8339, size: 0x8, addend: 0x0, symName: '__ZN4absl12lts_2022062319functional_internal12InvokeObjectIZNS0_13cord_internal11CordRepRing11PrependSlowEPS4_PNS3_7CordRepEE3$_2vJS7_mmEEET0_NS1_7VoidPtrEDpNS1_8ForwardTIT1_E4typeE.cold.1', symObjAddr: 0x44E8, symBinAddr: 0x53B34, symSize: 0x24 }
  - { offsetInCU: 0xFC08, offset: 0xE83A6, size: 0x8, addend: 0x0, symName: _OUTLINED_FUNCTION_0, symObjAddr: 0x450C, symBinAddr: 0x20AA4, symSize: 0x8 }
  - { offsetInCU: 0xFC20, offset: 0xE83BE, size: 0x8, addend: 0x0, symName: _OUTLINED_FUNCTION_1, symObjAddr: 0x4514, symBinAddr: 0x20AAC, symSize: 0x8 }
  - { offsetInCU: 0xFC38, offset: 0xE83D6, size: 0x8, addend: 0x0, symName: _OUTLINED_FUNCTION_2, symObjAddr: 0x451C, symBinAddr: 0x20AB4, symSize: 0x8 }
  - { offsetInCU: 0xFC50, offset: 0xE83EE, size: 0x8, addend: 0x0, symName: _OUTLINED_FUNCTION_3, symObjAddr: 0x4524, symBinAddr: 0x20ABC, symSize: 0x8 }
  - { offsetInCU: 0xFC68, offset: 0xE8406, size: 0x8, addend: 0x0, symName: _OUTLINED_FUNCTION_4, symObjAddr: 0x452C, symBinAddr: 0x20AC4, symSize: 0x8 }
  - { offsetInCU: 0xFC80, offset: 0xE841E, size: 0x8, addend: 0x0, symName: _OUTLINED_FUNCTION_5, symObjAddr: 0x4534, symBinAddr: 0x20ACC, symSize: 0x8 }
  - { offsetInCU: 0xFC98, offset: 0xE8436, size: 0x8, addend: 0x0, symName: _OUTLINED_FUNCTION_6, symObjAddr: 0x453C, symBinAddr: 0x20AD4, symSize: 0x8 }
  - { offsetInCU: 0xFCB0, offset: 0xE844E, size: 0x8, addend: 0x0, symName: _OUTLINED_FUNCTION_7, symObjAddr: 0x4544, symBinAddr: 0x20ADC, symSize: 0x8 }
  - { offsetInCU: 0xFCC8, offset: 0xE8466, size: 0x8, addend: 0x0, symName: _OUTLINED_FUNCTION_8, symObjAddr: 0x454C, symBinAddr: 0x20AE4, symSize: 0x8 }
  - { offsetInCU: 0xFCE0, offset: 0xE847E, size: 0x8, addend: 0x0, symName: _OUTLINED_FUNCTION_9, symObjAddr: 0x4554, symBinAddr: 0x20AEC, symSize: 0x8 }
  - { offsetInCU: 0xFCF8, offset: 0xE8496, size: 0x8, addend: 0x0, symName: _OUTLINED_FUNCTION_10, symObjAddr: 0x455C, symBinAddr: 0x20AF4, symSize: 0x8 }
  - { offsetInCU: 0x26, offset: 0xE84E2, size: 0x8, addend: 0x0, symName: __ZN4absl12lts_2022062313cord_internal23get_cordz_mean_intervalEv, symObjAddr: 0x0, symBinAddr: 0x20AFC, symSize: 0x10 }
  - { offsetInCU: 0x4F, offset: 0xE850B, size: 0x8, addend: 0x0, symName: __ZN4absl12lts_2022062313cord_internal12_GLOBAL__N_121g_cordz_mean_intervalE.0, symObjAddr: 0x20, symBinAddr: 0x6DFC8, symSize: 0x0 }
  - { offsetInCU: 0x5E, offset: 0xE851A, size: 0x8, addend: 0x0, symName: __ZN4absl12lts_2022062313cord_internal23get_cordz_mean_intervalEv, symObjAddr: 0x0, symBinAddr: 0x20AFC, symSize: 0x10 }
  - { offsetInCU: 0x7F, offset: 0xE853B, size: 0x8, addend: 0x0, symName: __ZN4absl12lts_2022062313cord_internal23get_cordz_mean_intervalEv, symObjAddr: 0x0, symBinAddr: 0x20AFC, symSize: 0x10 }
  - { offsetInCU: 0x99, offset: 0xE8555, size: 0x8, addend: 0x0, symName: __ZN4absl12lts_2022062313cord_internal23get_cordz_mean_intervalEv, symObjAddr: 0x0, symBinAddr: 0x20AFC, symSize: 0x10 }
  - { offsetInCU: 0xB2, offset: 0xE856E, size: 0x8, addend: 0x0, symName: __ZN4absl12lts_2022062313cord_internal23set_cordz_mean_intervalEi, symObjAddr: 0x10, symBinAddr: 0x20B0C, symSize: 0x10 }
  - { offsetInCU: 0xDE, offset: 0xE859A, size: 0x8, addend: 0x0, symName: __ZN4absl12lts_2022062313cord_internal23set_cordz_mean_intervalEi, symObjAddr: 0x10, symBinAddr: 0x20B0C, symSize: 0x10 }
  - { offsetInCU: 0xFF, offset: 0xE85BB, size: 0x8, addend: 0x0, symName: __ZN4absl12lts_2022062313cord_internal23set_cordz_mean_intervalEi, symObjAddr: 0x10, symBinAddr: 0x20B0C, symSize: 0x10 }
  - { offsetInCU: 0x49, offset: 0xEB0DF, size: 0x8, addend: 0x0, symName: __ZN4absl12lts_2022062313cord_internal11CordzHandle13global_queue_E, symObjAddr: 0xC70, symBinAddr: 0x6DFD0, symSize: 0x0 }
  - { offsetInCU: 0x4261, offset: 0xEF2F7, size: 0x8, addend: 0x0, symName: __ZNSt3__119__allocate_at_leastB8ue170006INS_9allocatorIPN4absl12lts_2022062313cord_internal11CordzHandleEEEEENS_19__allocation_resultINS_16allocator_traitsIT_E7pointerEEERSA_m, symObjAddr: 0xAA8, symBinAddr: 0x21544, symSize: 0x34 }
  - { offsetInCU: 0x4601, offset: 0xEF697, size: 0x8, addend: 0x0, symName: __ZNSt3__119__allocate_at_leastB8ue170006INS_9allocatorIPKN4absl12lts_2022062313cord_internal11CordzHandleEEEEENS_19__allocation_resultINS_16allocator_traitsIT_E7pointerEEERSB_m, symObjAddr: 0xB18, symBinAddr: 0x2158C, symSize: 0x34 }
  - { offsetInCU: 0x469F, offset: 0xEF735, size: 0x8, addend: 0x0, symName: __ZN4absl12lts_2022062313cord_internal11CordzHandle6DeleteEPS2_.cold.1, symObjAddr: 0xB4C, symBinAddr: 0x53B58, symSize: 0x28 }
  - { offsetInCU: 0x6C89, offset: 0xF1D1F, size: 0x8, addend: 0x0, symName: __ZN4absl12lts_2022062313cord_internal11CordzHandleC2Eb, symObjAddr: 0x0, symBinAddr: 0x20B1C, symSize: 0xD8 }
  - { offsetInCU: 0x6F15, offset: 0xF1FAB, size: 0x8, addend: 0x0, symName: __ZN4absl12lts_2022062313base_internal14SpinLockHolderD1Ev, symObjAddr: 0xD8, symBinAddr: 0x20BF4, symSize: 0x48 }
  - { offsetInCU: 0x6FFA, offset: 0xF2090, size: 0x8, addend: 0x0, symName: __ZN4absl12lts_2022062313cord_internal11CordzHandleC1Eb, symObjAddr: 0x120, symBinAddr: 0x20C3C, symSize: 0x4 }
  - { offsetInCU: 0x703B, offset: 0xF20D1, size: 0x8, addend: 0x0, symName: __ZN4absl12lts_2022062313cord_internal11CordzHandleC1Eb, symObjAddr: 0x120, symBinAddr: 0x20C3C, symSize: 0x4 }
  - { offsetInCU: 0x7518, offset: 0xF25AE, size: 0x8, addend: 0x0, symName: __ZN4absl12lts_2022062313cord_internal11CordzHandleD2Ev, symObjAddr: 0x124, symBinAddr: 0x20C40, symSize: 0x254 }
  - { offsetInCU: 0x7E1D, offset: 0xF2EB3, size: 0x8, addend: 0x0, symName: __ZNKSt3__16vectorIPN4absl12lts_2022062313cord_internal11CordzHandleENS_9allocatorIS5_EEE20__throw_length_errorB8ue170006Ev, symObjAddr: 0xA20, symBinAddr: 0x21530, symSize: 0x14 }
  - { offsetInCU: 0x7E51, offset: 0xF2EE7, size: 0x8, addend: 0x0, symName: __ZN4absl12lts_2022062313cord_internal11CordzHandleD1Ev, symObjAddr: 0x384, symBinAddr: 0x20E94, symSize: 0x4 }
  - { offsetInCU: 0x7E74, offset: 0xF2F0A, size: 0x8, addend: 0x0, symName: __ZN4absl12lts_2022062313cord_internal11CordzHandleD1Ev, symObjAddr: 0x384, symBinAddr: 0x20E94, symSize: 0x4 }
  - { offsetInCU: 0x7EA2, offset: 0xF2F38, size: 0x8, addend: 0x0, symName: __ZN4absl12lts_2022062313cord_internal11CordzHandleD0Ev, symObjAddr: 0x388, symBinAddr: 0x20E98, symSize: 0x14 }
  - { offsetInCU: 0x7F19, offset: 0xF2FAF, size: 0x8, addend: 0x0, symName: __ZNK4absl12lts_2022062313cord_internal11CordzHandle12SafeToDeleteEv, symObjAddr: 0x39C, symBinAddr: 0x20EAC, symSize: 0x28 }
  - { offsetInCU: 0x7FB5, offset: 0xF304B, size: 0x8, addend: 0x0, symName: __ZN4absl12lts_2022062313cord_internal11CordzHandle6DeleteEPS2_, symObjAddr: 0x3C4, symBinAddr: 0x20ED4, symSize: 0x14C }
  - { offsetInCU: 0x843C, offset: 0xF34D2, size: 0x8, addend: 0x0, symName: __ZN4absl12lts_2022062313cord_internal11CordzHandle6DeleteEPS2_.cold.1, symObjAddr: 0xB4C, symBinAddr: 0x53B58, symSize: 0x28 }
  - { offsetInCU: 0x88AE, offset: 0xF3944, size: 0x8, addend: 0x0, symName: __ZN4absl12lts_2022062313cord_internal11CordzHandle25DiagnosticsGetDeleteQueueEv, symObjAddr: 0x510, symBinAddr: 0x21020, symSize: 0x1AC }
  - { offsetInCU: 0x90D0, offset: 0xF4166, size: 0x8, addend: 0x0, symName: __ZNKSt3__16vectorIPKN4absl12lts_2022062313cord_internal11CordzHandleENS_9allocatorIS6_EEE20__throw_length_errorB8ue170006Ev, symObjAddr: 0xB04, symBinAddr: 0x21578, symSize: 0x14 }
  - { offsetInCU: 0x90F9, offset: 0xF418F, size: 0x8, addend: 0x0, symName: __ZNSt3__119__allocate_at_leastB8ue170006INS_9allocatorIPKN4absl12lts_2022062313cord_internal11CordzHandleEEEEENS_19__allocation_resultINS_16allocator_traitsIT_E7pointerEEERSB_m, symObjAddr: 0xB18, symBinAddr: 0x2158C, symSize: 0x34 }
  - { offsetInCU: 0x911A, offset: 0xF41B0, size: 0x8, addend: 0x0, symName: __ZNK4absl12lts_2022062313cord_internal11CordzHandle32DiagnosticsHandleIsSafeToInspectEPKS2_, symObjAddr: 0x6BC, symBinAddr: 0x211CC, symSize: 0x174 }
  - { offsetInCU: 0x94B3, offset: 0xF4549, size: 0x8, addend: 0x0, symName: __ZN4absl12lts_2022062313cord_internal11CordzHandle41DiagnosticsGetSafeToInspectDeletedHandlesEv, symObjAddr: 0x830, symBinAddr: 0x21340, symSize: 0x1F0 }
  - { offsetInCU: 0x49, offset: 0xF4E7C, size: 0x8, addend: 0x0, symName: __ZN4absl12lts_2022062313cord_internal9CordzInfo14kMaxStackDepthE, symObjAddr: 0x1480, symBinAddr: 0x5A1AC, symSize: 0x0 }
  - { offsetInCU: 0xD2D, offset: 0xF5B60, size: 0x8, addend: 0x0, symName: __ZN4absl12lts_2022062313cord_internal9CordzInfo12global_list_E, symObjAddr: 0x14B8, symBinAddr: 0x6DFE0, symSize: 0x0 }
  - { offsetInCU: 0x46D8, offset: 0xF950B, size: 0x8, addend: 0x0, symName: __ZN4absl12lts_2022062313cord_internal9CordzInfo4HeadERKNS1_13CordzSnapshotE, symObjAddr: 0x0, symBinAddr: 0x215C0, symSize: 0x44 }
  - { offsetInCU: 0x47D5, offset: 0xF9608, size: 0x8, addend: 0x0, symName: __ZNK4absl12lts_2022062313cord_internal9CordzInfo4NextERKNS1_13CordzSnapshotE, symObjAddr: 0x44, symBinAddr: 0x21604, symSize: 0x5C }
  - { offsetInCU: 0x4831, offset: 0xF9664, size: 0x8, addend: 0x0, symName: __ZN4absl12lts_2022062313cord_internal9CordzInfo4HeadERKNS1_13CordzSnapshotE.cold.1, symObjAddr: 0xF88, symBinAddr: 0x53B80, symSize: 0x28 }
  - { offsetInCU: 0x485E, offset: 0xF9691, size: 0x8, addend: 0x0, symName: __ZN4absl12lts_2022062313cord_internal9CordzInfo4HeadERKNS1_13CordzSnapshotE.cold.2, symObjAddr: 0xFB0, symBinAddr: 0x53BA8, symSize: 0x28 }
  - { offsetInCU: 0x488B, offset: 0xF96BE, size: 0x8, addend: 0x0, symName: __ZNK4absl12lts_2022062313cord_internal9CordzInfo4NextERKNS1_13CordzSnapshotE, symObjAddr: 0x44, symBinAddr: 0x21604, symSize: 0x5C }
  - { offsetInCU: 0x49CD, offset: 0xF9800, size: 0x8, addend: 0x0, symName: __ZN4absl12lts_2022062313cord_internal9CordzInfo9TrackCordERNS1_10InlineDataENS1_18CordzUpdateTracker16MethodIdentifierE, symObjAddr: 0xA0, symBinAddr: 0x21660, symSize: 0x94 }
  - { offsetInCU: 0x4A52, offset: 0xF9885, size: 0x8, addend: 0x0, symName: __ZNK4absl12lts_2022062313cord_internal9CordzInfo4NextERKNS1_13CordzSnapshotE.cold.1, symObjAddr: 0xFD8, symBinAddr: 0x53BD0, symSize: 0x28 }
  - { offsetInCU: 0x4A7F, offset: 0xF98B2, size: 0x8, addend: 0x0, symName: __ZNK4absl12lts_2022062313cord_internal9CordzInfo4NextERKNS1_13CordzSnapshotE.cold.3, symObjAddr: 0x1028, symBinAddr: 0x53C20, symSize: 0x28 }
  - { offsetInCU: 0x4AAC, offset: 0xF98DF, size: 0x8, addend: 0x0, symName: __ZNK4absl12lts_2022062313cord_internal9CordzInfo4NextERKNS1_13CordzSnapshotE.cold.2, symObjAddr: 0x1000, symBinAddr: 0x53BF8, symSize: 0x28 }
  - { offsetInCU: 0x4BAA, offset: 0xF99DD, size: 0x8, addend: 0x0, symName: __ZN4absl12lts_2022062313cord_internal9CordzInfo9TrackCordERNS1_10InlineDataENS1_18CordzUpdateTracker16MethodIdentifierE, symObjAddr: 0xA0, symBinAddr: 0x21660, symSize: 0x94 }
  - { offsetInCU: 0x4D83, offset: 0xF9BB6, size: 0x8, addend: 0x0, symName: __ZN4absl12lts_2022062313cord_internal9CordzInfoC2EPNS1_7CordRepEPKS2_NS1_18CordzUpdateTracker16MethodIdentifierE, symObjAddr: 0x648, symBinAddr: 0x21BD8, symSize: 0x168 }
  - { offsetInCU: 0x529B, offset: 0xFA0CE, size: 0x8, addend: 0x0, symName: __ZN4absl12lts_2022062313cord_internal9CordzInfo5TrackEv, symObjAddr: 0x138, symBinAddr: 0x216F8, symSize: 0xAC }
  - { offsetInCU: 0x5629, offset: 0xFA45C, size: 0x8, addend: 0x0, symName: __ZN4absl12lts_2022062313cord_internal9CordzInfo9TrackCordERNS1_10InlineDataENS1_18CordzUpdateTracker16MethodIdentifierE.cold.1, symObjAddr: 0x1050, symBinAddr: 0x53C48, symSize: 0x28 }
  - { offsetInCU: 0x5641, offset: 0xFA474, size: 0x8, addend: 0x0, symName: __ZN4absl12lts_2022062313cord_internal9CordzInfo9TrackCordERNS1_10InlineDataENS1_18CordzUpdateTracker16MethodIdentifierE.cold.3, symObjAddr: 0x10A0, symBinAddr: 0x53C98, symSize: 0x28 }
  - { offsetInCU: 0x5659, offset: 0xFA48C, size: 0x8, addend: 0x0, symName: __ZN4absl12lts_2022062313cord_internal9CordzInfo9TrackCordERNS1_10InlineDataENS1_18CordzUpdateTracker16MethodIdentifierE.cold.2, symObjAddr: 0x1078, symBinAddr: 0x53C70, symSize: 0x28 }
  - { offsetInCU: 0x5687, offset: 0xFA4BA, size: 0x8, addend: 0x0, symName: __ZN4absl12lts_2022062313cord_internal9CordzInfoC1EPNS1_7CordRepEPKS2_NS1_18CordzUpdateTracker16MethodIdentifierE, symObjAddr: 0x134, symBinAddr: 0x216F4, symSize: 0x4 }
  - { offsetInCU: 0x56BF, offset: 0xFA4F2, size: 0x8, addend: 0x0, symName: __ZN4absl12lts_2022062313cord_internal9CordzInfoC1EPNS1_7CordRepEPKS2_NS1_18CordzUpdateTracker16MethodIdentifierE, symObjAddr: 0x134, symBinAddr: 0x216F4, symSize: 0x4 }
  - { offsetInCU: 0x58DC, offset: 0xFA70F, size: 0x8, addend: 0x0, symName: __ZN4absl12lts_2022062313cord_internal9CordzInfo9TrackCordERNS1_10InlineDataERKS3_NS1_18CordzUpdateTracker16MethodIdentifierE, symObjAddr: 0x1E4, symBinAddr: 0x217A4, symSize: 0xE0 }
  - { offsetInCU: 0x5BC4, offset: 0xFA9F7, size: 0x8, addend: 0x0, symName: __ZN4absl12lts_2022062313cord_internal9CordzInfo7UntrackEv, symObjAddr: 0x2F4, symBinAddr: 0x21884, symSize: 0x244 }
  - { offsetInCU: 0x5BCE, offset: 0xFAA01, size: 0x8, addend: 0x0, symName: __ZN4absl12lts_2022062313cord_internal9CordzInfo7UntrackEv, symObjAddr: 0x2F4, symBinAddr: 0x21884, symSize: 0x244 }
  - { offsetInCU: 0x623C, offset: 0xFB06F, size: 0x8, addend: 0x0, symName: __ZN4absl12lts_2022062313cord_internal9CordzInfo9TrackCordERNS1_10InlineDataERKS3_NS1_18CordzUpdateTracker16MethodIdentifierE.cold.1, symObjAddr: 0x10C8, symBinAddr: 0x53CC0, symSize: 0x28 }
  - { offsetInCU: 0x6254, offset: 0xFB087, size: 0x8, addend: 0x0, symName: __ZN4absl12lts_2022062313cord_internal9CordzInfo9TrackCordERNS1_10InlineDataERKS3_NS1_18CordzUpdateTracker16MethodIdentifierE.cold.2, symObjAddr: 0x10F0, symBinAddr: 0x53CE8, symSize: 0x28 }
  - { offsetInCU: 0x626C, offset: 0xFB09F, size: 0x8, addend: 0x0, symName: __ZN4absl12lts_2022062313cord_internal9CordzInfo9TrackCordERNS1_10InlineDataERKS3_NS1_18CordzUpdateTracker16MethodIdentifierE.cold.3, symObjAddr: 0x1118, symBinAddr: 0x53D10, symSize: 0x28 }
  - { offsetInCU: 0x652E, offset: 0xFB361, size: 0x8, addend: 0x0, symName: __ZN4absl12lts_2022062313cord_internal9CordzInfo18MaybeTrackCordImplERNS1_10InlineDataERKS3_NS1_18CordzUpdateTracker16MethodIdentifierE, symObjAddr: 0x538, symBinAddr: 0x21AC8, symSize: 0x84 }
  - { offsetInCU: 0x66BB, offset: 0xFB4EE, size: 0x8, addend: 0x0, symName: __ZN4absl12lts_2022062313cord_internal9CordzInfo15GetParentMethodEPKS2_, symObjAddr: 0x5BC, symBinAddr: 0x21B4C, symSize: 0x1C }
  - { offsetInCU: 0x66C5, offset: 0xFB4F8, size: 0x8, addend: 0x0, symName: __ZN4absl12lts_2022062313cord_internal9CordzInfo18MaybeTrackCordImplERNS1_10InlineDataERKS3_NS1_18CordzUpdateTracker16MethodIdentifierE.cold.1, symObjAddr: 0x1190, symBinAddr: 0x53D38, symSize: 0x28 }
  - { offsetInCU: 0x66F3, offset: 0xFB526, size: 0x8, addend: 0x0, symName: __ZN4absl12lts_2022062313cord_internal9CordzInfo18MaybeTrackCordImplERNS1_10InlineDataERKS3_NS1_18CordzUpdateTracker16MethodIdentifierE.cold.2, symObjAddr: 0x11B8, symBinAddr: 0x53D60, symSize: 0x28 }
  - { offsetInCU: 0x6721, offset: 0xFB554, size: 0x8, addend: 0x0, symName: __ZN4absl12lts_2022062313cord_internal9CordzInfo18MaybeTrackCordImplERNS1_10InlineDataERKS3_NS1_18CordzUpdateTracker16MethodIdentifierE.cold.3, symObjAddr: 0x11E0, symBinAddr: 0x53D88, symSize: 0x28 }
  - { offsetInCU: 0x674F, offset: 0xFB582, size: 0x8, addend: 0x0, symName: __ZN4absl12lts_2022062313cord_internal9CordzInfo15GetParentMethodEPKS2_, symObjAddr: 0x5BC, symBinAddr: 0x21B4C, symSize: 0x1C }
  - { offsetInCU: 0x676D, offset: 0xFB5A0, size: 0x8, addend: 0x0, symName: __ZN4absl12lts_2022062313cord_internal9CordzInfo15FillParentStackEPKS2_PPv, symObjAddr: 0x5D8, symBinAddr: 0x21B68, symSize: 0x70 }
  - { offsetInCU: 0x6796, offset: 0xFB5C9, size: 0x8, addend: 0x0, symName: __ZN4absl12lts_2022062313cord_internal9CordzInfoC2EPNS1_7CordRepEPKS2_NS1_18CordzUpdateTracker16MethodIdentifierE, symObjAddr: 0x648, symBinAddr: 0x21BD8, symSize: 0x168 }
  - { offsetInCU: 0x67A0, offset: 0xFB5D3, size: 0x8, addend: 0x0, symName: __ZN4absl12lts_2022062313cord_internal9CordzInfo15FillParentStackEPKS2_PPv.cold.1, symObjAddr: 0x1208, symBinAddr: 0x53DB0, symSize: 0x28 }
  - { offsetInCU: 0x6B6A, offset: 0xFB99D, size: 0x8, addend: 0x0, symName: __ZN4absl12lts_2022062313cord_internal9CordzInfoD2Ev, symObjAddr: 0x7B0, symBinAddr: 0x21D40, symSize: 0x48 }
  - { offsetInCU: 0x6C86, offset: 0xFBAB9, size: 0x8, addend: 0x0, symName: __ZN4absl12lts_2022062313cord_internal9CordzInfoD1Ev, symObjAddr: 0x854, symBinAddr: 0x21D88, symSize: 0x4 }
  - { offsetInCU: 0x6CA9, offset: 0xFBADC, size: 0x8, addend: 0x0, symName: __ZN4absl12lts_2022062313cord_internal9CordzInfoD1Ev, symObjAddr: 0x854, symBinAddr: 0x21D88, symSize: 0x4 }
  - { offsetInCU: 0x6CD8, offset: 0xFBB0B, size: 0x8, addend: 0x0, symName: __ZN4absl12lts_2022062313cord_internal9CordzInfoD0Ev, symObjAddr: 0x858, symBinAddr: 0x21D8C, symSize: 0x14 }
  - { offsetInCU: 0x6D36, offset: 0xFBB69, size: 0x8, addend: 0x0, symName: __ZN4absl12lts_2022062313cord_internal9CordzInfo4LockENS1_18CordzUpdateTracker16MethodIdentifierE, symObjAddr: 0x8B4, symBinAddr: 0x21DA0, symSize: 0x44 }
  - { offsetInCU: 0x6E3B, offset: 0xFBC6E, size: 0x8, addend: 0x0, symName: __ZN4absl12lts_2022062313cord_internal9CordzInfo6UnlockEv, symObjAddr: 0x8F8, symBinAddr: 0x21DE4, symSize: 0x3C }
  - { offsetInCU: 0x6E45, offset: 0xFBC78, size: 0x8, addend: 0x0, symName: __ZN4absl12lts_2022062313cord_internal9CordzInfo4LockENS1_18CordzUpdateTracker16MethodIdentifierE.cold.1, symObjAddr: 0x1280, symBinAddr: 0x53DD8, symSize: 0x28 }
  - { offsetInCU: 0x6E5D, offset: 0xFBC90, size: 0x8, addend: 0x0, symName: __ZN4absl12lts_2022062313cord_internal9CordzInfo6UnlockEv, symObjAddr: 0x8F8, symBinAddr: 0x21DE4, symSize: 0x3C }
  - { offsetInCU: 0x6EA7, offset: 0xFBCDA, size: 0x8, addend: 0x0, symName: __ZNK4absl12lts_2022062313cord_internal9CordzInfo8GetStackEv, symObjAddr: 0x934, symBinAddr: 0x21E20, symSize: 0x10 }
  - { offsetInCU: 0x6ED1, offset: 0xFBD04, size: 0x8, addend: 0x0, symName: __ZNK4absl12lts_2022062313cord_internal9CordzInfo14GetParentStackEv, symObjAddr: 0x944, symBinAddr: 0x21E30, symSize: 0x10 }
  - { offsetInCU: 0x727B, offset: 0xFC0AE, size: 0x8, addend: 0x0, symName: __ZNK4absl12lts_2022062313cord_internal9CordzInfo18GetCordzStatisticsEv, symObjAddr: 0x954, symBinAddr: 0x21E40, symSize: 0x2F0 }
  - { offsetInCU: 0x7A6A, offset: 0xFC89D, size: 0x8, addend: 0x0, symName: __ZN4absl12lts_2022062313cord_internal12_GLOBAL__N_115CordRepAnalyzer15CountLinearRepsENS3_6RepRefERNS3_11MemoryUsageE, symObjAddr: 0xC44, symBinAddr: 0x22130, symSize: 0x1D8 }
  - { offsetInCU: 0x7C3D, offset: 0xFCA70, size: 0x8, addend: 0x0, symName: __ZN4absl12lts_2022062313cord_internal12_GLOBAL__N_115CordRepAnalyzer12AnalyzeBtreeENS3_6RepRefE, symObjAddr: 0xE1C, symBinAddr: 0x22308, symSize: 0x110 }
  - { offsetInCU: 0x7CA3, offset: 0xFCAD6, size: 0x8, addend: 0x0, symName: __ZN4absl12lts_2022062313cord_internal9CordzInfo4HeadERKNS1_13CordzSnapshotE.cold.1, symObjAddr: 0xF88, symBinAddr: 0x53B80, symSize: 0x28 }
  - { offsetInCU: 0x7CAD, offset: 0xFCAE0, size: 0x8, addend: 0x0, symName: __ZN4absl12lts_2022062313cord_internal12_GLOBAL__N_115CordRepAnalyzer12AnalyzeBtreeENS3_6RepRefE, symObjAddr: 0xE1C, symBinAddr: 0x22308, symSize: 0x110 }
  - { offsetInCU: 0x7F52, offset: 0xFCD85, size: 0x8, addend: 0x0, symName: __ZNK4absl12lts_2022062313cord_internal9CordzInfo18GetCordzStatisticsEv.cold.1, symObjAddr: 0x12A8, symBinAddr: 0x53E00, symSize: 0x28 }
  - { offsetInCU: 0x7F96, offset: 0xFCDC9, size: 0x8, addend: 0x0, symName: __ZNK4absl12lts_2022062313cord_internal9CordzInfo18GetCordzStatisticsEv.cold.2, symObjAddr: 0x12D0, symBinAddr: 0x53E28, symSize: 0x28 }
  - { offsetInCU: 0x8013, offset: 0xFCE46, size: 0x8, addend: 0x0, symName: __ZN4absl12lts_2022062313cord_internal12_GLOBAL__N_115CordRepAnalyzer15CountLinearRepsENS3_6RepRefERNS3_11MemoryUsageE.cold.1, symObjAddr: 0x12F8, symBinAddr: 0x53E50, symSize: 0x28 }
  - { offsetInCU: 0x809D, offset: 0xFCED0, size: 0x8, addend: 0x0, symName: __ZN4absl12lts_2022062313cord_internal12_GLOBAL__N_115CordRepAnalyzer12AnalyzeBtreeENS3_6RepRefE.cold.1, symObjAddr: 0x1320, symBinAddr: 0x53E78, symSize: 0x28 }
  - { offsetInCU: 0x26, offset: 0xFCFB5, size: 0x8, addend: 0x0, symName: __ZN4absl12lts_2022062324synchronization_internal25OneTimeInitThreadIdentityEPNS0_13base_internal14ThreadIdentityE, symObjAddr: 0x0, symBinAddr: 0x22418, symSize: 0x4 }
  - { offsetInCU: 0x4E, offset: 0xFCFDD, size: 0x8, addend: 0x0, symName: __ZN4absl12lts_2022062324synchronization_internalL13freelist_lockE, symObjAddr: 0xF880, symBinAddr: 0x6E1C8, symSize: 0x0 }
  - { offsetInCU: 0x68, offset: 0xFCFF7, size: 0x8, addend: 0x0, symName: __ZN4absl12lts_2022062324synchronization_internalL24thread_identity_freelistE, symObjAddr: 0xF878, symBinAddr: 0x6E1C0, symSize: 0x0 }
  - { offsetInCU: 0x76, offset: 0xFD005, size: 0x8, addend: 0x0, symName: __ZN4absl12lts_2022062324synchronization_internal25OneTimeInitThreadIdentityEPNS0_13base_internal14ThreadIdentityE, symObjAddr: 0x0, symBinAddr: 0x22418, symSize: 0x4 }
  - { offsetInCU: 0x12A, offset: 0xFD0B9, size: 0x8, addend: 0x0, symName: __ZN4absl12lts_2022062324synchronization_internal20CreateThreadIdentityEv, symObjAddr: 0x4, symBinAddr: 0x2241C, symSize: 0x114 }
  - { offsetInCU: 0x4F0, offset: 0xFD47F, size: 0x8, addend: 0x0, symName: __ZN4absl12lts_2022062324synchronization_internalL21ReclaimThreadIdentityEPv, symObjAddr: 0x118, symBinAddr: 0x22530, symSize: 0xB8 }
  - { offsetInCU: 0x26, offset: 0x1006F0, size: 0x8, addend: 0x0, symName: __ZN4absl12lts_2022062313base_internal10CycleClock3NowEv, symObjAddr: 0x0, symBinAddr: 0x225E8, symSize: 0x4 }
  - { offsetInCU: 0x2A5A, offset: 0x103124, size: 0x8, addend: 0x0, symName: __ZN4absl12lts_2022062313base_internal10CycleClock3NowEv, symObjAddr: 0x0, symBinAddr: 0x225E8, symSize: 0x4 }
  - { offsetInCU: 0x2A70, offset: 0x10313A, size: 0x8, addend: 0x0, symName: __ZN4absl12lts_2022062313base_internal10CycleClock9FrequencyEv, symObjAddr: 0x4, symBinAddr: 0x225EC, symSize: 0xC }
  - { offsetInCU: 0x26, offset: 0x103176, size: 0x8, addend: 0x0, symName: __ZN4absl12lts_2022062318debugging_internal8DemangleEPKcPci, symObjAddr: 0x0, symBinAddr: 0x225F8, symSize: 0x128 }
  - { offsetInCU: 0x61, offset: 0x1031B1, size: 0x8, addend: 0x0, symName: __ZN4absl12lts_2022062318debugging_internalL16kBuiltinTypeListE, symObjAddr: 0x33E0, symBinAddr: 0x6CCC0, symSize: 0x0 }
  - { offsetInCU: 0xB1, offset: 0x103201, size: 0x8, addend: 0x0, symName: __ZN4absl12lts_2022062318debugging_internalL13kOperatorListE, symObjAddr: 0x36E0, symBinAddr: 0x6CFC0, symSize: 0x0 }
  - { offsetInCU: 0xCB, offset: 0x10321B, size: 0x8, addend: 0x0, symName: __ZN4absl12lts_2022062318debugging_internalL17kSubstitutionListE, symObjAddr: 0x3B90, symBinAddr: 0x6D470, symSize: 0x0 }
  - { offsetInCU: 0x31C, offset: 0x10346C, size: 0x8, addend: 0x0, symName: __ZN4absl12lts_2022062318debugging_internal8DemangleEPKcPci, symObjAddr: 0x0, symBinAddr: 0x225F8, symSize: 0x128 }
  - { offsetInCU: 0x4FD, offset: 0x10364D, size: 0x8, addend: 0x0, symName: __ZN4absl12lts_2022062318debugging_internalL16ParseMangledNameEPNS1_5StateE, symObjAddr: 0x128, symBinAddr: 0x22720, symSize: 0x78 }
  - { offsetInCU: 0x607, offset: 0x103757, size: 0x8, addend: 0x0, symName: __ZN4absl12lts_2022062318debugging_internalL11MaybeAppendEPNS1_5StateEPKc, symObjAddr: 0x1A0, symBinAddr: 0x22798, symSize: 0x34 }
  - { offsetInCU: 0x6A6, offset: 0x1037F6, size: 0x8, addend: 0x0, symName: __ZN4absl12lts_2022062318debugging_internalL17ParseTwoCharTokenEPNS1_5StateEPKc, symObjAddr: 0x1D4, symBinAddr: 0x227CC, symSize: 0x70 }
  - { offsetInCU: 0x78A, offset: 0x1038DA, size: 0x8, addend: 0x0, symName: __ZN4absl12lts_2022062318debugging_internalL13ParseEncodingEPNS1_5StateE, symObjAddr: 0x244, symBinAddr: 0x2283C, symSize: 0x35C }
  - { offsetInCU: 0xC05, offset: 0x103D55, size: 0x8, addend: 0x0, symName: __ZN4absl12lts_2022062318debugging_internalL21MaybeAppendWithLengthEPNS1_5StateEPKci, symObjAddr: 0x1BD0, symBinAddr: 0x241C8, symSize: 0xD4 }
  - { offsetInCU: 0xD40, offset: 0x103E90, size: 0x8, addend: 0x0, symName: __ZN4absl12lts_2022062318debugging_internalL9ParseNameEPNS1_5StateE, symObjAddr: 0x5A0, symBinAddr: 0x22B98, symSize: 0x27C }
  - { offsetInCU: 0x11D6, offset: 0x104326, size: 0x8, addend: 0x0, symName: __ZN4absl12lts_2022062318debugging_internalL21ParseBareFunctionTypeEPNS1_5StateE, symObjAddr: 0x81C, symBinAddr: 0x22E14, symSize: 0xE0 }
  - { offsetInCU: 0x135C, offset: 0x1044AC, size: 0x8, addend: 0x0, symName: __ZN4absl12lts_2022062318debugging_internalL17ParseOneCharTokenEPNS1_5StateEc, symObjAddr: 0xC9C, symBinAddr: 0x23294, symSize: 0x58 }
  - { offsetInCU: 0x1440, offset: 0x104590, size: 0x8, addend: 0x0, symName: __ZN4absl12lts_2022062318debugging_internalL14ParseCharClassEPNS1_5StateEPKc, symObjAddr: 0xEC8, symBinAddr: 0x234C0, symSize: 0x70 }
  - { offsetInCU: 0x1534, offset: 0x104684, size: 0x8, addend: 0x0, symName: __ZN4absl12lts_2022062318debugging_internalL9ParseTypeEPNS1_5StateE, symObjAddr: 0x134C, symBinAddr: 0x23944, symSize: 0x4FC }
  - { offsetInCU: 0x1DCD, offset: 0x104F1D, size: 0x8, addend: 0x0, symName: __ZN4absl12lts_2022062318debugging_internalL15ParseCallOffsetEPNS1_5StateE, symObjAddr: 0x2C14, symBinAddr: 0x2520C, symSize: 0x194 }
  - { offsetInCU: 0x20A1, offset: 0x1051F1, size: 0x8, addend: 0x0, symName: __ZN4absl12lts_2022062318debugging_internalL11ParseNumberEPNS1_5StateEPi, symObjAddr: 0x11DC, symBinAddr: 0x237D4, symSize: 0xD0 }
  - { offsetInCU: 0x22C8, offset: 0x105418, size: 0x8, addend: 0x0, symName: __ZN4absl12lts_2022062318debugging_internalL17ParseCVQualifiersEPNS1_5StateE, symObjAddr: 0xCF4, symBinAddr: 0x232EC, symSize: 0x90 }
  - { offsetInCU: 0x23DE, offset: 0x10552E, size: 0x8, addend: 0x0, symName: __ZN4absl12lts_2022062318debugging_internalL11ParsePrefixEPNS1_5StateE, symObjAddr: 0xD84, symBinAddr: 0x2337C, symSize: 0x144 }
  - { offsetInCU: 0x25DA, offset: 0x10572A, size: 0x8, addend: 0x0, symName: __ZN4absl12lts_2022062318debugging_internalL18ParseDiscriminatorEPNS1_5StateE, symObjAddr: 0x27E0, symBinAddr: 0x24DD8, symSize: 0x94 }
  - { offsetInCU: 0x26FF, offset: 0x10584F, size: 0x8, addend: 0x0, symName: __ZN4absl12lts_2022062318debugging_internalL17ParseSubstitutionEPNS1_5StateEb, symObjAddr: 0x8FC, symBinAddr: 0x22EF4, symSize: 0x1DC }
  - { offsetInCU: 0x2967, offset: 0x105AB7, size: 0x8, addend: 0x0, symName: __ZN4absl12lts_2022062318debugging_internalL17ParseTemplateArgsEPNS1_5StateE, symObjAddr: 0xAD8, symBinAddr: 0x230D0, symSize: 0x100 }
  - { offsetInCU: 0x2B21, offset: 0x105C71, size: 0x8, addend: 0x0, symName: __ZN4absl12lts_2022062318debugging_internalL17ParseUnscopedNameEPNS1_5StateE, symObjAddr: 0xBD8, symBinAddr: 0x231D0, symSize: 0xC4 }
  - { offsetInCU: 0x2CCE, offset: 0x105E1E, size: 0x8, addend: 0x0, symName: __ZN4absl12lts_2022062318debugging_internalL16ParseTemplateArgEPNS1_5StateE, symObjAddr: 0x2874, symBinAddr: 0x24E6C, symSize: 0x140 }
  - { offsetInCU: 0x2EC8, offset: 0x106018, size: 0x8, addend: 0x0, symName: __ZN4absl12lts_2022062318debugging_internalL20ParseUnqualifiedNameEPNS1_5StateE, symObjAddr: 0x2A5C, symBinAddr: 0x25054, symSize: 0x1B8 }
  - { offsetInCU: 0x31E4, offset: 0x106334, size: 0x8, addend: 0x0, symName: __ZN4absl12lts_2022062318debugging_internalL18ParseTemplateParamEPNS1_5StateE, symObjAddr: 0xF38, symBinAddr: 0x23530, symSize: 0xD8 }
  - { offsetInCU: 0x334A, offset: 0x10649A, size: 0x8, addend: 0x0, symName: __ZN4absl12lts_2022062318debugging_internalL20ParseUnnamedTypeNameEPNS1_5StateE, symObjAddr: 0x1010, symBinAddr: 0x23608, symSize: 0x1CC }
  - { offsetInCU: 0x35B2, offset: 0x106702, size: 0x8, addend: 0x0, symName: __ZN4absl12lts_2022062318debugging_internalL18MaybeAppendDecimalEPNS1_5StateEj, symObjAddr: 0x12AC, symBinAddr: 0x238A4, symSize: 0xA0 }
  - { offsetInCU: 0x363B, offset: 0x10678B, size: 0x8, addend: 0x0, symName: __ZN4absl12lts_2022062318debugging_internalL6AppendEPNS1_5StateEPKci, symObjAddr: 0x1848, symBinAddr: 0x23E40, symSize: 0x60 }
  - { offsetInCU: 0x3684, offset: 0x1067D4, size: 0x8, addend: 0x0, symName: __ZN4absl12lts_2022062318debugging_internalL6AppendEPNS1_5StateEPKci, symObjAddr: 0x1848, symBinAddr: 0x23E40, symSize: 0x60 }
  - { offsetInCU: 0x37BD, offset: 0x10690D, size: 0x8, addend: 0x0, symName: __ZN4absl12lts_2022062318debugging_internalL15ParseSourceNameEPNS1_5StateE, symObjAddr: 0x18A8, symBinAddr: 0x23EA0, symSize: 0x184 }
  - { offsetInCU: 0x3A09, offset: 0x106B59, size: 0x8, addend: 0x0, symName: __ZN4absl12lts_2022062318debugging_internalL15ParseExpressionEPNS1_5StateE, symObjAddr: 0x1CA4, symBinAddr: 0x2429C, symSize: 0x388 }
  - { offsetInCU: 0x3F34, offset: 0x107084, size: 0x8, addend: 0x0, symName: __ZN4absl12lts_2022062318debugging_internalL18ParseClassEnumTypeEPNS1_5StateE, symObjAddr: 0x1A2C, symBinAddr: 0x24024, symSize: 0x64 }
  - { offsetInCU: 0x402A, offset: 0x10717A, size: 0x8, addend: 0x0, symName: __ZN4absl12lts_2022062318debugging_internalL13ParseDecltypeEPNS1_5StateE, symObjAddr: 0x1A90, symBinAddr: 0x24088, symSize: 0xC4 }
  - { offsetInCU: 0x4177, offset: 0x1072C7, size: 0x8, addend: 0x0, symName: __ZN4absl12lts_2022062318debugging_internalL26ParseTemplateTemplateParamEPNS1_5StateE, symObjAddr: 0x1B54, symBinAddr: 0x2414C, symSize: 0x7C }
  - { offsetInCU: 0x43BE, offset: 0x10750E, size: 0x8, addend: 0x0, symName: __ZN4absl12lts_2022062318debugging_internalL16ParseExprPrimaryEPNS1_5StateE, symObjAddr: 0x202C, symBinAddr: 0x24624, symSize: 0x100 }
  - { offsetInCU: 0x4561, offset: 0x1076B1, size: 0x8, addend: 0x0, symName: __ZN4absl12lts_2022062318debugging_internalL17ParseOperatorNameEPNS1_5StateEPi, symObjAddr: 0x212C, symBinAddr: 0x24724, symSize: 0x24C }
  - { offsetInCU: 0x486C, offset: 0x1079BC, size: 0x8, addend: 0x0, symName: __ZN4absl12lts_2022062318debugging_internalL19ParseUnresolvedNameEPNS1_5StateE, symObjAddr: 0x2378, symBinAddr: 0x24970, symSize: 0x220 }
  - { offsetInCU: 0x4C91, offset: 0x107DE1, size: 0x8, addend: 0x0, symName: __ZN4absl12lts_2022062318debugging_internalL18ParseExprCastValueEPNS1_5StateE, symObjAddr: 0x2598, symBinAddr: 0x24B90, symSize: 0x12C }
  - { offsetInCU: 0x4F0D, offset: 0x10805D, size: 0x8, addend: 0x0, symName: __ZN4absl12lts_2022062318debugging_internalL23ParseBaseUnresolvedNameEPNS1_5StateE, symObjAddr: 0x26C4, symBinAddr: 0x24CBC, symSize: 0x11C }
  - { offsetInCU: 0x5157, offset: 0x1082A7, size: 0x8, addend: 0x0, symName: __ZN4absl12lts_2022062318debugging_internalL20ParseLocalSourceNameEPNS1_5StateE, symObjAddr: 0x29B4, symBinAddr: 0x24FAC, symSize: 0xA8 }
  - { offsetInCU: 0x26, offset: 0x108E19, size: 0x8, addend: 0x0, symName: __ZN4absl12lts_2022062315random_internal24InitDiscreteDistributionEPNSt3__16vectorIdNS2_9allocatorIdEEEE, symObjAddr: 0x0, symBinAddr: 0x253A0, symSize: 0x610 }
  - { offsetInCU: 0x53F5, offset: 0x10E1E8, size: 0x8, addend: 0x0, symName: __ZNSt3__119__allocate_at_leastB8ue170006INS_9allocatorINS_4pairIdmEEEEEENS_19__allocation_resultINS_16allocator_traitsIT_E7pointerEEERS7_m, symObjAddr: 0x738, symBinAddr: 0x25A64, symSize: 0x34 }
  - { offsetInCU: 0x54A6, offset: 0x10E299, size: 0x8, addend: 0x0, symName: __ZNSt3__119__allocate_at_leastB8ue170006INS_9allocatorImEEEENS_19__allocation_resultINS_16allocator_traitsIT_E7pointerEEERS5_m, symObjAddr: 0x7A8, symBinAddr: 0x25AAC, symSize: 0x34 }
  - { offsetInCU: 0x5544, offset: 0x10E337, size: 0x8, addend: 0x0, symName: __ZN4absl12lts_2022062315random_internal24InitDiscreteDistributionEPNSt3__16vectorIdNS2_9allocatorIdEEEE.cold.1, symObjAddr: 0x7DC, symBinAddr: 0x53EA0, symSize: 0x28 }
  - { offsetInCU: 0x7B73, offset: 0x110966, size: 0x8, addend: 0x0, symName: __ZN4absl12lts_2022062315random_internal24InitDiscreteDistributionEPNSt3__16vectorIdNS2_9allocatorIdEEEE, symObjAddr: 0x0, symBinAddr: 0x253A0, symSize: 0x610 }
  - { offsetInCU: 0xA5FD, offset: 0x1133F0, size: 0x8, addend: 0x0, symName: __ZNSt3__16vectorINS_4pairIdmEENS_9allocatorIS2_EEE7reserveEm, symObjAddr: 0x610, symBinAddr: 0x259B0, symSize: 0xA0 }
  - { offsetInCU: 0xA91A, offset: 0x11370D, size: 0x8, addend: 0x0, symName: __ZNKSt3__16vectorINS_4pairIdmEENS_9allocatorIS2_EEE20__throw_length_errorB8ue170006Ev, symObjAddr: 0x6B0, symBinAddr: 0x25A50, symSize: 0x14 }
  - { offsetInCU: 0xA92C, offset: 0x11371F, size: 0x8, addend: 0x0, symName: __ZN4absl12lts_2022062315random_internal24InitDiscreteDistributionEPNSt3__16vectorIdNS2_9allocatorIdEEEE.cold.1, symObjAddr: 0x7DC, symBinAddr: 0x53EA0, symSize: 0x28 }
  - { offsetInCU: 0xA944, offset: 0x113737, size: 0x8, addend: 0x0, symName: __ZN4absl12lts_2022062315random_internal24InitDiscreteDistributionEPNSt3__16vectorIdNS2_9allocatorIdEEEE.cold.2, symObjAddr: 0x804, symBinAddr: 0x53EC8, symSize: 0x28 }
  - { offsetInCU: 0xA95C, offset: 0x11374F, size: 0x8, addend: 0x0, symName: __ZNKSt3__16vectorINS_4pairIdmEENS_9allocatorIS2_EEE20__throw_length_errorB8ue170006Ev, symObjAddr: 0x6B0, symBinAddr: 0x25A50, symSize: 0x14 }
  - { offsetInCU: 0xA990, offset: 0x113783, size: 0x8, addend: 0x0, symName: __ZNKSt3__16vectorImNS_9allocatorImEEE20__throw_length_errorB8ue170006Ev, symObjAddr: 0x794, symBinAddr: 0x25A98, symSize: 0x14 }
  - { offsetInCU: 0xA9B9, offset: 0x1137AC, size: 0x8, addend: 0x0, symName: __ZNSt3__119__allocate_at_leastB8ue170006INS_9allocatorImEEEENS_19__allocation_resultINS_16allocator_traitsIT_E7pointerEEERS5_m, symObjAddr: 0x7A8, symBinAddr: 0x25AAC, symSize: 0x34 }
  - { offsetInCU: 0x26, offset: 0x113887, size: 0x8, addend: 0x0, symName: __ZN4absl12lts_2022062313time_internal12IDivDurationEbNS0_8DurationES2_PS2_, symObjAddr: 0x0, symBinAddr: 0x25AE0, symSize: 0x3A4 }
  - { offsetInCU: 0x76, offset: 0x1138D7, size: 0x8, addend: 0x0, symName: __ZN4absl12lts_2022062312_GLOBAL__N_112kDisplayNanoE, symObjAddr: 0x1F80, symBinAddr: 0x6D530, symSize: 0x0 }
  - { offsetInCU: 0xC3, offset: 0x113924, size: 0x8, addend: 0x0, symName: __ZN4absl12lts_2022062312_GLOBAL__N_113kDisplayMicroE, symObjAddr: 0x1FA0, symBinAddr: 0x6D550, symSize: 0x0 }
  - { offsetInCU: 0xDE, offset: 0x11393F, size: 0x8, addend: 0x0, symName: __ZN4absl12lts_2022062312_GLOBAL__N_113kDisplayMilliE, symObjAddr: 0x1FC0, symBinAddr: 0x6D570, symSize: 0x0 }
  - { offsetInCU: 0xF9, offset: 0x11395A, size: 0x8, addend: 0x0, symName: __ZN4absl12lts_2022062312_GLOBAL__N_112kDisplayHourE, symObjAddr: 0x1FE0, symBinAddr: 0x6D590, symSize: 0x0 }
  - { offsetInCU: 0x114, offset: 0x113975, size: 0x8, addend: 0x0, symName: __ZN4absl12lts_2022062312_GLOBAL__N_111kDisplayMinE, symObjAddr: 0x2000, symBinAddr: 0x6D5B0, symSize: 0x0 }
  - { offsetInCU: 0x12F, offset: 0x113990, size: 0x8, addend: 0x0, symName: __ZN4absl12lts_2022062312_GLOBAL__N_111kDisplaySecE, symObjAddr: 0x2020, symBinAddr: 0x6D5D0, symSize: 0x0 }
  - { offsetInCU: 0x578, offset: 0x113DD9, size: 0x8, addend: 0x0, symName: __ZN4absl12lts_2022062312_GLOBAL__N_116AppendNumberUnitEPNSt3__112basic_stringIcNS2_11char_traitsIcEENS2_9allocatorIcEEEExNS1_11DisplayUnitE, symObjAddr: 0x19A4, symBinAddr: 0x27484, symSize: 0x120 }
  - { offsetInCU: 0x641, offset: 0x113EA2, size: 0x8, addend: 0x0, symName: __ZN4absl12lts_2022062312_GLOBAL__N_116AppendNumberUnitEPNSt3__112basic_stringIcNS2_11char_traitsIcEENS2_9allocatorIcEEEEdNS1_11DisplayUnitE, symObjAddr: 0x1784, symBinAddr: 0x27264, symSize: 0x220 }
  - { offsetInCU: 0x9C4, offset: 0x114225, size: 0x8, addend: 0x0, symName: __ZN4absl12lts_2022062313time_internal16ToChronoDurationINSt3__16chrono8durationIxNS3_5ratioILl1ELl1000000EEEEEEET_NS0_8DurationE, symObjAddr: 0x12E4, symBinAddr: 0x26DC4, symSize: 0x74 }
  - { offsetInCU: 0xA84, offset: 0x1142E5, size: 0x8, addend: 0x0, symName: __ZN4absl12lts_2022062313time_internal16ToChronoDurationINSt3__16chrono8durationIxNS3_5ratioILl1ELl1000EEEEEEET_NS0_8DurationE, symObjAddr: 0x135C, symBinAddr: 0x26E3C, symSize: 0x74 }
  - { offsetInCU: 0xB5B, offset: 0x1143BC, size: 0x8, addend: 0x0, symName: __ZN4absl12lts_2022062313time_internal12IDivDurationEbNS0_8DurationES2_PS2_, symObjAddr: 0x0, symBinAddr: 0x25AE0, symSize: 0x3A4 }
  - { offsetInCU: 0x1437, offset: 0x114C98, size: 0x8, addend: 0x0, symName: __ZN4absl12lts_20220623ngENS0_8DurationE, symObjAddr: 0x3A4, symBinAddr: 0x25E84, symSize: 0x4C }
  - { offsetInCU: 0x1466, offset: 0x114CC7, size: 0x8, addend: 0x0, symName: __ZN4absl12lts_20220623ngENS0_8DurationE, symObjAddr: 0x3A4, symBinAddr: 0x25E84, symSize: 0x4C }
  - { offsetInCU: 0x14F6, offset: 0x114D57, size: 0x8, addend: 0x0, symName: __ZN4absl12lts_2022062312FDivDurationENS0_8DurationES1_, symObjAddr: 0xB90, symBinAddr: 0x26670, symSize: 0x68 }
  - { offsetInCU: 0x1577, offset: 0x114DD8, size: 0x8, addend: 0x0, symName: __ZN4absl12lts_202206235TruncENS0_8DurationES1_, symObjAddr: 0xBF8, symBinAddr: 0x266D8, symSize: 0x5C }
  - { offsetInCU: 0x1692, offset: 0x114EF3, size: 0x8, addend: 0x0, symName: __ZN4absl12lts_202206235FloorENS0_8DurationES1_, symObjAddr: 0xC54, symBinAddr: 0x26734, symSize: 0xBC }
  - { offsetInCU: 0x17FA, offset: 0x11505B, size: 0x8, addend: 0x0, symName: __ZN4absl12lts_202206234CeilENS0_8DurationES1_, symObjAddr: 0xD10, symBinAddr: 0x267F0, symSize: 0xBC }
  - { offsetInCU: 0x1941, offset: 0x1151A2, size: 0x8, addend: 0x0, symName: __ZN4absl12lts_2022062320DurationFromTimespecE8timespec, symObjAddr: 0xDCC, symBinAddr: 0x268AC, symSize: 0x68 }
  - { offsetInCU: 0x1A4B, offset: 0x1152AC, size: 0x8, addend: 0x0, symName: __ZN4absl12lts_2022062319DurationFromTimevalE7timeval, symObjAddr: 0xE34, symBinAddr: 0x26914, symSize: 0x78 }
  - { offsetInCU: 0x1B73, offset: 0x1153D4, size: 0x8, addend: 0x0, symName: __ZN4absl12lts_2022062318ToInt64NanosecondsENS0_8DurationE, symObjAddr: 0xEAC, symBinAddr: 0x2698C, symSize: 0x50 }
  - { offsetInCU: 0x1BDF, offset: 0x115440, size: 0x8, addend: 0x0, symName: __ZN4absl12lts_2022062319ToInt64MicrosecondsENS0_8DurationE, symObjAddr: 0xEFC, symBinAddr: 0x269DC, symSize: 0x60 }
  - { offsetInCU: 0x1C3C, offset: 0x11549D, size: 0x8, addend: 0x0, symName: __ZN4absl12lts_2022062319ToInt64MillisecondsENS0_8DurationE, symObjAddr: 0xF5C, symBinAddr: 0x26A3C, symSize: 0x60 }
  - { offsetInCU: 0x1C92, offset: 0x1154F3, size: 0x8, addend: 0x0, symName: __ZN4absl12lts_2022062314ToInt64SecondsENS0_8DurationE, symObjAddr: 0xFBC, symBinAddr: 0x26A9C, symSize: 0x24 }
  - { offsetInCU: 0x1CE3, offset: 0x115544, size: 0x8, addend: 0x0, symName: __ZN4absl12lts_2022062314ToInt64MinutesENS0_8DurationE, symObjAddr: 0xFE0, symBinAddr: 0x26AC0, symSize: 0x38 }
  - { offsetInCU: 0x1D0A, offset: 0x11556B, size: 0x8, addend: 0x0, symName: __ZN4absl12lts_2022062314ToInt64MinutesENS0_8DurationE, symObjAddr: 0xFE0, symBinAddr: 0x26AC0, symSize: 0x38 }
  - { offsetInCU: 0x1D1C, offset: 0x11557D, size: 0x8, addend: 0x0, symName: __ZN4absl12lts_2022062312ToInt64HoursENS0_8DurationE, symObjAddr: 0x1018, symBinAddr: 0x26AF8, symSize: 0x3C }
  - { offsetInCU: 0x1D43, offset: 0x1155A4, size: 0x8, addend: 0x0, symName: __ZN4absl12lts_2022062312ToInt64HoursENS0_8DurationE, symObjAddr: 0x1018, symBinAddr: 0x26AF8, symSize: 0x3C }
  - { offsetInCU: 0x1D97, offset: 0x1155F8, size: 0x8, addend: 0x0, symName: __ZN4absl12lts_2022062319ToDoubleNanosecondsENS0_8DurationE, symObjAddr: 0x1054, symBinAddr: 0x26B34, symSize: 0x44 }
  - { offsetInCU: 0x1DE3, offset: 0x115644, size: 0x8, addend: 0x0, symName: __ZN4absl12lts_2022062320ToDoubleMicrosecondsENS0_8DurationE, symObjAddr: 0x1098, symBinAddr: 0x26B78, symSize: 0x48 }
  - { offsetInCU: 0x1E2F, offset: 0x115690, size: 0x8, addend: 0x0, symName: __ZN4absl12lts_2022062320ToDoubleMillisecondsENS0_8DurationE, symObjAddr: 0x10E0, symBinAddr: 0x26BC0, symSize: 0x48 }
  - { offsetInCU: 0x1E7B, offset: 0x1156DC, size: 0x8, addend: 0x0, symName: __ZN4absl12lts_2022062315ToDoubleSecondsENS0_8DurationE, symObjAddr: 0x1128, symBinAddr: 0x26C08, symSize: 0x40 }
  - { offsetInCU: 0x1EC7, offset: 0x115728, size: 0x8, addend: 0x0, symName: __ZN4absl12lts_2022062315ToDoubleMinutesENS0_8DurationE, symObjAddr: 0x1168, symBinAddr: 0x26C48, symSize: 0x48 }
  - { offsetInCU: 0x1F13, offset: 0x115774, size: 0x8, addend: 0x0, symName: __ZN4absl12lts_2022062313ToDoubleHoursENS0_8DurationE, symObjAddr: 0x11B0, symBinAddr: 0x26C90, symSize: 0x48 }
  - { offsetInCU: 0x1F5F, offset: 0x1157C0, size: 0x8, addend: 0x0, symName: __ZN4absl12lts_2022062310ToTimespecENS0_8DurationE, symObjAddr: 0x11F8, symBinAddr: 0x26CD8, symSize: 0x6C }
  - { offsetInCU: 0x1FF3, offset: 0x115854, size: 0x8, addend: 0x0, symName: __ZN4absl12lts_202206239ToTimevalENS0_8DurationE, symObjAddr: 0x1264, symBinAddr: 0x26D44, symSize: 0x64 }
  - { offsetInCU: 0x205A, offset: 0x1158BB, size: 0x8, addend: 0x0, symName: __ZN4absl12lts_2022062319ToChronoNanosecondsENS0_8DurationE, symObjAddr: 0x12C8, symBinAddr: 0x26DA8, symSize: 0x18 }
  - { offsetInCU: 0x20CB, offset: 0x11592C, size: 0x8, addend: 0x0, symName: __ZN4absl12lts_2022062320ToChronoMicrosecondsENS0_8DurationE, symObjAddr: 0x12E0, symBinAddr: 0x26DC0, symSize: 0x4 }
  - { offsetInCU: 0x20FA, offset: 0x11595B, size: 0x8, addend: 0x0, symName: __ZN4absl12lts_2022062320ToChronoMicrosecondsENS0_8DurationE, symObjAddr: 0x12E0, symBinAddr: 0x26DC0, symSize: 0x4 }
  - { offsetInCU: 0x2131, offset: 0x115992, size: 0x8, addend: 0x0, symName: __ZN4absl12lts_2022062320ToChronoMillisecondsENS0_8DurationE, symObjAddr: 0x1358, symBinAddr: 0x26E38, symSize: 0x4 }
  - { offsetInCU: 0x2160, offset: 0x1159C1, size: 0x8, addend: 0x0, symName: __ZN4absl12lts_2022062320ToChronoMillisecondsENS0_8DurationE, symObjAddr: 0x1358, symBinAddr: 0x26E38, symSize: 0x4 }
  - { offsetInCU: 0x2197, offset: 0x1159F8, size: 0x8, addend: 0x0, symName: __ZN4absl12lts_2022062315ToChronoSecondsENS0_8DurationE, symObjAddr: 0x13D0, symBinAddr: 0x26EB0, symSize: 0x30 }
  - { offsetInCU: 0x2202, offset: 0x115A63, size: 0x8, addend: 0x0, symName: __ZN4absl12lts_2022062315ToChronoMinutesENS0_8DurationE, symObjAddr: 0x1400, symBinAddr: 0x26EE0, symSize: 0x40 }
  - { offsetInCU: 0x2231, offset: 0x115A92, size: 0x8, addend: 0x0, symName: __ZN4absl12lts_2022062315ToChronoMinutesENS0_8DurationE, symObjAddr: 0x1400, symBinAddr: 0x26EE0, symSize: 0x40 }
  - { offsetInCU: 0x224F, offset: 0x115AB0, size: 0x8, addend: 0x0, symName: __ZN4absl12lts_2022062315ToChronoMinutesENS0_8DurationE, symObjAddr: 0x1400, symBinAddr: 0x26EE0, symSize: 0x40 }
  - { offsetInCU: 0x22D6, offset: 0x115B37, size: 0x8, addend: 0x0, symName: __ZN4absl12lts_2022062313ToChronoHoursENS0_8DurationE, symObjAddr: 0x1440, symBinAddr: 0x26F20, symSize: 0x44 }
  - { offsetInCU: 0x2305, offset: 0x115B66, size: 0x8, addend: 0x0, symName: __ZN4absl12lts_2022062313ToChronoHoursENS0_8DurationE, symObjAddr: 0x1440, symBinAddr: 0x26F20, symSize: 0x44 }
  - { offsetInCU: 0x2323, offset: 0x115B84, size: 0x8, addend: 0x0, symName: __ZN4absl12lts_2022062313ToChronoHoursENS0_8DurationE, symObjAddr: 0x1440, symBinAddr: 0x26F20, symSize: 0x44 }
  - { offsetInCU: 0x23B6, offset: 0x115C17, size: 0x8, addend: 0x0, symName: __ZN4absl12lts_2022062314FormatDurationENS0_8DurationE, symObjAddr: 0x1484, symBinAddr: 0x26F64, symSize: 0x300 }
  - { offsetInCU: 0x2955, offset: 0x1161B6, size: 0x8, addend: 0x0, symName: __ZN4absl12lts_2022062313ParseDurationENS0_11string_viewEPNS0_8DurationE, symObjAddr: 0x1AC4, symBinAddr: 0x275A4, symSize: 0x354 }
  - { offsetInCU: 0x2C50, offset: 0x1164B1, size: 0x8, addend: 0x0, symName: __ZN4absl12lts_2022062313AbslParseFlagENS0_11string_viewEPNS0_8DurationEPNSt3__112basic_stringIcNS4_11char_traitsIcEENS4_9allocatorIcEEEE, symObjAddr: 0x1E18, symBinAddr: 0x278F8, symSize: 0x4 }
  - { offsetInCU: 0x2C99, offset: 0x1164FA, size: 0x8, addend: 0x0, symName: __ZN4absl12lts_2022062313AbslParseFlagENS0_11string_viewEPNS0_8DurationEPNSt3__112basic_stringIcNS4_11char_traitsIcEENS4_9allocatorIcEEEE, symObjAddr: 0x1E18, symBinAddr: 0x278F8, symSize: 0x4 }
  - { offsetInCU: 0x2CB9, offset: 0x11651A, size: 0x8, addend: 0x0, symName: __ZN4absl12lts_2022062315AbslUnparseFlagENS0_8DurationE, symObjAddr: 0x1E1C, symBinAddr: 0x278FC, symSize: 0x4 }
  - { offsetInCU: 0x2CE8, offset: 0x116549, size: 0x8, addend: 0x0, symName: __ZN4absl12lts_2022062315AbslUnparseFlagENS0_8DurationE, symObjAddr: 0x1E1C, symBinAddr: 0x278FC, symSize: 0x4 }
  - { offsetInCU: 0x2D08, offset: 0x116569, size: 0x8, addend: 0x0, symName: __ZN4absl12lts_202206239ParseFlagERKNSt3__112basic_stringIcNS1_11char_traitsIcEENS1_9allocatorIcEEEEPNS0_8DurationEPS7_, symObjAddr: 0x1E20, symBinAddr: 0x27900, symSize: 0x20 }
  - { offsetInCU: 0x2DE3, offset: 0x116644, size: 0x8, addend: 0x0, symName: __ZN4absl12lts_2022062311UnparseFlagENS0_8DurationE, symObjAddr: 0x1E40, symBinAddr: 0x27920, symSize: 0x4 }
  - { offsetInCU: 0x2E12, offset: 0x116673, size: 0x8, addend: 0x0, symName: __ZN4absl12lts_2022062311UnparseFlagENS0_8DurationE, symObjAddr: 0x1E40, symBinAddr: 0x27920, symSize: 0x4 }
  - { offsetInCU: 0x7CB3, offset: 0x11B514, size: 0x8, addend: 0x0, symName: __ZN4absl12lts_202206238DurationpLES1_, symObjAddr: 0x3F0, symBinAddr: 0x25ED0, symSize: 0x8C }
  - { offsetInCU: 0x7D25, offset: 0x11B586, size: 0x8, addend: 0x0, symName: __ZN4absl12lts_202206238DurationmIES1_, symObjAddr: 0x47C, symBinAddr: 0x25F5C, symSize: 0x80 }
  - { offsetInCU: 0x7DA8, offset: 0x11B609, size: 0x8, addend: 0x0, symName: __ZN4absl12lts_202206238DurationmLEx, symObjAddr: 0x4FC, symBinAddr: 0x25FDC, symSize: 0x200 }
  - { offsetInCU: 0x80EA, offset: 0x11B94B, size: 0x8, addend: 0x0, symName: __ZN4absl12lts_202206238DurationmLEd, symObjAddr: 0x6FC, symBinAddr: 0x261DC, symSize: 0x190 }
  - { offsetInCU: 0x80F4, offset: 0x11B955, size: 0x8, addend: 0x0, symName: __ZN4absl12lts_202206238DurationmLEx.cold.1, symObjAddr: 0x1E44, symBinAddr: 0x53EF0, symSize: 0x28 }
  - { offsetInCU: 0x81AA, offset: 0x11BA0B, size: 0x8, addend: 0x0, symName: __ZN4absl12lts_202206238DurationmLEd, symObjAddr: 0x6FC, symBinAddr: 0x261DC, symSize: 0x190 }
  - { offsetInCU: 0x838B, offset: 0x11BBEC, size: 0x8, addend: 0x0, symName: __ZN4absl12lts_202206238DurationdVEx, symObjAddr: 0x88C, symBinAddr: 0x2636C, symSize: 0x14C }
  - { offsetInCU: 0x862C, offset: 0x11BE8D, size: 0x8, addend: 0x0, symName: __ZN4absl12lts_202206238DurationdVEd, symObjAddr: 0x9D8, symBinAddr: 0x264B8, symSize: 0x180 }
  - { offsetInCU: 0x87CC, offset: 0x11C02D, size: 0x8, addend: 0x0, symName: __ZN4absl12lts_202206238DurationrMES1_, symObjAddr: 0xB58, symBinAddr: 0x26638, symSize: 0x38 }
  - { offsetInCU: 0x26, offset: 0x11C477, size: 0x8, addend: 0x0, symName: __ZN4absl12lts_202206239CUnescapeENS0_11string_viewEPNSt3__112basic_stringIcNS2_11char_traitsIcEENS2_9allocatorIcEEEES9_, symObjAddr: 0x0, symBinAddr: 0x27924, symSize: 0x838 }
  - { offsetInCU: 0x58, offset: 0x11C4A9, size: 0x8, addend: 0x0, symName: __ZN4absl12lts_2022062312_GLOBAL__N_113c_escaped_lenE, symObjAddr: 0x1B1F, symBinAddr: 0x5A48B, symSize: 0x0 }
  - { offsetInCU: 0x73, offset: 0x11C4C4, size: 0x8, addend: 0x0, symName: __ZN4absl12lts_2022062312_GLOBAL__N_19kUnBase64E, symObjAddr: 0x18DE, symBinAddr: 0x5A24A, symSize: 0x0 }
  - { offsetInCU: 0x8E, offset: 0x11C4DF, size: 0x8, addend: 0x0, symName: __ZN4absl12lts_2022062312_GLOBAL__N_116kUnWebSafeBase64E, symObjAddr: 0x19DE, symBinAddr: 0x5A34A, symSize: 0x0 }
  - { offsetInCU: 0xA9, offset: 0x11C4FA, size: 0x8, addend: 0x0, symName: __ZN4absl12lts_2022062312_GLOBAL__N_119kWebSafeBase64CharsE, symObjAddr: 0x1ADE, symBinAddr: 0x5A44A, symSize: 0x0 }
  - { offsetInCU: 0xC4, offset: 0x11C515, size: 0x8, addend: 0x0, symName: __ZN4absl12lts_2022062312_GLOBAL__N_116kHexValueLenientE, symObjAddr: 0x1C1F, symBinAddr: 0x5A58B, symSize: 0x0 }
  - { offsetInCU: 0x389, offset: 0x11C7DA, size: 0x8, addend: 0x0, symName: __ZN4absl12lts_2022062312_GLOBAL__N_115CEscapeInternalENS0_11string_viewEbb, symObjAddr: 0x9E0, symBinAddr: 0x28304, symSize: 0x21C }
  - { offsetInCU: 0x5F2, offset: 0x11CA43, size: 0x8, addend: 0x0, symName: __ZN4absl12lts_2022062312_GLOBAL__N_122Base64UnescapeInternalINSt3__112basic_stringIcNS3_11char_traitsIcEENS3_9allocatorIcEEEEEEbPKcmPT_PKa, symObjAddr: 0xC20, symBinAddr: 0x28544, symSize: 0x708 }
  - { offsetInCU: 0xA04, offset: 0x11CE55, size: 0x8, addend: 0x0, symName: __ZN4absl12lts_2022062321WebSafeBase64UnescapeENS0_11string_viewEPNSt3__112basic_stringIcNS2_11char_traitsIcEENS2_9allocatorIcEEEE, symObjAddr: 0x1328, symBinAddr: 0x28C4C, symSize: 0xC }
  - { offsetInCU: 0xC54, offset: 0x11D0A5, size: 0x8, addend: 0x0, symName: __ZN4absl12lts_2022062316strings_internal20Base64EscapeInternalINSt3__112basic_stringIcNS3_11char_traitsIcEENS3_9allocatorIcEEEEEEvPKhmPT_bPKc, symObjAddr: 0x1344, symBinAddr: 0x28C68, symSize: 0x9C }
  - { offsetInCU: 0xDE8, offset: 0x11D239, size: 0x8, addend: 0x0, symName: __ZN4absl12lts_2022062319WebSafeBase64EscapeENS0_11string_viewEPNSt3__112basic_stringIcNS2_11char_traitsIcEENS2_9allocatorIcEEEE, symObjAddr: 0x13E0, symBinAddr: 0x28D04, symSize: 0x10 }
  - { offsetInCU: 0xE60, offset: 0x11D2B1, size: 0x8, addend: 0x0, symName: __ZN4absl12lts_202206239CUnescapeENS0_11string_viewEPNSt3__112basic_stringIcNS2_11char_traitsIcEENS2_9allocatorIcEEEES9_, symObjAddr: 0x0, symBinAddr: 0x27924, symSize: 0x838 }
  - { offsetInCU: 0x1E3E, offset: 0x11E28F, size: 0x8, addend: 0x0, symName: __ZN4absl12lts_202206237CEscapeENS0_11string_viewE, symObjAddr: 0x838, symBinAddr: 0x2815C, symSize: 0x19C }
  - { offsetInCU: 0x211D, offset: 0x11E56E, size: 0x8, addend: 0x0, symName: __ZN4absl12lts_2022062310CHexEscapeENS0_11string_viewE, symObjAddr: 0x9D4, symBinAddr: 0x282F8, symSize: 0xC }
  - { offsetInCU: 0x2192, offset: 0x11E5E3, size: 0x8, addend: 0x0, symName: __ZN4absl12lts_2022062315Utf8SafeCEscapeENS0_11string_viewE, symObjAddr: 0xBFC, symBinAddr: 0x28520, symSize: 0xC }
  - { offsetInCU: 0x21EB, offset: 0x11E63C, size: 0x8, addend: 0x0, symName: __ZN4absl12lts_2022062318Utf8SafeCHexEscapeENS0_11string_viewE, symObjAddr: 0xC08, symBinAddr: 0x2852C, symSize: 0xC }
  - { offsetInCU: 0x2244, offset: 0x11E695, size: 0x8, addend: 0x0, symName: __ZN4absl12lts_2022062314Base64UnescapeENS0_11string_viewEPNSt3__112basic_stringIcNS2_11char_traitsIcEENS2_9allocatorIcEEEE, symObjAddr: 0xC14, symBinAddr: 0x28538, symSize: 0xC }
  - { offsetInCU: 0x22EA, offset: 0x11E73B, size: 0x8, addend: 0x0, symName: __ZN4absl12lts_2022062321WebSafeBase64UnescapeENS0_11string_viewEPNSt3__112basic_stringIcNS2_11char_traitsIcEENS2_9allocatorIcEEEE, symObjAddr: 0x1328, symBinAddr: 0x28C4C, symSize: 0xC }
  - { offsetInCU: 0x234C, offset: 0x11E79D, size: 0x8, addend: 0x0, symName: __ZN4absl12lts_2022062312Base64EscapeENS0_11string_viewEPNSt3__112basic_stringIcNS2_11char_traitsIcEENS2_9allocatorIcEEEE, symObjAddr: 0x1334, symBinAddr: 0x28C58, symSize: 0x10 }
  - { offsetInCU: 0x23AF, offset: 0x11E800, size: 0x8, addend: 0x0, symName: __ZN4absl12lts_2022062319WebSafeBase64EscapeENS0_11string_viewEPNSt3__112basic_stringIcNS2_11char_traitsIcEENS2_9allocatorIcEEEE, symObjAddr: 0x13E0, symBinAddr: 0x28D04, symSize: 0x10 }
  - { offsetInCU: 0x2412, offset: 0x11E863, size: 0x8, addend: 0x0, symName: __ZN4absl12lts_2022062312Base64EscapeENS0_11string_viewE, symObjAddr: 0x13F0, symBinAddr: 0x28D14, symSize: 0x54 }
  - { offsetInCU: 0x25DA, offset: 0x11EA2B, size: 0x8, addend: 0x0, symName: __ZN4absl12lts_2022062319WebSafeBase64EscapeENS0_11string_viewE, symObjAddr: 0x1444, symBinAddr: 0x28D68, symSize: 0x54 }
  - { offsetInCU: 0x27A2, offset: 0x11EBF3, size: 0x8, addend: 0x0, symName: __ZN4absl12lts_2022062316HexStringToBytesENS0_11string_viewE, symObjAddr: 0x1498, symBinAddr: 0x28DBC, symSize: 0xAC }
  - { offsetInCU: 0x2A31, offset: 0x11EE82, size: 0x8, addend: 0x0, symName: __ZN4absl12lts_2022062316BytesToHexStringENS0_11string_viewE, symObjAddr: 0x1544, symBinAddr: 0x28E68, symSize: 0x8C }
  - { offsetInCU: 0x7E19, offset: 0x12426A, size: 0x8, addend: 0x0, symName: __ZN4absl12lts_2022062312_GLOBAL__N_122Base64UnescapeInternalINSt3__112basic_stringIcNS3_11char_traitsIcEENS3_9allocatorIcEEEEEEbPKcmPT_PKa.cold.1, symObjAddr: 0x1874, symBinAddr: 0x53F18, symSize: 0x28 }
  - { offsetInCU: 0x7E47, offset: 0x124298, size: 0x8, addend: 0x0, symName: __ZN4absl12lts_2022062316strings_internal20Base64EscapeInternalINSt3__112basic_stringIcNS3_11char_traitsIcEENS3_9allocatorIcEEEEEEvPKhmPT_bPKc.cold.1, symObjAddr: 0x189C, symBinAddr: 0x53F40, symSize: 0x28 }
  - { offsetInCU: 0x26, offset: 0x12459D, size: 0x8, addend: 0x0, symName: __ZN4absl12lts_2022062316strings_internal33CalculateBase64EscapedLenInternalEmb, symObjAddr: 0x0, symBinAddr: 0x28EF4, symSize: 0x60 }
  - { offsetInCU: 0x4E, offset: 0x1245C5, size: 0x8, addend: 0x0, symName: __ZN4absl12lts_2022062316strings_internal12kBase64CharsE, symObjAddr: 0x27C, symBinAddr: 0x5A68F, symSize: 0x0 }
  - { offsetInCU: 0x5C, offset: 0x1245D3, size: 0x8, addend: 0x0, symName: __ZN4absl12lts_2022062316strings_internal20Base64EscapeInternalEPKhmPcmPKcb, symObjAddr: 0x60, symBinAddr: 0x28F54, symSize: 0x1F0 }
  - { offsetInCU: 0x320, offset: 0x124897, size: 0x8, addend: 0x0, symName: __ZN4absl12lts_2022062316strings_internal33CalculateBase64EscapedLenInternalEmb, symObjAddr: 0x0, symBinAddr: 0x28EF4, symSize: 0x60 }
  - { offsetInCU: 0x373, offset: 0x1248EA, size: 0x8, addend: 0x0, symName: __ZN4absl12lts_2022062316strings_internal20Base64EscapeInternalEPKhmPcmPKcb, symObjAddr: 0x60, symBinAddr: 0x28F54, symSize: 0x1F0 }
  - { offsetInCU: 0x2EBB, offset: 0x127432, size: 0x8, addend: 0x0, symName: __ZN4absl12lts_2022062316strings_internal33CalculateBase64EscapedLenInternalEmb.cold.1, symObjAddr: 0x250, symBinAddr: 0x53F68, symSize: 0x28 }
  - { offsetInCU: 0x26, offset: 0x127489, size: 0x8, addend: 0x0, symName: __ZN4absl12lts_2022062318profiling_internal17ExponentialBiased12GetSkipCountEx, symObjAddr: 0x0, symBinAddr: 0x29144, symSize: 0xE8 }
  - { offsetInCU: 0x10B, offset: 0x12756E, size: 0x8, addend: 0x0, symName: __ZN4absl12lts_2022062318profiling_internal17ExponentialBiased10InitializeEv, symObjAddr: 0xE8, symBinAddr: 0x2922C, symSize: 0x50 }
  - { offsetInCU: 0x12F, offset: 0x127592, size: 0x8, addend: 0x0, symName: __ZZN4absl12lts_2022062318profiling_internal17ExponentialBiased10InitializeEvE11global_rand, symObjAddr: 0x7FD0, symBinAddr: 0x6E1CC, symSize: 0x0 }
  - { offsetInCU: 0x26EA, offset: 0x129B4D, size: 0x8, addend: 0x0, symName: __ZN4absl12lts_2022062318profiling_internal17ExponentialBiased12GetSkipCountEx, symObjAddr: 0x0, symBinAddr: 0x29144, symSize: 0xE8 }
  - { offsetInCU: 0x285A, offset: 0x129CBD, size: 0x8, addend: 0x0, symName: __ZN4absl12lts_2022062318profiling_internal17ExponentialBiased9GetStrideEx, symObjAddr: 0x138, symBinAddr: 0x2927C, symSize: 0x1C }
  - { offsetInCU: 0x26, offset: 0x129D30, size: 0x8, addend: 0x0, symName: __ZN4absl12lts_2022062319str_format_internal13FlagsToStringENS1_5FlagsE, symObjAddr: 0x0, symBinAddr: 0x29298, symSize: 0xCC }
  - { offsetInCU: 0x5B, offset: 0x129D65, size: 0x8, addend: 0x0, symName: __ZN4absl12lts_2022062319str_format_internal28FormatConversionCharInternal1cE, symObjAddr: 0x378, symBinAddr: 0x5A6D8, symSize: 0x0 }
  - { offsetInCU: 0x17D, offset: 0x129E87, size: 0x8, addend: 0x0, symName: __ZN4absl12lts_2022062319str_format_internal28FormatConversionCharInternal1sE, symObjAddr: 0x379, symBinAddr: 0x5A6D9, symSize: 0x0 }
  - { offsetInCU: 0x191, offset: 0x129E9B, size: 0x8, addend: 0x0, symName: __ZN4absl12lts_2022062319str_format_internal28FormatConversionCharInternal1dE, symObjAddr: 0x37A, symBinAddr: 0x5A6DA, symSize: 0x0 }
  - { offsetInCU: 0x1A5, offset: 0x129EAF, size: 0x8, addend: 0x0, symName: __ZN4absl12lts_2022062319str_format_internal28FormatConversionCharInternal1iE, symObjAddr: 0x37B, symBinAddr: 0x5A6DB, symSize: 0x0 }
  - { offsetInCU: 0x1B9, offset: 0x129EC3, size: 0x8, addend: 0x0, symName: __ZN4absl12lts_2022062319str_format_internal28FormatConversionCharInternal1oE, symObjAddr: 0x37C, symBinAddr: 0x5A6DC, symSize: 0x0 }
  - { offsetInCU: 0x1CD, offset: 0x129ED7, size: 0x8, addend: 0x0, symName: __ZN4absl12lts_2022062319str_format_internal28FormatConversionCharInternal1uE, symObjAddr: 0x37D, symBinAddr: 0x5A6DD, symSize: 0x0 }
  - { offsetInCU: 0x1E1, offset: 0x129EEB, size: 0x8, addend: 0x0, symName: __ZN4absl12lts_2022062319str_format_internal28FormatConversionCharInternal1xE, symObjAddr: 0x37E, symBinAddr: 0x5A6DE, symSize: 0x0 }
  - { offsetInCU: 0x1F5, offset: 0x129EFF, size: 0x8, addend: 0x0, symName: __ZN4absl12lts_2022062319str_format_internal28FormatConversionCharInternal1XE, symObjAddr: 0x37F, symBinAddr: 0x5A6DF, symSize: 0x0 }
  - { offsetInCU: 0x209, offset: 0x129F13, size: 0x8, addend: 0x0, symName: __ZN4absl12lts_2022062319str_format_internal28FormatConversionCharInternal1fE, symObjAddr: 0x380, symBinAddr: 0x5A6E0, symSize: 0x0 }
  - { offsetInCU: 0x21D, offset: 0x129F27, size: 0x8, addend: 0x0, symName: __ZN4absl12lts_2022062319str_format_internal28FormatConversionCharInternal1FE, symObjAddr: 0x381, symBinAddr: 0x5A6E1, symSize: 0x0 }
  - { offsetInCU: 0x231, offset: 0x129F3B, size: 0x8, addend: 0x0, symName: __ZN4absl12lts_2022062319str_format_internal28FormatConversionCharInternal1eE, symObjAddr: 0x382, symBinAddr: 0x5A6E2, symSize: 0x0 }
  - { offsetInCU: 0x245, offset: 0x129F4F, size: 0x8, addend: 0x0, symName: __ZN4absl12lts_2022062319str_format_internal28FormatConversionCharInternal1EE, symObjAddr: 0x383, symBinAddr: 0x5A6E3, symSize: 0x0 }
  - { offsetInCU: 0x259, offset: 0x129F63, size: 0x8, addend: 0x0, symName: __ZN4absl12lts_2022062319str_format_internal28FormatConversionCharInternal1gE, symObjAddr: 0x384, symBinAddr: 0x5A6E4, symSize: 0x0 }
  - { offsetInCU: 0x26D, offset: 0x129F77, size: 0x8, addend: 0x0, symName: __ZN4absl12lts_2022062319str_format_internal28FormatConversionCharInternal1GE, symObjAddr: 0x385, symBinAddr: 0x5A6E5, symSize: 0x0 }
  - { offsetInCU: 0x281, offset: 0x129F8B, size: 0x8, addend: 0x0, symName: __ZN4absl12lts_2022062319str_format_internal28FormatConversionCharInternal1aE, symObjAddr: 0x386, symBinAddr: 0x5A6E6, symSize: 0x0 }
  - { offsetInCU: 0x295, offset: 0x129F9F, size: 0x8, addend: 0x0, symName: __ZN4absl12lts_2022062319str_format_internal28FormatConversionCharInternal1AE, symObjAddr: 0x387, symBinAddr: 0x5A6E7, symSize: 0x0 }
  - { offsetInCU: 0x2A9, offset: 0x129FB3, size: 0x8, addend: 0x0, symName: __ZN4absl12lts_2022062319str_format_internal28FormatConversionCharInternal1nE, symObjAddr: 0x388, symBinAddr: 0x5A6E8, symSize: 0x0 }
  - { offsetInCU: 0x2BD, offset: 0x129FC7, size: 0x8, addend: 0x0, symName: __ZN4absl12lts_2022062319str_format_internal28FormatConversionCharInternal1pE, symObjAddr: 0x389, symBinAddr: 0x5A6E9, symSize: 0x0 }
  - { offsetInCU: 0x2D1, offset: 0x129FDB, size: 0x8, addend: 0x0, symName: __ZN4absl12lts_2022062319str_format_internal28FormatConversionCharInternal5kNoneE, symObjAddr: 0x38A, symBinAddr: 0x5A6EA, symSize: 0x0 }
  - { offsetInCU: 0x2E5, offset: 0x129FEF, size: 0x8, addend: 0x0, symName: __ZN4absl12lts_2022062319str_format_internal31FormatConversionCharSetInternal1cE, symObjAddr: 0x390, symBinAddr: 0x5A6F0, symSize: 0x0 }
  - { offsetInCU: 0x460, offset: 0x12A16A, size: 0x8, addend: 0x0, symName: __ZN4absl12lts_2022062319str_format_internal31FormatConversionCharSetInternal1sE, symObjAddr: 0x398, symBinAddr: 0x5A6F8, symSize: 0x0 }
  - { offsetInCU: 0x474, offset: 0x12A17E, size: 0x8, addend: 0x0, symName: __ZN4absl12lts_2022062319str_format_internal31FormatConversionCharSetInternal1dE, symObjAddr: 0x3A0, symBinAddr: 0x5A700, symSize: 0x0 }
  - { offsetInCU: 0x488, offset: 0x12A192, size: 0x8, addend: 0x0, symName: __ZN4absl12lts_2022062319str_format_internal31FormatConversionCharSetInternal1iE, symObjAddr: 0x3A8, symBinAddr: 0x5A708, symSize: 0x0 }
  - { offsetInCU: 0x49C, offset: 0x12A1A6, size: 0x8, addend: 0x0, symName: __ZN4absl12lts_2022062319str_format_internal31FormatConversionCharSetInternal1oE, symObjAddr: 0x3B0, symBinAddr: 0x5A710, symSize: 0x0 }
  - { offsetInCU: 0x4B0, offset: 0x12A1BA, size: 0x8, addend: 0x0, symName: __ZN4absl12lts_2022062319str_format_internal31FormatConversionCharSetInternal1uE, symObjAddr: 0x3B8, symBinAddr: 0x5A718, symSize: 0x0 }
  - { offsetInCU: 0x4C4, offset: 0x12A1CE, size: 0x8, addend: 0x0, symName: __ZN4absl12lts_2022062319str_format_internal31FormatConversionCharSetInternal1xE, symObjAddr: 0x3C0, symBinAddr: 0x5A720, symSize: 0x0 }
  - { offsetInCU: 0x4D8, offset: 0x12A1E2, size: 0x8, addend: 0x0, symName: __ZN4absl12lts_2022062319str_format_internal31FormatConversionCharSetInternal1XE, symObjAddr: 0x3C8, symBinAddr: 0x5A728, symSize: 0x0 }
  - { offsetInCU: 0x4EC, offset: 0x12A1F6, size: 0x8, addend: 0x0, symName: __ZN4absl12lts_2022062319str_format_internal31FormatConversionCharSetInternal1fE, symObjAddr: 0x3D0, symBinAddr: 0x5A730, symSize: 0x0 }
  - { offsetInCU: 0x500, offset: 0x12A20A, size: 0x8, addend: 0x0, symName: __ZN4absl12lts_2022062319str_format_internal31FormatConversionCharSetInternal1FE, symObjAddr: 0x3D8, symBinAddr: 0x5A738, symSize: 0x0 }
  - { offsetInCU: 0x514, offset: 0x12A21E, size: 0x8, addend: 0x0, symName: __ZN4absl12lts_2022062319str_format_internal31FormatConversionCharSetInternal1eE, symObjAddr: 0x3E0, symBinAddr: 0x5A740, symSize: 0x0 }
  - { offsetInCU: 0x528, offset: 0x12A232, size: 0x8, addend: 0x0, symName: __ZN4absl12lts_2022062319str_format_internal31FormatConversionCharSetInternal1EE, symObjAddr: 0x3E8, symBinAddr: 0x5A748, symSize: 0x0 }
  - { offsetInCU: 0x53C, offset: 0x12A246, size: 0x8, addend: 0x0, symName: __ZN4absl12lts_2022062319str_format_internal31FormatConversionCharSetInternal1gE, symObjAddr: 0x3F0, symBinAddr: 0x5A750, symSize: 0x0 }
  - { offsetInCU: 0x550, offset: 0x12A25A, size: 0x8, addend: 0x0, symName: __ZN4absl12lts_2022062319str_format_internal31FormatConversionCharSetInternal1GE, symObjAddr: 0x3F8, symBinAddr: 0x5A758, symSize: 0x0 }
  - { offsetInCU: 0x564, offset: 0x12A26E, size: 0x8, addend: 0x0, symName: __ZN4absl12lts_2022062319str_format_internal31FormatConversionCharSetInternal1aE, symObjAddr: 0x400, symBinAddr: 0x5A760, symSize: 0x0 }
  - { offsetInCU: 0x578, offset: 0x12A282, size: 0x8, addend: 0x0, symName: __ZN4absl12lts_2022062319str_format_internal31FormatConversionCharSetInternal1AE, symObjAddr: 0x408, symBinAddr: 0x5A768, symSize: 0x0 }
  - { offsetInCU: 0x58C, offset: 0x12A296, size: 0x8, addend: 0x0, symName: __ZN4absl12lts_2022062319str_format_internal31FormatConversionCharSetInternal1nE, symObjAddr: 0x410, symBinAddr: 0x5A770, symSize: 0x0 }
  - { offsetInCU: 0x5A0, offset: 0x12A2AA, size: 0x8, addend: 0x0, symName: __ZN4absl12lts_2022062319str_format_internal31FormatConversionCharSetInternal1pE, symObjAddr: 0x418, symBinAddr: 0x5A778, symSize: 0x0 }
  - { offsetInCU: 0x5B4, offset: 0x12A2BE, size: 0x8, addend: 0x0, symName: __ZN4absl12lts_2022062319str_format_internal31FormatConversionCharSetInternal5kStarE, symObjAddr: 0x420, symBinAddr: 0x5A780, symSize: 0x0 }
  - { offsetInCU: 0x5C8, offset: 0x12A2D2, size: 0x8, addend: 0x0, symName: __ZN4absl12lts_2022062319str_format_internal31FormatConversionCharSetInternal9kIntegralE, symObjAddr: 0x428, symBinAddr: 0x5A788, symSize: 0x0 }
  - { offsetInCU: 0x5DC, offset: 0x12A2E6, size: 0x8, addend: 0x0, symName: __ZN4absl12lts_2022062319str_format_internal31FormatConversionCharSetInternal9kFloatingE, symObjAddr: 0x430, symBinAddr: 0x5A790, symSize: 0x0 }
  - { offsetInCU: 0x5F0, offset: 0x12A2FA, size: 0x8, addend: 0x0, symName: __ZN4absl12lts_2022062319str_format_internal31FormatConversionCharSetInternal8kNumericE, symObjAddr: 0x438, symBinAddr: 0x5A798, symSize: 0x0 }
  - { offsetInCU: 0x604, offset: 0x12A30E, size: 0x8, addend: 0x0, symName: __ZN4absl12lts_2022062319str_format_internal31FormatConversionCharSetInternal8kPointerE, symObjAddr: 0x440, symBinAddr: 0x5A7A0, symSize: 0x0 }
  - { offsetInCU: 0x612, offset: 0x12A31C, size: 0x8, addend: 0x0, symName: __ZN4absl12lts_2022062319str_format_internal13FlagsToStringENS1_5FlagsE, symObjAddr: 0x0, symBinAddr: 0x29298, symSize: 0xCC }
  - { offsetInCU: 0x4AE5, offset: 0x12E7EF, size: 0x8, addend: 0x0, symName: __ZN4absl12lts_2022062319str_format_internal14FormatSinkImpl15PutPaddedStringENS0_11string_viewEiib, symObjAddr: 0xCC, symBinAddr: 0x29364, symSize: 0x9C }
  - { offsetInCU: 0x4D89, offset: 0x12EA93, size: 0x8, addend: 0x0, symName: __ZN4absl12lts_2022062319str_format_internal14FormatSinkImpl15PutPaddedStringENS0_11string_viewEiib.cold.1, symObjAddr: 0x2D8, symBinAddr: 0x53F90, symSize: 0x28 }
  - { offsetInCU: 0x4ECA, offset: 0x12EBD4, size: 0x8, addend: 0x0, symName: __ZN4absl12lts_2022062319str_format_internal14FormatSinkImpl15PutPaddedStringENS0_11string_viewEiib.cold.1, symObjAddr: 0x2D8, symBinAddr: 0x53F90, symSize: 0x28 }
  - { offsetInCU: 0x1C7, offset: 0x12EDFE, size: 0x8, addend: 0x0, symName: __ZN4absl12lts_2022062319str_format_internal12_GLOBAL__N_122FormatFPositiveExpSlowENS0_7uint128EiRKNS2_11FormatStateE, symObjAddr: 0x18C0, symBinAddr: 0x2ACB4, symSize: 0xA4 }
  - { offsetInCU: 0x414, offset: 0x12F04B, size: 0x8, addend: 0x0, symName: __ZN4absl12lts_2022062319str_format_internal12_GLOBAL__N_122FormatFNegativeExpSlowENS0_7uint128EiRKNS2_11FormatStateE, symObjAddr: 0x1964, symBinAddr: 0x2AD58, symSize: 0x194 }
  - { offsetInCU: 0xE60, offset: 0x12FA97, size: 0x8, addend: 0x0, symName: __ZN4absl12lts_2022062319str_format_internal12_GLOBAL__N_113FloatToBufferILNS2_11FormatStyleE1EeEEbNS2_10DecomposedIT0_EEiPNS2_6BufferEPi, symObjAddr: 0x111C, symBinAddr: 0x2A51C, symSize: 0x358 }
  - { offsetInCU: 0x10CC, offset: 0x12FD03, size: 0x8, addend: 0x0, symName: __ZN4absl12lts_2022062319str_format_internal12_GLOBAL__N_118FallbackToSnprintfIeEEbT_RKNS1_24FormatConversionSpecImplEPNS1_14FormatSinkImplE, symObjAddr: 0x1474, symBinAddr: 0x2A874, symSize: 0x220 }
  - { offsetInCU: 0x10E9, offset: 0x12FD20, size: 0x8, addend: 0x0, symName: __ZN4absl12lts_2022062319str_format_internal12_GLOBAL__N_118FallbackToSnprintfIeEEbT_RKNS1_24FormatConversionSpecImplEPNS1_14FormatSinkImplE, symObjAddr: 0x1474, symBinAddr: 0x2A874, symSize: 0x220 }
  - { offsetInCU: 0x1937, offset: 0x13056E, size: 0x8, addend: 0x0, symName: __ZN4absl12lts_2022062319str_format_internal12_GLOBAL__N_132PrintIntegralDigitsFromRightFastENS0_7uint128EPc, symObjAddr: 0x27C0, symBinAddr: 0x2BA44, symSize: 0xA0 }
  - { offsetInCU: 0x1A8E, offset: 0x1306C5, size: 0x8, addend: 0x0, symName: __ZN4absl12lts_2022062319str_format_internal12_GLOBAL__N_125PrintFractionalDigitsFastENS0_7uint128EPcii, symObjAddr: 0x2860, symBinAddr: 0x2BAE4, symSize: 0x17C }
  - { offsetInCU: 0x1CC0, offset: 0x1308F7, size: 0x8, addend: 0x0, symName: __ZN4absl12lts_2022062319str_format_internal12_GLOBAL__N_110FinalPrintERKNS2_11FormatStateENS0_11string_viewEiiS6_, symObjAddr: 0x29DC, symBinAddr: 0x2BC60, symSize: 0x1B0 }
  - { offsetInCU: 0x1CCA, offset: 0x130901, size: 0x8, addend: 0x0, symName: __ZN4absl12lts_2022062319str_format_internal12_GLOBAL__N_110FinalPrintERKNS2_11FormatStateENS0_11string_viewEiiS6_, symObjAddr: 0x29DC, symBinAddr: 0x2BC60, symSize: 0x1B0 }
  - { offsetInCU: 0x1EB6, offset: 0x130AED, size: 0x8, addend: 0x0, symName: __ZN4absl12lts_2022062319str_format_internal12_GLOBAL__N_113PrintExponentEicPNS2_6BufferE, symObjAddr: 0x1694, symBinAddr: 0x2AA94, symSize: 0x158 }
  - { offsetInCU: 0x2044, offset: 0x130C7B, size: 0x8, addend: 0x0, symName: __ZN4absl12lts_2022062319str_format_internal12_GLOBAL__N_117WriteBufferToSinkEcNS0_11string_viewERKNS1_24FormatConversionSpecImplEPNS1_14FormatSinkImplE, symObjAddr: 0x17EC, symBinAddr: 0x2ABEC, symSize: 0xC8 }
  - { offsetInCU: 0x204E, offset: 0x130C85, size: 0x8, addend: 0x0, symName: __ZN4absl12lts_2022062319str_format_internal12_GLOBAL__N_117WriteBufferToSinkEcNS0_11string_viewERKNS1_24FormatConversionSpecImplEPNS1_14FormatSinkImplE, symObjAddr: 0x17EC, symBinAddr: 0x2ABEC, symSize: 0xC8 }
  - { offsetInCU: 0x21B4, offset: 0x130DEB, size: 0x8, addend: 0x0, symName: __ZN4absl12lts_2022062319str_format_internal12_GLOBAL__N_111FloatToSinkIdEEbT_RKNS1_24FormatConversionSpecImplEPNS1_14FormatSinkImplE, symObjAddr: 0x8C4, symBinAddr: 0x29CC4, symSize: 0x854 }
  - { offsetInCU: 0x34D7, offset: 0x13210E, size: 0x8, addend: 0x0, symName: __ZN4absl12lts_2022062319str_format_internal12_GLOBAL__N_113FloatToBufferILNS2_11FormatStyleE1EdEEbNS2_10DecomposedIT0_EEiPNS2_6BufferEPi, symObjAddr: 0x2DF8, symBinAddr: 0x2C038, symSize: 0x4EC }
  - { offsetInCU: 0x38D0, offset: 0x132507, size: 0x8, addend: 0x0, symName: __ZN4absl12lts_2022062319str_format_internal12_GLOBAL__N_118FallbackToSnprintfIdEEbT_RKNS1_24FormatConversionSpecImplEPNS1_14FormatSinkImplE, symObjAddr: 0x32E4, symBinAddr: 0x2C524, symSize: 0x20C }
  - { offsetInCU: 0x38ED, offset: 0x132524, size: 0x8, addend: 0x0, symName: __ZN4absl12lts_2022062319str_format_internal12_GLOBAL__N_118FallbackToSnprintfIdEEbT_RKNS1_24FormatConversionSpecImplEPNS1_14FormatSinkImplE, symObjAddr: 0x32E4, symBinAddr: 0x2C524, symSize: 0x20C }
  - { offsetInCU: 0x424D, offset: 0x132E84, size: 0x8, addend: 0x0, symName: __ZN4absl12lts_2022062319str_format_internal12_GLOBAL__N_119PrintIntegralDigitsILNS2_11FormatStyleE1EoEEiT0_PNS2_6BufferE, symObjAddr: 0x2BD0, symBinAddr: 0x2BE10, symSize: 0xD4 }
  - { offsetInCU: 0x4302, offset: 0x132F39, size: 0x8, addend: 0x0, symName: __ZN4absl12lts_2022062319str_format_internal12_GLOBAL__N_120RemoveExtraPrecisionEibPNS2_6BufferEPi, symObjAddr: 0x2CA4, symBinAddr: 0x2BEE4, symSize: 0xAC }
  - { offsetInCU: 0x431F, offset: 0x132F56, size: 0x8, addend: 0x0, symName: __ZN4absl12lts_2022062319str_format_internal12_GLOBAL__N_120RemoveExtraPrecisionEibPNS2_6BufferEPi, symObjAddr: 0x2CA4, symBinAddr: 0x2BEE4, symSize: 0xAC }
  - { offsetInCU: 0x442E, offset: 0x133065, size: 0x8, addend: 0x0, symName: __ZN4absl12lts_2022062319str_format_internal12_GLOBAL__N_17RoundUpILNS2_11FormatStyleE1EEEvPNS2_6BufferEPi, symObjAddr: 0x2D50, symBinAddr: 0x2BF90, symSize: 0xA8 }
  - { offsetInCU: 0x44E7, offset: 0x13311E, size: 0x8, addend: 0x0, symName: __ZN4absl12lts_2022062319str_format_internal12_GLOBAL__N_113FloatToBufferILNS2_11FormatStyleE1EdEEbNS2_10DecomposedIT0_EEiPNS2_6BufferEPi, symObjAddr: 0x2DF8, symBinAddr: 0x2C038, symSize: 0x4EC }
  - { offsetInCU: 0x4525, offset: 0x13315C, size: 0x8, addend: 0x0, symName: __ZN4absl12lts_2022062319str_format_internal12_GLOBAL__N_119ExtraWidthToPaddingEmRKNS2_11FormatStateE, symObjAddr: 0x22C8, symBinAddr: 0x2B6BC, symSize: 0x60 }
  - { offsetInCU: 0x4840, offset: 0x133477, size: 0x8, addend: 0x0, symName: __ZN4absl12lts_2022062319str_format_internal12_GLOBAL__N_119PrintIntegralDigitsILNS2_11FormatStyleE1EyEEiT0_PNS2_6BufferE, symObjAddr: 0x34F0, symBinAddr: 0x2C730, symSize: 0x8C }
  - { offsetInCU: 0x48F5, offset: 0x13352C, size: 0x8, addend: 0x0, symName: __ZN4absl12lts_2022062319str_format_internal16ConvertFloatImplEeRKNS1_24FormatConversionSpecImplEPNS1_14FormatSinkImplE.cold.1, symObjAddr: 0x357C, symBinAddr: 0x53FB8, symSize: 0x24 }
  - { offsetInCU: 0x4A64, offset: 0x13369B, size: 0x8, addend: 0x0, symName: __ZN4absl12lts_2022062319str_format_internal16ConvertFloatImplEeRKNS1_24FormatConversionSpecImplEPNS1_14FormatSinkImplE, symObjAddr: 0x0, symBinAddr: 0x29400, symSize: 0x8BC }
  - { offsetInCU: 0x59AF, offset: 0x1345E6, size: 0x8, addend: 0x0, symName: __ZN4absl12lts_2022062319str_format_internal16ConvertFloatImplEfRKNS1_24FormatConversionSpecImplEPNS1_14FormatSinkImplE, symObjAddr: 0x8BC, symBinAddr: 0x29CBC, symSize: 0x8 }
  - { offsetInCU: 0x5A19, offset: 0x134650, size: 0x8, addend: 0x0, symName: __ZN4absl12lts_2022062319str_format_internal16ConvertFloatImplEdRKNS1_24FormatConversionSpecImplEPNS1_14FormatSinkImplE, symObjAddr: 0x1118, symBinAddr: 0x2A518, symSize: 0x4 }
  - { offsetInCU: 0x5A6A, offset: 0x1346A1, size: 0x8, addend: 0x0, symName: __ZN4absl12lts_2022062319str_format_internal16ConvertFloatImplEdRKNS1_24FormatConversionSpecImplEPNS1_14FormatSinkImplE, symObjAddr: 0x1118, symBinAddr: 0x2A518, symSize: 0x4 }
  - { offsetInCU: 0x5E68, offset: 0x134A9F, size: 0x8, addend: 0x0, symName: __ZN4absl12lts_2022062319functional_internal12InvokeObjectIZNS0_19str_format_internal12_GLOBAL__N_115BinaryToDecimal13RunConversionENS0_7uint128EiNS0_11FunctionRefIFvS5_EEEEUlNS0_4SpanIjEEE_vJSB_EEET0_NS1_7VoidPtrEDpNS1_8ForwardTIT1_E4typeE, symObjAddr: 0x1E0C, symBinAddr: 0x2B200, symSize: 0x254 }
  - { offsetInCU: 0x61E1, offset: 0x134E18, size: 0x8, addend: 0x0, symName: '__ZN4absl12lts_2022062319functional_internal12InvokeObjectIZNS0_19str_format_internal12_GLOBAL__N_122FormatFPositiveExpSlowENS0_7uint128EiRKNS4_11FormatStateEE3$_0vJNS4_15BinaryToDecimalEEEET0_NS1_7VoidPtrEDpNS1_8ForwardTIT1_E4typeE', symObjAddr: 0x20AC, symBinAddr: 0x2B4A0, symSize: 0x21C }
  - { offsetInCU: 0x6479, offset: 0x1350B0, size: 0x8, addend: 0x0, symName: __ZN4absl12lts_2022062319functional_internal12InvokeObjectIZNS0_19str_format_internal12_GLOBAL__N_124FractionalDigitGenerator13RunConversionENS0_7uint128EiNS0_11FunctionRefIFvS5_EEEEUlNS0_4SpanIjEEE_vJSB_EEET0_NS1_7VoidPtrEDpNS1_8ForwardTIT1_E4typeE, symObjAddr: 0x2498, symBinAddr: 0x2B71C, symSize: 0xF8 }
  - { offsetInCU: 0x674B, offset: 0x135382, size: 0x8, addend: 0x0, symName: '__ZN4absl12lts_2022062319functional_internal12InvokeObjectIZNS0_19str_format_internal12_GLOBAL__N_122FormatFNegativeExpSlowENS0_7uint128EiRKNS4_11FormatStateEE3$_1vJNS4_24FractionalDigitGeneratorEEEET0_NS1_7VoidPtrEDpNS1_8ForwardTIT1_E4typeE', symObjAddr: 0x2624, symBinAddr: 0x2B8A8, symSize: 0x19C }
  - { offsetInCU: 0xBAFD, offset: 0x13A734, size: 0x8, addend: 0x0, symName: __ZN4absl12lts_2022062319str_format_internal16ConvertFloatImplEeRKNS1_24FormatConversionSpecImplEPNS1_14FormatSinkImplE.cold.4, symObjAddr: 0x35E8, symBinAddr: 0x54024, symSize: 0x24 }
  - { offsetInCU: 0xBB41, offset: 0x13A778, size: 0x8, addend: 0x0, symName: __ZN4absl12lts_2022062319str_format_internal16ConvertFloatImplEeRKNS1_24FormatConversionSpecImplEPNS1_14FormatSinkImplE.cold.8, symObjAddr: 0x3680, symBinAddr: 0x540BC, symSize: 0x24 }
  - { offsetInCU: 0xBBDB, offset: 0x13A812, size: 0x8, addend: 0x0, symName: __ZN4absl12lts_2022062319str_format_internal16ConvertFloatImplEeRKNS1_24FormatConversionSpecImplEPNS1_14FormatSinkImplE.cold.1, symObjAddr: 0x357C, symBinAddr: 0x53FB8, symSize: 0x24 }
  - { offsetInCU: 0xBC8B, offset: 0x13A8C2, size: 0x8, addend: 0x0, symName: __ZN4absl12lts_2022062319str_format_internal16ConvertFloatImplEeRKNS1_24FormatConversionSpecImplEPNS1_14FormatSinkImplE.cold.6, symObjAddr: 0x3634, symBinAddr: 0x54070, symSize: 0x28 }
  - { offsetInCU: 0xBCCF, offset: 0x13A906, size: 0x8, addend: 0x0, symName: __ZN4absl12lts_2022062319str_format_internal16ConvertFloatImplEeRKNS1_24FormatConversionSpecImplEPNS1_14FormatSinkImplE.cold.7, symObjAddr: 0x365C, symBinAddr: 0x54098, symSize: 0x24 }
  - { offsetInCU: 0xBD69, offset: 0x13A9A0, size: 0x8, addend: 0x0, symName: __ZN4absl12lts_2022062319str_format_internal16ConvertFloatImplEeRKNS1_24FormatConversionSpecImplEPNS1_14FormatSinkImplE.cold.2, symObjAddr: 0x35A0, symBinAddr: 0x53FDC, symSize: 0x24 }
  - { offsetInCU: 0xBDED, offset: 0x13AA24, size: 0x8, addend: 0x0, symName: __ZN4absl12lts_2022062319str_format_internal16ConvertFloatImplEeRKNS1_24FormatConversionSpecImplEPNS1_14FormatSinkImplE.cold.5, symObjAddr: 0x360C, symBinAddr: 0x54048, symSize: 0x28 }
  - { offsetInCU: 0xBE5D, offset: 0x13AA94, size: 0x8, addend: 0x0, symName: __ZN4absl12lts_2022062319str_format_internal16ConvertFloatImplEeRKNS1_24FormatConversionSpecImplEPNS1_14FormatSinkImplE.cold.3, symObjAddr: 0x35C4, symBinAddr: 0x54000, symSize: 0x24 }
  - { offsetInCU: 0xBEF1, offset: 0x13AB28, size: 0x8, addend: 0x0, symName: __ZN4absl12lts_2022062319str_format_internal12_GLOBAL__N_111FloatToSinkIdEEbT_RKNS1_24FormatConversionSpecImplEPNS1_14FormatSinkImplE.cold.5, symObjAddr: 0x3738, symBinAddr: 0x54174, symSize: 0x24 }
  - { offsetInCU: 0xBF1F, offset: 0x13AB56, size: 0x8, addend: 0x0, symName: __ZN4absl12lts_2022062319str_format_internal12_GLOBAL__N_111FloatToSinkIdEEbT_RKNS1_24FormatConversionSpecImplEPNS1_14FormatSinkImplE.cold.9, symObjAddr: 0x37D0, symBinAddr: 0x5420C, symSize: 0x24 }
  - { offsetInCU: 0xBFA3, offset: 0x13ABDA, size: 0x8, addend: 0x0, symName: __ZN4absl12lts_2022062319str_format_internal12_GLOBAL__N_111FloatToSinkIdEEbT_RKNS1_24FormatConversionSpecImplEPNS1_14FormatSinkImplE.cold.7, symObjAddr: 0x3784, symBinAddr: 0x541C0, symSize: 0x28 }
  - { offsetInCU: 0xBFD1, offset: 0x13AC08, size: 0x8, addend: 0x0, symName: __ZN4absl12lts_2022062319str_format_internal12_GLOBAL__N_111FloatToSinkIdEEbT_RKNS1_24FormatConversionSpecImplEPNS1_14FormatSinkImplE.cold.8, symObjAddr: 0x37AC, symBinAddr: 0x541E8, symSize: 0x24 }
  - { offsetInCU: 0xC055, offset: 0x13AC8C, size: 0x8, addend: 0x0, symName: __ZN4absl12lts_2022062319str_format_internal12_GLOBAL__N_111FloatToSinkIdEEbT_RKNS1_24FormatConversionSpecImplEPNS1_14FormatSinkImplE.cold.1, symObjAddr: 0x36A4, symBinAddr: 0x540E0, symSize: 0x24 }
  - { offsetInCU: 0xC0EF, offset: 0x13AD26, size: 0x8, addend: 0x0, symName: __ZN4absl12lts_2022062319str_format_internal12_GLOBAL__N_111FloatToSinkIdEEbT_RKNS1_24FormatConversionSpecImplEPNS1_14FormatSinkImplE.cold.3, symObjAddr: 0x36F0, symBinAddr: 0x5412C, symSize: 0x24 }
  - { offsetInCU: 0xC15D, offset: 0x13AD94, size: 0x8, addend: 0x0, symName: __ZN4absl12lts_2022062319str_format_internal12_GLOBAL__N_111FloatToSinkIdEEbT_RKNS1_24FormatConversionSpecImplEPNS1_14FormatSinkImplE.cold.6, symObjAddr: 0x375C, symBinAddr: 0x54198, symSize: 0x28 }
  - { offsetInCU: 0xC1B7, offset: 0x13ADEE, size: 0x8, addend: 0x0, symName: __ZN4absl12lts_2022062319str_format_internal12_GLOBAL__N_111FloatToSinkIdEEbT_RKNS1_24FormatConversionSpecImplEPNS1_14FormatSinkImplE.cold.4, symObjAddr: 0x3714, symBinAddr: 0x54150, symSize: 0x24 }
  - { offsetInCU: 0xC1E5, offset: 0x13AE1C, size: 0x8, addend: 0x0, symName: __ZN4absl12lts_2022062319str_format_internal12_GLOBAL__N_111FloatToSinkIdEEbT_RKNS1_24FormatConversionSpecImplEPNS1_14FormatSinkImplE.cold.2, symObjAddr: 0x36C8, symBinAddr: 0x54104, symSize: 0x28 }
  - { offsetInCU: 0xC2FC, offset: 0x13AF33, size: 0x8, addend: 0x0, symName: __ZN4absl12lts_2022062319str_format_internal12_GLOBAL__N_113FloatToBufferILNS2_11FormatStyleE1EeEEbNS2_10DecomposedIT0_EEiPNS2_6BufferEPi.cold.1, symObjAddr: 0x37F4, symBinAddr: 0x54230, symSize: 0x24 }
  - { offsetInCU: 0xC340, offset: 0x13AF77, size: 0x8, addend: 0x0, symName: __ZN4absl12lts_2022062319str_format_internal12_GLOBAL__N_113FloatToBufferILNS2_11FormatStyleE1EeEEbNS2_10DecomposedIT0_EEiPNS2_6BufferEPi.cold.2, symObjAddr: 0x3818, symBinAddr: 0x54254, symSize: 0x24 }
  - { offsetInCU: 0xC384, offset: 0x13AFBB, size: 0x8, addend: 0x0, symName: __ZN4absl12lts_2022062319str_format_internal12_GLOBAL__N_113FloatToBufferILNS2_11FormatStyleE1EeEEbNS2_10DecomposedIT0_EEiPNS2_6BufferEPi.cold.4, symObjAddr: 0x3860, symBinAddr: 0x5429C, symSize: 0x24 }
  - { offsetInCU: 0xC3C8, offset: 0x13AFFF, size: 0x8, addend: 0x0, symName: __ZN4absl12lts_2022062319str_format_internal12_GLOBAL__N_113FloatToBufferILNS2_11FormatStyleE1EeEEbNS2_10DecomposedIT0_EEiPNS2_6BufferEPi.cold.3, symObjAddr: 0x383C, symBinAddr: 0x54278, symSize: 0x24 }
  - { offsetInCU: 0xC783, offset: 0x13B3BA, size: 0x8, addend: 0x0, symName: __ZN4absl12lts_2022062319str_format_internal12_GLOBAL__N_118FallbackToSnprintfIeEEbT_RKNS1_24FormatConversionSpecImplEPNS1_14FormatSinkImplE.cold.1, symObjAddr: 0x3884, symBinAddr: 0x542C0, symSize: 0x28 }
  - { offsetInCU: 0xC79B, offset: 0x13B3D2, size: 0x8, addend: 0x0, symName: __ZN4absl12lts_2022062319str_format_internal12_GLOBAL__N_113PrintExponentEicPNS2_6BufferE.cold.8, symObjAddr: 0x39A8, symBinAddr: 0x543E4, symSize: 0x24 }
  - { offsetInCU: 0xC7C9, offset: 0x13B400, size: 0x8, addend: 0x0, symName: __ZN4absl12lts_2022062319str_format_internal12_GLOBAL__N_113PrintExponentEicPNS2_6BufferE.cold.7, symObjAddr: 0x3984, symBinAddr: 0x543C0, symSize: 0x24 }
  - { offsetInCU: 0xC7F7, offset: 0x13B42E, size: 0x8, addend: 0x0, symName: __ZN4absl12lts_2022062319str_format_internal12_GLOBAL__N_113PrintExponentEicPNS2_6BufferE.cold.3, symObjAddr: 0x38F4, symBinAddr: 0x54330, symSize: 0x24 }
  - { offsetInCU: 0xC825, offset: 0x13B45C, size: 0x8, addend: 0x0, symName: __ZN4absl12lts_2022062319str_format_internal12_GLOBAL__N_113PrintExponentEicPNS2_6BufferE.cold.2, symObjAddr: 0x38D0, symBinAddr: 0x5430C, symSize: 0x24 }
  - { offsetInCU: 0xC853, offset: 0x13B48A, size: 0x8, addend: 0x0, symName: __ZN4absl12lts_2022062319str_format_internal12_GLOBAL__N_113PrintExponentEicPNS2_6BufferE.cold.1, symObjAddr: 0x38AC, symBinAddr: 0x542E8, symSize: 0x24 }
  - { offsetInCU: 0xC881, offset: 0x13B4B8, size: 0x8, addend: 0x0, symName: __ZN4absl12lts_2022062319str_format_internal12_GLOBAL__N_113PrintExponentEicPNS2_6BufferE.cold.5, symObjAddr: 0x393C, symBinAddr: 0x54378, symSize: 0x24 }
  - { offsetInCU: 0xC8AF, offset: 0x13B4E6, size: 0x8, addend: 0x0, symName: __ZN4absl12lts_2022062319str_format_internal12_GLOBAL__N_113PrintExponentEicPNS2_6BufferE.cold.4, symObjAddr: 0x3918, symBinAddr: 0x54354, symSize: 0x24 }
  - { offsetInCU: 0xC8DD, offset: 0x13B514, size: 0x8, addend: 0x0, symName: __ZN4absl12lts_2022062319str_format_internal12_GLOBAL__N_113PrintExponentEicPNS2_6BufferE.cold.6, symObjAddr: 0x3960, symBinAddr: 0x5439C, symSize: 0x24 }
  - { offsetInCU: 0xC9F2, offset: 0x13B629, size: 0x8, addend: 0x0, symName: __ZN4absl12lts_2022062319str_format_internal12_GLOBAL__N_110StackArray15RunWithCapacityEmNS0_11FunctionRefIFvNS0_4SpanIjEEEEE, symObjAddr: 0x1AF8, symBinAddr: 0x2AEEC, symSize: 0x94 }
  - { offsetInCU: 0xCA80, offset: 0x13B6B7, size: 0x8, addend: 0x0, symName: __ZN4absl12lts_2022062319str_format_internal12_GLOBAL__N_110StackArray19RunWithCapacityImplILm1EEEvNS0_11FunctionRefIFvNS0_4SpanIjEEEEE, symObjAddr: 0x1B8C, symBinAddr: 0x2AF80, symSize: 0xA0 }
  - { offsetInCU: 0xCA8B, offset: 0x13B6C2, size: 0x8, addend: 0x0, symName: __ZN4absl12lts_2022062319str_format_internal12_GLOBAL__N_122FormatFPositiveExpSlowENS0_7uint128EiRKNS2_11FormatStateE.cold.1, symObjAddr: 0x39CC, symBinAddr: 0x54408, symSize: 0x28 }
  - { offsetInCU: 0xCAB9, offset: 0x13B6F0, size: 0x8, addend: 0x0, symName: __ZN4absl12lts_2022062319str_format_internal12_GLOBAL__N_122FormatFPositiveExpSlowENS0_7uint128EiRKNS2_11FormatStateE.cold.2, symObjAddr: 0x39F4, symBinAddr: 0x54430, symSize: 0x28 }
  - { offsetInCU: 0xCB10, offset: 0x13B747, size: 0x8, addend: 0x0, symName: __ZN4absl12lts_2022062319str_format_internal12_GLOBAL__N_122FormatFNegativeExpSlowENS0_7uint128EiRKNS2_11FormatStateE.cold.1, symObjAddr: 0x3A1C, symBinAddr: 0x54458, symSize: 0x28 }
  - { offsetInCU: 0xCB3E, offset: 0x13B775, size: 0x8, addend: 0x0, symName: __ZN4absl12lts_2022062319str_format_internal12_GLOBAL__N_110StackArray19RunWithCapacityImplILm1EEEvNS0_11FunctionRefIFvNS0_4SpanIjEEEEE, symObjAddr: 0x1B8C, symBinAddr: 0x2AF80, symSize: 0xA0 }
  - { offsetInCU: 0xCBB0, offset: 0x13B7E7, size: 0x8, addend: 0x0, symName: __ZN4absl12lts_2022062319str_format_internal12_GLOBAL__N_110StackArray19RunWithCapacityImplILm2EEEvNS0_11FunctionRefIFvNS0_4SpanIjEEEEE, symObjAddr: 0x1C2C, symBinAddr: 0x2B020, symSize: 0x78 }
  - { offsetInCU: 0xCC21, offset: 0x13B858, size: 0x8, addend: 0x0, symName: __ZN4absl12lts_2022062319str_format_internal12_GLOBAL__N_110StackArray19RunWithCapacityImplILm3EEEvNS0_11FunctionRefIFvNS0_4SpanIjEEEEE, symObjAddr: 0x1CA4, symBinAddr: 0x2B098, symSize: 0x78 }
  - { offsetInCU: 0xCC92, offset: 0x13B8C9, size: 0x8, addend: 0x0, symName: __ZN4absl12lts_2022062319str_format_internal12_GLOBAL__N_110StackArray19RunWithCapacityImplILm4EEEvNS0_11FunctionRefIFvNS0_4SpanIjEEEEE, symObjAddr: 0x1D1C, symBinAddr: 0x2B110, symSize: 0x78 }
  - { offsetInCU: 0xCD03, offset: 0x13B93A, size: 0x8, addend: 0x0, symName: __ZN4absl12lts_2022062319str_format_internal12_GLOBAL__N_110StackArray19RunWithCapacityImplILm5EEEvNS0_11FunctionRefIFvNS0_4SpanIjEEEEE, symObjAddr: 0x1D94, symBinAddr: 0x2B188, symSize: 0x78 }
  - { offsetInCU: 0xCD74, offset: 0x13B9AB, size: 0x8, addend: 0x0, symName: __ZN4absl12lts_2022062319str_format_internal12_GLOBAL__N_110StackArray15RunWithCapacityEmNS0_11FunctionRefIFvNS0_4SpanIjEEEEE.cold.1, symObjAddr: 0x3A44, symBinAddr: 0x54480, symSize: 0x28 }
  - { offsetInCU: 0xCD8C, offset: 0x13B9C3, size: 0x8, addend: 0x0, symName: __ZN4absl12lts_2022062319str_format_internal12_GLOBAL__N_110StackArray15RunWithCapacityEmNS0_11FunctionRefIFvNS0_4SpanIjEEEEE.cold.2, symObjAddr: 0x3A6C, symBinAddr: 0x544A8, symSize: 0x28 }
  - { offsetInCU: 0xCFC2, offset: 0x13BBF9, size: 0x8, addend: 0x0, symName: __ZNK4absl12lts_202206234SpanIjEixEm, symObjAddr: 0x2060, symBinAddr: 0x2B454, symSize: 0x4C }
  - { offsetInCU: 0xD05F, offset: 0x13BC96, size: 0x8, addend: 0x0, symName: __ZN4absl12lts_2022062319functional_internal12InvokeObjectIZNS0_19str_format_internal12_GLOBAL__N_115BinaryToDecimal13RunConversionENS0_7uint128EiNS0_11FunctionRefIFvS5_EEEEUlNS0_4SpanIjEEE_vJSB_EEET0_NS1_7VoidPtrEDpNS1_8ForwardTIT1_E4typeE.cold.1, symObjAddr: 0x3A94, symBinAddr: 0x544D0, symSize: 0x28 }
  - { offsetInCU: 0xD20E, offset: 0x13BE45, size: 0x8, addend: 0x0, symName: '__ZN4absl12lts_2022062319functional_internal12InvokeObjectIZNS0_19str_format_internal12_GLOBAL__N_122FormatFPositiveExpSlowENS0_7uint128EiRKNS4_11FormatStateEE3$_0vJNS4_15BinaryToDecimalEEEET0_NS1_7VoidPtrEDpNS1_8ForwardTIT1_E4typeE.cold.1', symObjAddr: 0x3ABC, symBinAddr: 0x544F8, symSize: 0x24 }
  - { offsetInCU: 0xD3B3, offset: 0x13BFEA, size: 0x8, addend: 0x0, symName: __ZN4absl12lts_2022062319functional_internal12InvokeObjectIZNS0_19str_format_internal12_GLOBAL__N_124FractionalDigitGenerator13RunConversionENS0_7uint128EiNS0_11FunctionRefIFvS5_EEEEUlNS0_4SpanIjEEE_vJSB_EEET0_NS1_7VoidPtrEDpNS1_8ForwardTIT1_E4typeE, symObjAddr: 0x2498, symBinAddr: 0x2B71C, symSize: 0xF8 }
  - { offsetInCU: 0xD53E, offset: 0x13C175, size: 0x8, addend: 0x0, symName: __ZN4absl12lts_2022062319str_format_internal12_GLOBAL__N_124FractionalDigitGenerator11GetOneDigitEv, symObjAddr: 0x2590, symBinAddr: 0x2B814, symSize: 0x94 }
  - { offsetInCU: 0xD6BB, offset: 0x13C2F2, size: 0x8, addend: 0x0, symName: __ZN4absl12lts_2022062319str_format_internal12_GLOBAL__N_125PrintFractionalDigitsFastENS0_7uint128EPcii.cold.1, symObjAddr: 0x3B04, symBinAddr: 0x5451C, symSize: 0x28 }
  - { offsetInCU: 0xD76D, offset: 0x13C3A4, size: 0x8, addend: 0x0, symName: __ZN4absl12lts_2022062319str_format_internal12_GLOBAL__N_119PrintIntegralDigitsILNS2_11FormatStyleE1EoEEiT0_PNS2_6BufferE, symObjAddr: 0x2BD0, symBinAddr: 0x2BE10, symSize: 0xD4 }
  - { offsetInCU: 0xD7E2, offset: 0x13C419, size: 0x8, addend: 0x0, symName: __ZN4absl12lts_2022062319str_format_internal12_GLOBAL__N_119PrintIntegralDigitsILNS2_11FormatStyleE1EoEEiT0_PNS2_6BufferE.cold.2, symObjAddr: 0x3B74, symBinAddr: 0x54568, symSize: 0x24 }
  - { offsetInCU: 0xD810, offset: 0x13C447, size: 0x8, addend: 0x0, symName: __ZN4absl12lts_2022062319str_format_internal12_GLOBAL__N_119PrintIntegralDigitsILNS2_11FormatStyleE1EoEEiT0_PNS2_6BufferE.cold.1, symObjAddr: 0x3B50, symBinAddr: 0x54544, symSize: 0x24 }
  - { offsetInCU: 0xD87D, offset: 0x13C4B4, size: 0x8, addend: 0x0, symName: __ZN4absl12lts_2022062319str_format_internal12_GLOBAL__N_17RoundUpILNS2_11FormatStyleE1EEEvPNS2_6BufferEPi.cold.2, symObjAddr: 0x3BC0, symBinAddr: 0x545B4, symSize: 0x24 }
  - { offsetInCU: 0xD8AB, offset: 0x13C4E2, size: 0x8, addend: 0x0, symName: __ZN4absl12lts_2022062319str_format_internal12_GLOBAL__N_17RoundUpILNS2_11FormatStyleE1EEEvPNS2_6BufferEPi.cold.1, symObjAddr: 0x3B98, symBinAddr: 0x5458C, symSize: 0x28 }
  - { offsetInCU: 0xD94F, offset: 0x13C586, size: 0x8, addend: 0x0, symName: __ZN4absl12lts_2022062319str_format_internal12_GLOBAL__N_113FloatToBufferILNS2_11FormatStyleE1EdEEbNS2_10DecomposedIT0_EEiPNS2_6BufferEPi.cold.2, symObjAddr: 0x3C08, symBinAddr: 0x545FC, symSize: 0x24 }
  - { offsetInCU: 0xD993, offset: 0x13C5CA, size: 0x8, addend: 0x0, symName: __ZN4absl12lts_2022062319str_format_internal12_GLOBAL__N_113FloatToBufferILNS2_11FormatStyleE1EdEEbNS2_10DecomposedIT0_EEiPNS2_6BufferEPi.cold.6, symObjAddr: 0x3C98, symBinAddr: 0x5468C, symSize: 0x24 }
  - { offsetInCU: 0xD9D7, offset: 0x13C60E, size: 0x8, addend: 0x0, symName: __ZN4absl12lts_2022062319str_format_internal12_GLOBAL__N_113FloatToBufferILNS2_11FormatStyleE1EdEEbNS2_10DecomposedIT0_EEiPNS2_6BufferEPi.cold.1, symObjAddr: 0x3BE4, symBinAddr: 0x545D8, symSize: 0x24 }
  - { offsetInCU: 0xDA1B, offset: 0x13C652, size: 0x8, addend: 0x0, symName: __ZN4absl12lts_2022062319str_format_internal12_GLOBAL__N_113FloatToBufferILNS2_11FormatStyleE1EdEEbNS2_10DecomposedIT0_EEiPNS2_6BufferEPi.cold.3, symObjAddr: 0x3C2C, symBinAddr: 0x54620, symSize: 0x24 }
  - { offsetInCU: 0xDA5F, offset: 0x13C696, size: 0x8, addend: 0x0, symName: __ZN4absl12lts_2022062319str_format_internal12_GLOBAL__N_113FloatToBufferILNS2_11FormatStyleE1EdEEbNS2_10DecomposedIT0_EEiPNS2_6BufferEPi.cold.8, symObjAddr: 0x3CE0, symBinAddr: 0x546D4, symSize: 0x24 }
  - { offsetInCU: 0xDAA3, offset: 0x13C6DA, size: 0x8, addend: 0x0, symName: __ZN4absl12lts_2022062319str_format_internal12_GLOBAL__N_113FloatToBufferILNS2_11FormatStyleE1EdEEbNS2_10DecomposedIT0_EEiPNS2_6BufferEPi.cold.7, symObjAddr: 0x3CBC, symBinAddr: 0x546B0, symSize: 0x24 }
  - { offsetInCU: 0xDAE7, offset: 0x13C71E, size: 0x8, addend: 0x0, symName: __ZN4absl12lts_2022062319str_format_internal12_GLOBAL__N_113FloatToBufferILNS2_11FormatStyleE1EdEEbNS2_10DecomposedIT0_EEiPNS2_6BufferEPi.cold.5, symObjAddr: 0x3C74, symBinAddr: 0x54668, symSize: 0x24 }
  - { offsetInCU: 0xDB2B, offset: 0x13C762, size: 0x8, addend: 0x0, symName: __ZN4absl12lts_2022062319str_format_internal12_GLOBAL__N_113FloatToBufferILNS2_11FormatStyleE1EdEEbNS2_10DecomposedIT0_EEiPNS2_6BufferEPi.cold.4, symObjAddr: 0x3C50, symBinAddr: 0x54644, symSize: 0x24 }
  - { offsetInCU: 0xDB6F, offset: 0x13C7A6, size: 0x8, addend: 0x0, symName: __ZN4absl12lts_2022062319str_format_internal12_GLOBAL__N_118FallbackToSnprintfIdEEbT_RKNS1_24FormatConversionSpecImplEPNS1_14FormatSinkImplE.cold.1, symObjAddr: 0x3D04, symBinAddr: 0x546F8, symSize: 0x28 }
  - { offsetInCU: 0xDB87, offset: 0x13C7BE, size: 0x8, addend: 0x0, symName: __ZN4absl12lts_2022062319str_format_internal12_GLOBAL__N_119PrintIntegralDigitsILNS2_11FormatStyleE1EyEEiT0_PNS2_6BufferE.cold.2, symObjAddr: 0x3D50, symBinAddr: 0x54744, symSize: 0x24 }
  - { offsetInCU: 0xDBB5, offset: 0x13C7EC, size: 0x8, addend: 0x0, symName: __ZN4absl12lts_2022062319str_format_internal12_GLOBAL__N_119PrintIntegralDigitsILNS2_11FormatStyleE1EyEEiT0_PNS2_6BufferE.cold.1, symObjAddr: 0x3D2C, symBinAddr: 0x54720, symSize: 0x24 }
  - { offsetInCU: 0xDBE3, offset: 0x13C81A, size: 0x8, addend: 0x0, symName: _OUTLINED_FUNCTION_0, symObjAddr: 0x3D74, symBinAddr: 0x2C7BC, symSize: 0x8 }
  - { offsetInCU: 0xDBFB, offset: 0x13C832, size: 0x8, addend: 0x0, symName: _OUTLINED_FUNCTION_1, symObjAddr: 0x3D7C, symBinAddr: 0x2C7C4, symSize: 0x8 }
  - { offsetInCU: 0xDC13, offset: 0x13C84A, size: 0x8, addend: 0x0, symName: _OUTLINED_FUNCTION_2, symObjAddr: 0x3D84, symBinAddr: 0x2C7CC, symSize: 0x8 }
  - { offsetInCU: 0xDC2B, offset: 0x13C862, size: 0x8, addend: 0x0, symName: _OUTLINED_FUNCTION_3, symObjAddr: 0x3D8C, symBinAddr: 0x2C7D4, symSize: 0x8 }
  - { offsetInCU: 0x26, offset: 0x13C8F9, size: 0x8, addend: 0x0, symName: __ZN4absl12lts_2022062310FormatTimeENS0_11string_viewENS0_4TimeENS0_8TimeZoneE, symObjAddr: 0x0, symBinAddr: 0x2C7DC, symSize: 0x150 }
  - { offsetInCU: 0x49, offset: 0x13C91C, size: 0x8, addend: 0x0, symName: __ZN4absl12lts_2022062312RFC3339_fullE, symObjAddr: 0x874, symBinAddr: 0x5A7F0, symSize: 0x0 }
  - { offsetInCU: 0x63, offset: 0x13C936, size: 0x8, addend: 0x0, symName: __ZN4absl12lts_2022062311RFC3339_secE, symObjAddr: 0x88D, symBinAddr: 0x5A809, symSize: 0x0 }
  - { offsetInCU: 0x7D, offset: 0x13C950, size: 0x8, addend: 0x0, symName: __ZN4absl12lts_2022062312RFC1123_fullE, symObjAddr: 0x8A4, symBinAddr: 0x5A820, symSize: 0x0 }
  - { offsetInCU: 0x97, offset: 0x13C96A, size: 0x8, addend: 0x0, symName: __ZN4absl12lts_2022062315RFC1123_no_wdayE, symObjAddr: 0x8BF, symBinAddr: 0x5A83B, symSize: 0x0 }
  - { offsetInCU: 0xA5, offset: 0x13C978, size: 0x8, addend: 0x0, symName: __ZN4absl12lts_202206239ParseTimeENS0_11string_viewES1_NS0_8TimeZoneEPNS0_4TimeEPNSt3__112basic_stringIcNS5_11char_traitsIcEENS5_9allocatorIcEEEE, symObjAddr: 0x218, symBinAddr: 0x2C9F4, symSize: 0x2B0 }
  - { offsetInCU: 0xCF, offset: 0x13C9A2, size: 0x8, addend: 0x0, symName: __ZZN4absl12lts_202206239ParseTimeENS0_11string_viewES1_NS0_8TimeZoneEPNS0_4TimeEPNSt3__112basic_stringIcNS5_11char_traitsIcEENS5_9allocatorIcEEEEE8literals, symObjAddr: 0x8F8, symBinAddr: 0x6D5F0, symSize: 0x0 }
  - { offsetInCU: 0x12E9, offset: 0x13DBBC, size: 0x8, addend: 0x0, symName: __ZN4absl12lts_2022062312_GLOBAL__N_118kInfiniteFutureStrE, symObjAddr: 0x8D6, symBinAddr: 0x5A852, symSize: 0x0 }
  - { offsetInCU: 0x1303, offset: 0x13DBD6, size: 0x8, addend: 0x0, symName: __ZN4absl12lts_2022062312_GLOBAL__N_116kInfinitePastStrE, symObjAddr: 0x8E6, symBinAddr: 0x5A862, symSize: 0x0 }
  - { offsetInCU: 0x1435, offset: 0x13DD08, size: 0x8, addend: 0x0, symName: __ZN4absl12lts_2022062310FormatTimeENS0_11string_viewENS0_4TimeENS0_8TimeZoneE, symObjAddr: 0x0, symBinAddr: 0x2C7DC, symSize: 0x150 }
  - { offsetInCU: 0x18F3, offset: 0x13E1C6, size: 0x8, addend: 0x0, symName: __ZN4absl12lts_2022062310FormatTimeENS0_4TimeENS0_8TimeZoneE, symObjAddr: 0x150, symBinAddr: 0x2C92C, symSize: 0x1C }
  - { offsetInCU: 0x196C, offset: 0x13E23F, size: 0x8, addend: 0x0, symName: __ZN4absl12lts_2022062310FormatTimeENS0_4TimeE, symObjAddr: 0x16C, symBinAddr: 0x2C948, symSize: 0x4C }
  - { offsetInCU: 0x19EE, offset: 0x13E2C1, size: 0x8, addend: 0x0, symName: __ZN4absl12lts_202206239ParseTimeENS0_11string_viewES1_PNS0_4TimeEPNSt3__112basic_stringIcNS4_11char_traitsIcEENS4_9allocatorIcEEEE, symObjAddr: 0x1B8, symBinAddr: 0x2C994, symSize: 0x60 }
  - { offsetInCU: 0x1ABB, offset: 0x13E38E, size: 0x8, addend: 0x0, symName: __ZN4absl12lts_2022062313AbslParseFlagENS0_11string_viewEPNS0_4TimeEPNSt3__112basic_stringIcNS4_11char_traitsIcEENS4_9allocatorIcEEEE, symObjAddr: 0x4C8, symBinAddr: 0x2CCA4, symSize: 0x54 }
  - { offsetInCU: 0x1B4F, offset: 0x13E422, size: 0x8, addend: 0x0, symName: __ZN4absl12lts_2022062315AbslUnparseFlagENS0_4TimeE, symObjAddr: 0x51C, symBinAddr: 0x2CCF8, symSize: 0x4C }
  - { offsetInCU: 0x1BBF, offset: 0x13E492, size: 0x8, addend: 0x0, symName: __ZN4absl12lts_202206239ParseFlagERKNSt3__112basic_stringIcNS1_11char_traitsIcEENS1_9allocatorIcEEEEPNS0_4TimeEPS7_, symObjAddr: 0x568, symBinAddr: 0x2CD44, symSize: 0x64 }
  - { offsetInCU: 0x1CC9, offset: 0x13E59C, size: 0x8, addend: 0x0, symName: __ZN4absl12lts_2022062311UnparseFlagENS0_4TimeE, symObjAddr: 0x5CC, symBinAddr: 0x2CDA8, symSize: 0x4C }
  - { offsetInCU: 0x6B97, offset: 0x14346A, size: 0x8, addend: 0x0, symName: __ZN4absl12lts_202206239ParseTimeENS0_11string_viewES1_NS0_8TimeZoneEPNS0_4TimeEPNSt3__112basic_stringIcNS5_11char_traitsIcEENS5_9allocatorIcEEEE.cold.1, symObjAddr: 0x7D8, symBinAddr: 0x54768, symSize: 0x28 }
  - { offsetInCU: 0x7049, offset: 0x14391C, size: 0x8, addend: 0x0, symName: __ZN4absl12lts_202206239ParseTimeENS0_11string_viewES1_NS0_8TimeZoneEPNS0_4TimeEPNSt3__112basic_stringIcNS5_11char_traitsIcEENS5_9allocatorIcEEEE.cold.2, symObjAddr: 0x800, symBinAddr: 0x54790, symSize: 0x28 }
  - { offsetInCU: 0x70B6, offset: 0x143989, size: 0x8, addend: 0x0, symName: __ZN4absl12lts_202206239ParseTimeENS0_11string_viewES1_NS0_8TimeZoneEPNS0_4TimeEPNSt3__112basic_stringIcNS5_11char_traitsIcEENS5_9allocatorIcEEEE.cold.1, symObjAddr: 0x7D8, symBinAddr: 0x54768, symSize: 0x28 }
  - { offsetInCU: 0x3C, offset: 0x143CA6, size: 0x8, addend: 0x0, symName: __ZN4absl12lts_2022062315random_internal26gaussian_distribution_base3zg_E, symObjAddr: 0x0, symBinAddr: 0x5A870, symSize: 0x0 }
  - { offsetInCU: 0x63, offset: 0x146809, size: 0x8, addend: 0x0, symName: __ZN4absl12lts_2022062324synchronization_internal12_GLOBAL__N_18arena_muE, symObjAddr: 0x24910, symBinAddr: 0x6E1D8, symSize: 0x0 }
  - { offsetInCU: 0x7D, offset: 0x146823, size: 0x8, addend: 0x0, symName: __ZN4absl12lts_2022062324synchronization_internal12_GLOBAL__N_15arenaE, symObjAddr: 0x24908, symBinAddr: 0x6E1D0, symSize: 0x0 }
  - { offsetInCU: 0xBD5, offset: 0x14737B, size: 0x8, addend: 0x0, symName: __ZN4absl12lts_2022062324synchronization_internalL10MoveToListEPNS1_11GraphCycles3RepEPNS1_12_GLOBAL__N_13VecIiEES8_, symObjAddr: 0x1524, symBinAddr: 0x2E30C, symSize: 0x70 }
  - { offsetInCU: 0xE10, offset: 0x1475B6, size: 0x8, addend: 0x0, symName: __ZNSt3__111__introsortINS_17_ClassicAlgPolicyERZN4absl12lts_2022062324synchronization_internalL4SortERKNS4_12_GLOBAL__N_13VecIPNS5_4NodeEEEPNS6_IiEEE6ByRankPiLb0EEEvT1_SH_T0_NS_15iterator_traitsISH_E15difference_typeEb, symObjAddr: 0x1594, symBinAddr: 0x2E37C, symSize: 0x840 }
  - { offsetInCU: 0x1CBA, offset: 0x148460, size: 0x8, addend: 0x0, symName: __ZNSt3__127__insertion_sort_incompleteB8ue170006INS_17_ClassicAlgPolicyERZN4absl12lts_2022062324synchronization_internalL4SortERKNS4_12_GLOBAL__N_13VecIPNS5_4NodeEEEPNS6_IiEEE6ByRankPiEEbT1_SH_T0_, symObjAddr: 0x1E80, symBinAddr: 0x2EC68, symSize: 0x24C }
  - { offsetInCU: 0x42BB, offset: 0x14AA61, size: 0x8, addend: 0x0, symName: __ZNSt3__17__sort3B8ue170006INS_17_ClassicAlgPolicyERZN4absl12lts_2022062324synchronization_internalL4SortERKNS4_12_GLOBAL__N_13VecIPNS5_4NodeEEEPNS6_IiEEE6ByRankPiEEjT1_SH_SH_T0_, symObjAddr: 0x1DD4, symBinAddr: 0x2EBBC, symSize: 0xAC }
  - { offsetInCU: 0x4598, offset: 0x14AD3E, size: 0x8, addend: 0x0, symName: __ZNSt3__17__sort4B8ue170006INS_17_ClassicAlgPolicyERZN4absl12lts_2022062324synchronization_internalL4SortERKNS4_12_GLOBAL__N_13VecIPNS5_4NodeEEEPNS6_IiEEE6ByRankPiEEvT1_SH_SH_SH_T0_, symObjAddr: 0x20CC, symBinAddr: 0x2EEB4, symSize: 0xC4 }
  - { offsetInCU: 0x6945, offset: 0x14D0EB, size: 0x8, addend: 0x0, symName: __ZN4absl12lts_2022062324synchronization_internal11GraphCyclesC2Ev, symObjAddr: 0x0, symBinAddr: 0x2CDF4, symSize: 0xC8 }
  - { offsetInCU: 0x6B0C, offset: 0x14D2B2, size: 0x8, addend: 0x0, symName: __ZN4absl12lts_2022062324synchronization_internal11GraphCycles3RepC2Ev, symObjAddr: 0x1300, symBinAddr: 0x2E0E8, symSize: 0xB0 }
  - { offsetInCU: 0x6E55, offset: 0x14D5FB, size: 0x8, addend: 0x0, symName: __ZN4absl12lts_2022062324synchronization_internal11GraphCyclesC1Ev, symObjAddr: 0xC8, symBinAddr: 0x2CEBC, symSize: 0x4 }
  - { offsetInCU: 0x6E83, offset: 0x14D629, size: 0x8, addend: 0x0, symName: __ZN4absl12lts_2022062324synchronization_internal11GraphCyclesC1Ev, symObjAddr: 0xC8, symBinAddr: 0x2CEBC, symSize: 0x4 }
  - { offsetInCU: 0x6FAC, offset: 0x14D752, size: 0x8, addend: 0x0, symName: __ZN4absl12lts_2022062324synchronization_internal11GraphCyclesD2Ev, symObjAddr: 0xCC, symBinAddr: 0x2CEC0, symSize: 0xD0 }
  - { offsetInCU: 0x71EA, offset: 0x14D990, size: 0x8, addend: 0x0, symName: __ZN4absl12lts_2022062324synchronization_internal12_GLOBAL__N_13VecIiED1Ev, symObjAddr: 0x13B0, symBinAddr: 0x2E198, symSize: 0x38 }
  - { offsetInCU: 0x7247, offset: 0x14D9ED, size: 0x8, addend: 0x0, symName: __ZN4absl12lts_2022062324synchronization_internal11GraphCyclesD1Ev, symObjAddr: 0x1A8, symBinAddr: 0x2CF90, symSize: 0x4 }
  - { offsetInCU: 0x7275, offset: 0x14DA1B, size: 0x8, addend: 0x0, symName: __ZN4absl12lts_2022062324synchronization_internal11GraphCyclesD1Ev, symObjAddr: 0x1A8, symBinAddr: 0x2CF90, symSize: 0x4 }
  - { offsetInCU: 0x737C, offset: 0x14DB22, size: 0x8, addend: 0x0, symName: __ZNK4absl12lts_2022062324synchronization_internal11GraphCycles15CheckInvariantsEv, symObjAddr: 0x1AC, symBinAddr: 0x2CF94, symSize: 0x210 }
  - { offsetInCU: 0x7743, offset: 0x14DEE9, size: 0x8, addend: 0x0, symName: __ZN4absl12lts_2022062324synchronization_internal12_GLOBAL__N_17NodeSetC1Ev, symObjAddr: 0x3BC, symBinAddr: 0x2D1A4, symSize: 0x4C }
  - { offsetInCU: 0x7801, offset: 0x14DFA7, size: 0x8, addend: 0x0, symName: __ZN4absl12lts_2022062324synchronization_internal12_GLOBAL__N_17NodeSet6insertEi, symObjAddr: 0x408, symBinAddr: 0x2D1F0, symSize: 0x1A0 }
  - { offsetInCU: 0x7C40, offset: 0x14E3E6, size: 0x8, addend: 0x0, symName: __ZN4absl12lts_2022062324synchronization_internal12_GLOBAL__N_17NodeSet4InitEv, symObjAddr: 0x13E8, symBinAddr: 0x2E1D0, symSize: 0x5C }
  - { offsetInCU: 0x7E93, offset: 0x14E639, size: 0x8, addend: 0x0, symName: __ZNK4absl12lts_2022062324synchronization_internal12_GLOBAL__N_17NodeSet9FindIndexEi, symObjAddr: 0x14C0, symBinAddr: 0x2E2A8, symSize: 0x64 }
  - { offsetInCU: 0x7EF7, offset: 0x14E69D, size: 0x8, addend: 0x0, symName: __ZNK4absl12lts_2022062324synchronization_internal12_GLOBAL__N_17NodeSet9FindIndexEi, symObjAddr: 0x14C0, symBinAddr: 0x2E2A8, symSize: 0x64 }
  - { offsetInCU: 0x7F43, offset: 0x14E6E9, size: 0x8, addend: 0x0, symName: __ZN4absl12lts_2022062324synchronization_internal12_GLOBAL__N_13VecIiE4GrowEj, symObjAddr: 0x1444, symBinAddr: 0x2E22C, symSize: 0x7C }
  - { offsetInCU: 0x8260, offset: 0x14EA06, size: 0x8, addend: 0x0, symName: __ZN4absl12lts_2022062324synchronization_internal11GraphCycles5GetIdEPv, symObjAddr: 0x5A8, symBinAddr: 0x2D390, symSize: 0x210 }
  - { offsetInCU: 0x87E3, offset: 0x14EF89, size: 0x8, addend: 0x0, symName: __ZN4absl12lts_2022062324synchronization_internal11GraphCycles10RemoveNodeEPv, symObjAddr: 0x7B8, symBinAddr: 0x2D5A0, symSize: 0x1EC }
  - { offsetInCU: 0x8AE6, offset: 0x14F28C, size: 0x8, addend: 0x0, symName: __ZN4absl12lts_2022062324synchronization_internal12_GLOBAL__N_13VecIiE9push_backERKi, symObjAddr: 0x9A4, symBinAddr: 0x2D78C, symSize: 0x54 }
  - { offsetInCU: 0x8B30, offset: 0x14F2D6, size: 0x8, addend: 0x0, symName: __ZN4absl12lts_2022062324synchronization_internal11GraphCycles3PtrENS1_7GraphIdE, symObjAddr: 0x9F8, symBinAddr: 0x2D7E0, symSize: 0x44 }
  - { offsetInCU: 0x8C02, offset: 0x14F3A8, size: 0x8, addend: 0x0, symName: __ZN4absl12lts_2022062324synchronization_internal11GraphCycles7HasNodeENS1_7GraphIdE, symObjAddr: 0xA3C, symBinAddr: 0x2D824, symSize: 0x24 }
  - { offsetInCU: 0x8CF2, offset: 0x14F498, size: 0x8, addend: 0x0, symName: __ZNK4absl12lts_2022062324synchronization_internal11GraphCycles7HasEdgeENS1_7GraphIdES3_, symObjAddr: 0xA60, symBinAddr: 0x2D848, symSize: 0x78 }
  - { offsetInCU: 0x8E58, offset: 0x14F5FE, size: 0x8, addend: 0x0, symName: __ZN4absl12lts_2022062324synchronization_internal11GraphCycles10RemoveEdgeENS1_7GraphIdES3_, symObjAddr: 0xAD8, symBinAddr: 0x2D8C0, symSize: 0xB4 }
  - { offsetInCU: 0x90E0, offset: 0x14F886, size: 0x8, addend: 0x0, symName: __ZN4absl12lts_2022062324synchronization_internal11GraphCycles10InsertEdgeENS1_7GraphIdES3_, symObjAddr: 0xB8C, symBinAddr: 0x2D974, symSize: 0x4E8 }
  - { offsetInCU: 0x9FCC, offset: 0x150772, size: 0x8, addend: 0x0, symName: __ZNK4absl12lts_2022062324synchronization_internal11GraphCycles8FindPathENS1_7GraphIdES3_iPS3_, symObjAddr: 0x1074, symBinAddr: 0x2DE5C, symSize: 0x1D4 }
  - { offsetInCU: 0xA3EC, offset: 0x150B92, size: 0x8, addend: 0x0, symName: __ZNK4absl12lts_2022062324synchronization_internal11GraphCycles11IsReachableENS1_7GraphIdES3_, symObjAddr: 0x1248, symBinAddr: 0x2E030, symSize: 0x24 }
  - { offsetInCU: 0xA463, offset: 0x150C09, size: 0x8, addend: 0x0, symName: __ZN4absl12lts_2022062324synchronization_internal11GraphCycles16UpdateStackTraceENS1_7GraphIdEiPFiPPviE, symObjAddr: 0x126C, symBinAddr: 0x2E054, symSize: 0x58 }
  - { offsetInCU: 0xA553, offset: 0x150CF9, size: 0x8, addend: 0x0, symName: __ZN4absl12lts_2022062324synchronization_internal11GraphCycles13GetStackTraceENS1_7GraphIdEPPPv, symObjAddr: 0x12C4, symBinAddr: 0x2E0AC, symSize: 0x3C }
  - { offsetInCU: 0x26, offset: 0x150FAD, size: 0x8, addend: 0x0, symName: __ZN4absl12lts_2022062313hash_internal15MixingHashState28CombineLargeContiguousImpl32EyPKhm, symObjAddr: 0x0, symBinAddr: 0x2EF78, symSize: 0x100 }
  - { offsetInCU: 0x48, offset: 0x150FCF, size: 0x8, addend: 0x0, symName: __ZN4absl12lts_2022062313hash_internal15MixingHashState5kSeedE, symObjAddr: 0x278, symBinAddr: 0x6D630, symSize: 0x0 }
  - { offsetInCU: 0x28E, offset: 0x151215, size: 0x8, addend: 0x0, symName: __ZN4absl12lts_2022062313hash_internalL9kHashSaltE, symObjAddr: 0x280, symBinAddr: 0x5B0A0, symSize: 0x0 }
  - { offsetInCU: 0x2F95, offset: 0x153F1C, size: 0x8, addend: 0x0, symName: __ZN4absl12lts_2022062313hash_internal15MixingHashState28CombineLargeContiguousImpl32EyPKhm, symObjAddr: 0x0, symBinAddr: 0x2EF78, symSize: 0x100 }
  - { offsetInCU: 0x31FA, offset: 0x154181, size: 0x8, addend: 0x0, symName: __ZN4absl12lts_2022062313hash_internal15MixingHashState28CombineLargeContiguousImpl64EyPKhm, symObjAddr: 0x100, symBinAddr: 0x2F078, symSize: 0x160 }
  - { offsetInCU: 0x34F1, offset: 0x154478, size: 0x8, addend: 0x0, symName: __ZN4absl12lts_2022062313hash_internal15MixingHashState16LowLevelHashImplEPKhm, symObjAddr: 0x260, symBinAddr: 0x2F1D8, symSize: 0x14 }
  - { offsetInCU: 0x49, offset: 0x154500, size: 0x8, addend: 0x0, symName: __ZN4absl12lts_2022062318container_internal14HashtablezInfo14kMaxStackDepthE, symObjAddr: 0x804, symBinAddr: 0x5B0C8, symSize: 0x0 }
  - { offsetInCU: 0x182, offset: 0x154639, size: 0x8, addend: 0x0, symName: __ZN4absl12lts_2022062318container_internal23GlobalHashtablezSamplerEv, symObjAddr: 0x0, symBinAddr: 0x2F1EC, symSize: 0x8C }
  - { offsetInCU: 0x1AC, offset: 0x154663, size: 0x8, addend: 0x0, symName: __ZZN4absl12lts_2022062318container_internal23GlobalHashtablezSamplerEvE7sampler, symObjAddr: 0x2BFA0, symBinAddr: 0x6E1E0, symSize: 0x0 }
  - { offsetInCU: 0x1FA, offset: 0x1546B1, size: 0x8, addend: 0x0, symName: __ZZN4absl12lts_2022062318container_internalL19ShouldForceSamplingEvE12global_state.0, symObjAddr: 0x8B4, symBinAddr: 0x6DFF0, symSize: 0x0 }
  - { offsetInCU: 0x232, offset: 0x1546E9, size: 0x8, addend: 0x0, symName: __ZN4absl12lts_2022062318container_internal12_GLOBAL__N_128g_hashtablez_config_listenerE.0, symObjAddr: 0x2BFB0, symBinAddr: 0x6E1F0, symSize: 0x0 }
  - { offsetInCU: 0x24C, offset: 0x154703, size: 0x8, addend: 0x0, symName: __ZN4absl12lts_2022062318container_internal12_GLOBAL__N_120g_hashtablez_enabledE.0, symObjAddr: 0x2BFB8, symBinAddr: 0x6E1F8, symSize: 0x0 }
  - { offsetInCU: 0x266, offset: 0x15471D, size: 0x8, addend: 0x0, symName: __ZN4absl12lts_2022062318container_internal12_GLOBAL__N_129g_hashtablez_sample_parameterE.0, symObjAddr: 0x8B8, symBinAddr: 0x6DFF4, symSize: 0x0 }
  - { offsetInCU: 0x2A9, offset: 0x154760, size: 0x8, addend: 0x0, symName: __ZN4absl12lts_2022062318container_internal10SampleSlowERNS1_13SamplingStateEm, symObjAddr: 0x138, symBinAddr: 0x2F324, symSize: 0x84 }
  - { offsetInCU: 0x3FD, offset: 0x1548B4, size: 0x8, addend: 0x0, symName: __ZN4absl12lts_2022062318container_internal12UnsampleSlowEPNS1_14HashtablezInfoE, symObjAddr: 0x304, symBinAddr: 0x2F4F0, symSize: 0x40 }
  - { offsetInCU: 0x4BB, offset: 0x154972, size: 0x8, addend: 0x0, symName: __ZN4absl12lts_2022062318container_internal16RecordInsertSlowEPNS1_14HashtablezInfoEmm, symObjAddr: 0x344, symBinAddr: 0x2F530, symSize: 0x7C }
  - { offsetInCU: 0x73B, offset: 0x154BF2, size: 0x8, addend: 0x0, symName: __ZN4absl12lts_2022062318container_internal27SetHashtablezConfigListenerEPFvvE, symObjAddr: 0x3C0, symBinAddr: 0x2F5AC, symSize: 0x10 }
  - { offsetInCU: 0x767, offset: 0x154C1E, size: 0x8, addend: 0x0, symName: __ZN4absl12lts_2022062318container_internal27SetHashtablezConfigListenerEPFvvE, symObjAddr: 0x3C0, symBinAddr: 0x2F5AC, symSize: 0x10 }
  - { offsetInCU: 0x788, offset: 0x154C3F, size: 0x8, addend: 0x0, symName: __ZN4absl12lts_2022062318container_internal27SetHashtablezConfigListenerEPFvvE, symObjAddr: 0x3C0, symBinAddr: 0x2F5AC, symSize: 0x10 }
  - { offsetInCU: 0x7A8, offset: 0x154C5F, size: 0x8, addend: 0x0, symName: __ZN4absl12lts_2022062318container_internal19IsHashtablezEnabledEv, symObjAddr: 0x3D0, symBinAddr: 0x2F5BC, symSize: 0x14 }
  - { offsetInCU: 0x7C9, offset: 0x154C80, size: 0x8, addend: 0x0, symName: __ZN4absl12lts_2022062318container_internal19IsHashtablezEnabledEv, symObjAddr: 0x3D0, symBinAddr: 0x2F5BC, symSize: 0x14 }
  - { offsetInCU: 0x7E3, offset: 0x154C9A, size: 0x8, addend: 0x0, symName: __ZN4absl12lts_2022062318container_internal19IsHashtablezEnabledEv, symObjAddr: 0x3D0, symBinAddr: 0x2F5BC, symSize: 0x14 }
  - { offsetInCU: 0x814, offset: 0x154CCB, size: 0x8, addend: 0x0, symName: __ZN4absl12lts_2022062318container_internal20SetHashtablezEnabledEb, symObjAddr: 0x3E4, symBinAddr: 0x2F5D0, symSize: 0x24 }
  - { offsetInCU: 0x841, offset: 0x154CF8, size: 0x8, addend: 0x0, symName: __ZN4absl12lts_2022062318container_internal20SetHashtablezEnabledEb, symObjAddr: 0x3E4, symBinAddr: 0x2F5D0, symSize: 0x24 }
  - { offsetInCU: 0x861, offset: 0x154D18, size: 0x8, addend: 0x0, symName: __ZN4absl12lts_2022062318container_internal20SetHashtablezEnabledEb, symObjAddr: 0x3E4, symBinAddr: 0x2F5D0, symSize: 0x24 }
  - { offsetInCU: 0x887, offset: 0x154D3E, size: 0x8, addend: 0x0, symName: __ZN4absl12lts_2022062318container_internal20SetHashtablezEnabledEb, symObjAddr: 0x3E4, symBinAddr: 0x2F5D0, symSize: 0x24 }
  - { offsetInCU: 0x908, offset: 0x154DBF, size: 0x8, addend: 0x0, symName: __ZN4absl12lts_2022062318container_internal28SetHashtablezEnabledInternalEb, symObjAddr: 0x408, symBinAddr: 0x2F5F4, symSize: 0x10 }
  - { offsetInCU: 0x92C, offset: 0x154DE3, size: 0x8, addend: 0x0, symName: __ZN4absl12lts_2022062318container_internal28SetHashtablezEnabledInternalEb, symObjAddr: 0x408, symBinAddr: 0x2F5F4, symSize: 0x10 }
  - { offsetInCU: 0x952, offset: 0x154E09, size: 0x8, addend: 0x0, symName: __ZN4absl12lts_2022062318container_internal28SetHashtablezEnabledInternalEb, symObjAddr: 0x408, symBinAddr: 0x2F5F4, symSize: 0x10 }
  - { offsetInCU: 0x972, offset: 0x154E29, size: 0x8, addend: 0x0, symName: __ZN4absl12lts_2022062318container_internal28GetHashtablezSampleParameterEv, symObjAddr: 0x418, symBinAddr: 0x2F604, symSize: 0x10 }
  - { offsetInCU: 0x993, offset: 0x154E4A, size: 0x8, addend: 0x0, symName: __ZN4absl12lts_2022062318container_internal28GetHashtablezSampleParameterEv, symObjAddr: 0x418, symBinAddr: 0x2F604, symSize: 0x10 }
  - { offsetInCU: 0x9AD, offset: 0x154E64, size: 0x8, addend: 0x0, symName: __ZN4absl12lts_2022062318container_internal28GetHashtablezSampleParameterEv, symObjAddr: 0x418, symBinAddr: 0x2F604, symSize: 0x10 }
  - { offsetInCU: 0x9EB, offset: 0x154EA2, size: 0x8, addend: 0x0, symName: __ZN4absl12lts_2022062318container_internal28SetHashtablezSampleParameterEi, symObjAddr: 0x428, symBinAddr: 0x2F614, symSize: 0x70 }
  - { offsetInCU: 0xAF1, offset: 0x154FA8, size: 0x8, addend: 0x0, symName: __ZN4absl12lts_2022062318container_internal36SetHashtablezSampleParameterInternalEi, symObjAddr: 0x498, symBinAddr: 0x2F684, symSize: 0x54 }
  - { offsetInCU: 0xB7F, offset: 0x155036, size: 0x8, addend: 0x0, symName: __ZN4absl12lts_2022062318container_internal23GetHashtablezMaxSamplesEv, symObjAddr: 0x4EC, symBinAddr: 0x2F6D8, symSize: 0x1C }
  - { offsetInCU: 0xC0B, offset: 0x1550C2, size: 0x8, addend: 0x0, symName: __ZN4absl12lts_2022062318container_internal23SetHashtablezMaxSamplesEi, symObjAddr: 0x508, symBinAddr: 0x2F6F4, symSize: 0x2C }
  - { offsetInCU: 0xCAA, offset: 0x155161, size: 0x8, addend: 0x0, symName: __ZN4absl12lts_2022062318container_internal31SetHashtablezMaxSamplesInternalEi, symObjAddr: 0x534, symBinAddr: 0x2F720, symSize: 0x60 }
  - { offsetInCU: 0x5E79, offset: 0x15A330, size: 0x8, addend: 0x0, symName: __ZN4absl12lts_2022062318profiling_internal14SampleRecorderINS0_18container_internal14HashtablezInfoEEC2Ev, symObjAddr: 0x594, symBinAddr: 0x2F780, symSize: 0x74 }
  - { offsetInCU: 0x63AE, offset: 0x15A865, size: 0x8, addend: 0x0, symName: __ZN4absl12lts_2022062318container_internal14HashtablezInfoC2Ev, symObjAddr: 0x8C, symBinAddr: 0x2F278, symSize: 0x14 }
  - { offsetInCU: 0x63D0, offset: 0x15A887, size: 0x8, addend: 0x0, symName: __ZN4absl12lts_2022062318container_internal14HashtablezInfoC2Ev, symObjAddr: 0x8C, symBinAddr: 0x2F278, symSize: 0x14 }
  - { offsetInCU: 0x6484, offset: 0x15A93B, size: 0x8, addend: 0x0, symName: __ZN4absl12lts_2022062318container_internal14HashtablezInfoC1Ev, symObjAddr: 0xA0, symBinAddr: 0x2F28C, symSize: 0x14 }
  - { offsetInCU: 0x64A6, offset: 0x15A95D, size: 0x8, addend: 0x0, symName: __ZN4absl12lts_2022062318container_internal14HashtablezInfoC1Ev, symObjAddr: 0xA0, symBinAddr: 0x2F28C, symSize: 0x14 }
  - { offsetInCU: 0x64C1, offset: 0x15A978, size: 0x8, addend: 0x0, symName: __ZN4absl12lts_2022062318container_internal14HashtablezInfoC1Ev, symObjAddr: 0xA0, symBinAddr: 0x2F28C, symSize: 0x14 }
  - { offsetInCU: 0x6576, offset: 0x15AA2D, size: 0x8, addend: 0x0, symName: __ZN4absl12lts_2022062318container_internal14HashtablezInfoD2Ev, symObjAddr: 0xB4, symBinAddr: 0x2F2A0, symSize: 0x4 }
  - { offsetInCU: 0x6598, offset: 0x15AA4F, size: 0x8, addend: 0x0, symName: __ZN4absl12lts_2022062318container_internal14HashtablezInfoD2Ev, symObjAddr: 0xB4, symBinAddr: 0x2F2A0, symSize: 0x4 }
  - { offsetInCU: 0x65CE, offset: 0x15AA85, size: 0x8, addend: 0x0, symName: __ZN4absl12lts_2022062318container_internal14HashtablezInfoD1Ev, symObjAddr: 0xB8, symBinAddr: 0x2F2A4, symSize: 0x4 }
  - { offsetInCU: 0x65F0, offset: 0x15AAA7, size: 0x8, addend: 0x0, symName: __ZN4absl12lts_2022062318container_internal14HashtablezInfoD1Ev, symObjAddr: 0xB8, symBinAddr: 0x2F2A4, symSize: 0x4 }
  - { offsetInCU: 0x660B, offset: 0x15AAC2, size: 0x8, addend: 0x0, symName: __ZN4absl12lts_2022062318container_internal14HashtablezInfoD1Ev, symObjAddr: 0xB8, symBinAddr: 0x2F2A4, symSize: 0x4 }
  - { offsetInCU: 0x665C, offset: 0x15AB13, size: 0x8, addend: 0x0, symName: __ZN4absl12lts_2022062318container_internal14HashtablezInfo18PrepareForSamplingExm, symObjAddr: 0xBC, symBinAddr: 0x2F2A8, symSize: 0x7C }
  - { offsetInCU: 0x6AC5, offset: 0x15AF7C, size: 0x8, addend: 0x0, symName: __ZN4absl12lts_2022062318profiling_internal14SampleRecorderINS0_18container_internal14HashtablezInfoEE8RegisterIJRKxRmEEEPS4_DpOT_, symObjAddr: 0x1BC, symBinAddr: 0x2F3A8, symSize: 0x148 }
  - { offsetInCU: 0x7062, offset: 0x15B519, size: 0x8, addend: 0x0, symName: __ZN4absl12lts_2022062318profiling_internal14SampleRecorderINS0_18container_internal14HashtablezInfoEE7PopDeadIJxmEEEPS4_DpT_, symObjAddr: 0x614, symBinAddr: 0x2F7F4, symSize: 0xC0 }
  - { offsetInCU: 0x7226, offset: 0x15B6DD, size: 0x8, addend: 0x0, symName: __ZN4absl12lts_2022062318profiling_internal14SampleRecorderINS0_18container_internal14HashtablezInfoEE8PushDeadEPS4_, symObjAddr: 0x6D4, symBinAddr: 0x2F8B4, symSize: 0x88 }
  - { offsetInCU: 0x26, offset: 0x15BE07, size: 0x8, addend: 0x0, symName: _AbslContainerInternalSampleEverything_lts_20220623, symObjAddr: 0x0, symBinAddr: 0x2F93C, symSize: 0x8 }
  - { offsetInCU: 0x2AE9, offset: 0x15E8CA, size: 0x8, addend: 0x0, symName: _AbslContainerInternalSampleEverything_lts_20220623, symObjAddr: 0x0, symBinAddr: 0x2F93C, symSize: 0x8 }
  - { offsetInCU: 0x4A, offset: 0x15E92E, size: 0x8, addend: 0x0, symName: __ZN4absl12lts_2022062311kuint128maxE, symObjAddr: 0x1B70, symBinAddr: 0x5B0D0, symSize: 0x0 }
  - { offsetInCU: 0x59, offset: 0x15E93D, size: 0x8, addend: 0x0, symName: __ZN4absl12lts_2022062312_GLOBAL__N_120MakeUint128FromFloatIfEENS0_7uint128ET_, symObjAddr: 0x28, symBinAddr: 0x2F96C, symSize: 0x94 }
  - { offsetInCU: 0x132, offset: 0x15EA16, size: 0x8, addend: 0x0, symName: __ZN4absl12lts_2022062312_GLOBAL__N_120MakeUint128FromFloatIdEENS0_7uint128ET_, symObjAddr: 0x10C, symBinAddr: 0x2FA50, symSize: 0xAC }
  - { offsetInCU: 0x18B, offset: 0x15EA6F, size: 0x8, addend: 0x0, symName: __ZN4absl12lts_202206237uint128C1Ed, symObjAddr: 0x1B8, symBinAddr: 0x2FAFC, symSize: 0x28 }
  - { offsetInCU: 0x19E, offset: 0x15EA82, size: 0x8, addend: 0x0, symName: __ZN4absl12lts_2022062312_GLOBAL__N_120MakeUint128FromFloatEe, symObjAddr: 0x208, symBinAddr: 0x2FB4C, symSize: 0xB4 }
  - { offsetInCU: 0x320, offset: 0x15EC04, size: 0x8, addend: 0x0, symName: __ZN4absl12lts_202206237uint128C1Ee, symObjAddr: 0x2BC, symBinAddr: 0x2FC00, symSize: 0x28 }
  - { offsetInCU: 0x32A, offset: 0x15EC0E, size: 0x8, addend: 0x0, symName: __ZN4absl12lts_2022062312_GLOBAL__N_124Uint128ToFormattedStringENS0_7uint128Ej, symObjAddr: 0x540, symBinAddr: 0x2FE84, symSize: 0x424 }
  - { offsetInCU: 0xCDD, offset: 0x15F5C1, size: 0x8, addend: 0x0, symName: __ZN4absl12lts_20220623lsERNSt3__113basic_ostreamIcNS1_11char_traitsIcEEEENS0_7uint128E, symObjAddr: 0x2E4, symBinAddr: 0x2FC28, symSize: 0x25C }
  - { offsetInCU: 0x134F, offset: 0x15FC33, size: 0x8, addend: 0x0, symName: __ZN4absl12lts_20220623lsERNSt3__113basic_ostreamIcNS1_11char_traitsIcEEEENS0_6int128E, symObjAddr: 0x964, symBinAddr: 0x302A8, symSize: 0x404 }
  - { offsetInCU: 0x1E6C, offset: 0x160750, size: 0x8, addend: 0x0, symName: __ZNSt3__114numeric_limitsIN4absl12lts_202206237uint128EE14is_specializedE, symObjAddr: 0x1B80, symBinAddr: 0x5B0E0, symSize: 0x0 }
  - { offsetInCU: 0x5949, offset: 0x16422D, size: 0x8, addend: 0x0, symName: __ZNSt3__114numeric_limitsIN4absl12lts_202206237uint128EE9is_signedE, symObjAddr: 0x1B81, symBinAddr: 0x5B0E1, symSize: 0x0 }
  - { offsetInCU: 0x595D, offset: 0x164241, size: 0x8, addend: 0x0, symName: __ZNSt3__114numeric_limitsIN4absl12lts_202206237uint128EE10is_integerE, symObjAddr: 0x1B82, symBinAddr: 0x5B0E2, symSize: 0x0 }
  - { offsetInCU: 0x5971, offset: 0x164255, size: 0x8, addend: 0x0, symName: __ZNSt3__114numeric_limitsIN4absl12lts_202206237uint128EE8is_exactE, symObjAddr: 0x1B83, symBinAddr: 0x5B0E3, symSize: 0x0 }
  - { offsetInCU: 0x5985, offset: 0x164269, size: 0x8, addend: 0x0, symName: __ZNSt3__114numeric_limitsIN4absl12lts_202206237uint128EE12has_infinityE, symObjAddr: 0x1B84, symBinAddr: 0x5B0E4, symSize: 0x0 }
  - { offsetInCU: 0x5999, offset: 0x16427D, size: 0x8, addend: 0x0, symName: __ZNSt3__114numeric_limitsIN4absl12lts_202206237uint128EE13has_quiet_NaNE, symObjAddr: 0x1B85, symBinAddr: 0x5B0E5, symSize: 0x0 }
  - { offsetInCU: 0x59AD, offset: 0x164291, size: 0x8, addend: 0x0, symName: __ZNSt3__114numeric_limitsIN4absl12lts_202206237uint128EE17has_signaling_NaNE, symObjAddr: 0x1B86, symBinAddr: 0x5B0E6, symSize: 0x0 }
  - { offsetInCU: 0x59C1, offset: 0x1642A5, size: 0x8, addend: 0x0, symName: __ZNSt3__114numeric_limitsIN4absl12lts_202206237uint128EE10has_denormE, symObjAddr: 0x1B88, symBinAddr: 0x5B0E8, symSize: 0x0 }
  - { offsetInCU: 0x59D5, offset: 0x1642B9, size: 0x8, addend: 0x0, symName: __ZNSt3__114numeric_limitsIN4absl12lts_202206237uint128EE15has_denorm_lossE, symObjAddr: 0x1B8C, symBinAddr: 0x5B0EC, symSize: 0x0 }
  - { offsetInCU: 0x59E9, offset: 0x1642CD, size: 0x8, addend: 0x0, symName: __ZNSt3__114numeric_limitsIN4absl12lts_202206237uint128EE11round_styleE, symObjAddr: 0x1B90, symBinAddr: 0x5B0F0, symSize: 0x0 }
  - { offsetInCU: 0x59FD, offset: 0x1642E1, size: 0x8, addend: 0x0, symName: __ZNSt3__114numeric_limitsIN4absl12lts_202206237uint128EE9is_iec559E, symObjAddr: 0x1B94, symBinAddr: 0x5B0F4, symSize: 0x0 }
  - { offsetInCU: 0x5A11, offset: 0x1642F5, size: 0x8, addend: 0x0, symName: __ZNSt3__114numeric_limitsIN4absl12lts_202206237uint128EE10is_boundedE, symObjAddr: 0x1B95, symBinAddr: 0x5B0F5, symSize: 0x0 }
  - { offsetInCU: 0x5A25, offset: 0x164309, size: 0x8, addend: 0x0, symName: __ZNSt3__114numeric_limitsIN4absl12lts_202206237uint128EE9is_moduloE, symObjAddr: 0x1B96, symBinAddr: 0x5B0F6, symSize: 0x0 }
  - { offsetInCU: 0x5A39, offset: 0x16431D, size: 0x8, addend: 0x0, symName: __ZNSt3__114numeric_limitsIN4absl12lts_202206237uint128EE6digitsE, symObjAddr: 0x1B98, symBinAddr: 0x5B0F8, symSize: 0x0 }
  - { offsetInCU: 0x5A4D, offset: 0x164331, size: 0x8, addend: 0x0, symName: __ZNSt3__114numeric_limitsIN4absl12lts_202206237uint128EE8digits10E, symObjAddr: 0x1B9C, symBinAddr: 0x5B0FC, symSize: 0x0 }
  - { offsetInCU: 0x5A61, offset: 0x164345, size: 0x8, addend: 0x0, symName: __ZNSt3__114numeric_limitsIN4absl12lts_202206237uint128EE12max_digits10E, symObjAddr: 0x1BA0, symBinAddr: 0x5B100, symSize: 0x0 }
  - { offsetInCU: 0x5A75, offset: 0x164359, size: 0x8, addend: 0x0, symName: __ZNSt3__114numeric_limitsIN4absl12lts_202206237uint128EE5radixE, symObjAddr: 0x1BA4, symBinAddr: 0x5B104, symSize: 0x0 }
  - { offsetInCU: 0x5A89, offset: 0x16436D, size: 0x8, addend: 0x0, symName: __ZNSt3__114numeric_limitsIN4absl12lts_202206237uint128EE12min_exponentE, symObjAddr: 0x1BA8, symBinAddr: 0x5B108, symSize: 0x0 }
  - { offsetInCU: 0x5A9D, offset: 0x164381, size: 0x8, addend: 0x0, symName: __ZNSt3__114numeric_limitsIN4absl12lts_202206237uint128EE14min_exponent10E, symObjAddr: 0x1BAC, symBinAddr: 0x5B10C, symSize: 0x0 }
  - { offsetInCU: 0x5AB1, offset: 0x164395, size: 0x8, addend: 0x0, symName: __ZNSt3__114numeric_limitsIN4absl12lts_202206237uint128EE12max_exponentE, symObjAddr: 0x1BB0, symBinAddr: 0x5B110, symSize: 0x0 }
  - { offsetInCU: 0x5AC5, offset: 0x1643A9, size: 0x8, addend: 0x0, symName: __ZNSt3__114numeric_limitsIN4absl12lts_202206237uint128EE14max_exponent10E, symObjAddr: 0x1BB4, symBinAddr: 0x5B114, symSize: 0x0 }
  - { offsetInCU: 0x5AD9, offset: 0x1643BD, size: 0x8, addend: 0x0, symName: __ZNSt3__114numeric_limitsIN4absl12lts_202206237uint128EE5trapsE, symObjAddr: 0x1BB8, symBinAddr: 0x5B118, symSize: 0x0 }
  - { offsetInCU: 0x5AED, offset: 0x1643D1, size: 0x8, addend: 0x0, symName: __ZNSt3__114numeric_limitsIN4absl12lts_202206237uint128EE15tinyness_beforeE, symObjAddr: 0x1BB9, symBinAddr: 0x5B119, symSize: 0x0 }
  - { offsetInCU: 0x5B01, offset: 0x1643E5, size: 0x8, addend: 0x0, symName: __ZNSt3__114numeric_limitsIN4absl12lts_202206236int128EE14is_specializedE, symObjAddr: 0x1BBA, symBinAddr: 0x5B11A, symSize: 0x0 }
  - { offsetInCU: 0x5B15, offset: 0x1643F9, size: 0x8, addend: 0x0, symName: __ZNSt3__114numeric_limitsIN4absl12lts_202206236int128EE9is_signedE, symObjAddr: 0x1BBB, symBinAddr: 0x5B11B, symSize: 0x0 }
  - { offsetInCU: 0x5B29, offset: 0x16440D, size: 0x8, addend: 0x0, symName: __ZNSt3__114numeric_limitsIN4absl12lts_202206236int128EE10is_integerE, symObjAddr: 0x1BBC, symBinAddr: 0x5B11C, symSize: 0x0 }
  - { offsetInCU: 0x5B3D, offset: 0x164421, size: 0x8, addend: 0x0, symName: __ZNSt3__114numeric_limitsIN4absl12lts_202206236int128EE8is_exactE, symObjAddr: 0x1BBD, symBinAddr: 0x5B11D, symSize: 0x0 }
  - { offsetInCU: 0x5B51, offset: 0x164435, size: 0x8, addend: 0x0, symName: __ZNSt3__114numeric_limitsIN4absl12lts_202206236int128EE12has_infinityE, symObjAddr: 0x1BBE, symBinAddr: 0x5B11E, symSize: 0x0 }
  - { offsetInCU: 0x5B65, offset: 0x164449, size: 0x8, addend: 0x0, symName: __ZNSt3__114numeric_limitsIN4absl12lts_202206236int128EE13has_quiet_NaNE, symObjAddr: 0x1BBF, symBinAddr: 0x5B11F, symSize: 0x0 }
  - { offsetInCU: 0x5B79, offset: 0x16445D, size: 0x8, addend: 0x0, symName: __ZNSt3__114numeric_limitsIN4absl12lts_202206236int128EE17has_signaling_NaNE, symObjAddr: 0x1BC0, symBinAddr: 0x5B120, symSize: 0x0 }
  - { offsetInCU: 0x5B8D, offset: 0x164471, size: 0x8, addend: 0x0, symName: __ZNSt3__114numeric_limitsIN4absl12lts_202206236int128EE10has_denormE, symObjAddr: 0x1BC4, symBinAddr: 0x5B124, symSize: 0x0 }
  - { offsetInCU: 0x5BA1, offset: 0x164485, size: 0x8, addend: 0x0, symName: __ZNSt3__114numeric_limitsIN4absl12lts_202206236int128EE15has_denorm_lossE, symObjAddr: 0x1BC8, symBinAddr: 0x5B128, symSize: 0x0 }
  - { offsetInCU: 0x5BB5, offset: 0x164499, size: 0x8, addend: 0x0, symName: __ZNSt3__114numeric_limitsIN4absl12lts_202206236int128EE11round_styleE, symObjAddr: 0x1BCC, symBinAddr: 0x5B12C, symSize: 0x0 }
  - { offsetInCU: 0x5BC9, offset: 0x1644AD, size: 0x8, addend: 0x0, symName: __ZNSt3__114numeric_limitsIN4absl12lts_202206236int128EE9is_iec559E, symObjAddr: 0x1BD0, symBinAddr: 0x5B130, symSize: 0x0 }
  - { offsetInCU: 0x5BDD, offset: 0x1644C1, size: 0x8, addend: 0x0, symName: __ZNSt3__114numeric_limitsIN4absl12lts_202206236int128EE10is_boundedE, symObjAddr: 0x1BD1, symBinAddr: 0x5B131, symSize: 0x0 }
  - { offsetInCU: 0x5BF1, offset: 0x1644D5, size: 0x8, addend: 0x0, symName: __ZNSt3__114numeric_limitsIN4absl12lts_202206236int128EE9is_moduloE, symObjAddr: 0x1BD2, symBinAddr: 0x5B132, symSize: 0x0 }
  - { offsetInCU: 0x5C05, offset: 0x1644E9, size: 0x8, addend: 0x0, symName: __ZNSt3__114numeric_limitsIN4absl12lts_202206236int128EE6digitsE, symObjAddr: 0x1BD4, symBinAddr: 0x5B134, symSize: 0x0 }
  - { offsetInCU: 0x5C19, offset: 0x1644FD, size: 0x8, addend: 0x0, symName: __ZNSt3__114numeric_limitsIN4absl12lts_202206236int128EE8digits10E, symObjAddr: 0x1BD8, symBinAddr: 0x5B138, symSize: 0x0 }
  - { offsetInCU: 0x5C2D, offset: 0x164511, size: 0x8, addend: 0x0, symName: __ZNSt3__114numeric_limitsIN4absl12lts_202206236int128EE12max_digits10E, symObjAddr: 0x1BDC, symBinAddr: 0x5B13C, symSize: 0x0 }
  - { offsetInCU: 0x5C41, offset: 0x164525, size: 0x8, addend: 0x0, symName: __ZNSt3__114numeric_limitsIN4absl12lts_202206236int128EE5radixE, symObjAddr: 0x1BE0, symBinAddr: 0x5B140, symSize: 0x0 }
  - { offsetInCU: 0x5C55, offset: 0x164539, size: 0x8, addend: 0x0, symName: __ZNSt3__114numeric_limitsIN4absl12lts_202206236int128EE12min_exponentE, symObjAddr: 0x1BE4, symBinAddr: 0x5B144, symSize: 0x0 }
  - { offsetInCU: 0x5C69, offset: 0x16454D, size: 0x8, addend: 0x0, symName: __ZNSt3__114numeric_limitsIN4absl12lts_202206236int128EE14min_exponent10E, symObjAddr: 0x1BE8, symBinAddr: 0x5B148, symSize: 0x0 }
  - { offsetInCU: 0x5C7D, offset: 0x164561, size: 0x8, addend: 0x0, symName: __ZNSt3__114numeric_limitsIN4absl12lts_202206236int128EE12max_exponentE, symObjAddr: 0x1BEC, symBinAddr: 0x5B14C, symSize: 0x0 }
  - { offsetInCU: 0x5C91, offset: 0x164575, size: 0x8, addend: 0x0, symName: __ZNSt3__114numeric_limitsIN4absl12lts_202206236int128EE14max_exponent10E, symObjAddr: 0x1BF0, symBinAddr: 0x5B150, symSize: 0x0 }
  - { offsetInCU: 0x5CA5, offset: 0x164589, size: 0x8, addend: 0x0, symName: __ZNSt3__114numeric_limitsIN4absl12lts_202206236int128EE5trapsE, symObjAddr: 0x1BF4, symBinAddr: 0x5B154, symSize: 0x0 }
  - { offsetInCU: 0x5CB9, offset: 0x16459D, size: 0x8, addend: 0x0, symName: __ZNSt3__114numeric_limitsIN4absl12lts_202206236int128EE15tinyness_beforeE, symObjAddr: 0x1BF5, symBinAddr: 0x5B155, symSize: 0x0 }
  - { offsetInCU: 0x7CF3, offset: 0x1665D7, size: 0x8, addend: 0x0, symName: __ZN4absl12lts_202206237uint128C2Ef, symObjAddr: 0x0, symBinAddr: 0x2F944, symSize: 0x28 }
  - { offsetInCU: 0x7D70, offset: 0x166654, size: 0x8, addend: 0x0, symName: __ZN4absl12lts_2022062312_GLOBAL__N_120MakeUint128FromFloatIfEENS0_7uint128ET_.cold.1, symObjAddr: 0x1978, symBinAddr: 0x547B8, symSize: 0x28 }
  - { offsetInCU: 0x7D88, offset: 0x16666C, size: 0x8, addend: 0x0, symName: __ZN4absl12lts_202206237uint128C1Ef, symObjAddr: 0xBC, symBinAddr: 0x2FA00, symSize: 0x28 }
  - { offsetInCU: 0x7DDB, offset: 0x1666BF, size: 0x8, addend: 0x0, symName: __ZN4absl12lts_202206237uint128C2Ed, symObjAddr: 0xE4, symBinAddr: 0x2FA28, symSize: 0x28 }
  - { offsetInCU: 0x7E2E, offset: 0x166712, size: 0x8, addend: 0x0, symName: __ZN4absl12lts_2022062312_GLOBAL__N_120MakeUint128FromFloatIdEENS0_7uint128ET_.cold.1, symObjAddr: 0x19A0, symBinAddr: 0x547E0, symSize: 0x28 }
  - { offsetInCU: 0x7E46, offset: 0x16672A, size: 0x8, addend: 0x0, symName: __ZN4absl12lts_202206237uint128C1Ed, symObjAddr: 0x1B8, symBinAddr: 0x2FAFC, symSize: 0x28 }
  - { offsetInCU: 0x7E99, offset: 0x16677D, size: 0x8, addend: 0x0, symName: __ZN4absl12lts_202206237uint128C2Ee, symObjAddr: 0x1E0, symBinAddr: 0x2FB24, symSize: 0x28 }
  - { offsetInCU: 0x7F34, offset: 0x166818, size: 0x8, addend: 0x0, symName: __ZN4absl12lts_2022062312_GLOBAL__N_120MakeUint128FromFloatEe.cold.1, symObjAddr: 0x19C8, symBinAddr: 0x54808, symSize: 0x28 }
  - { offsetInCU: 0x7F4C, offset: 0x166830, size: 0x8, addend: 0x0, symName: __ZN4absl12lts_202206237uint128C1Ee, symObjAddr: 0x2BC, symBinAddr: 0x2FC00, symSize: 0x28 }
  - { offsetInCU: 0x8C73, offset: 0x167557, size: 0x8, addend: 0x0, symName: __ZN4absl12lts_2022062312_GLOBAL__N_120MakeUint128FromFloatIfEENS0_7uint128ET_.cold.1, symObjAddr: 0x1978, symBinAddr: 0x547B8, symSize: 0x28 }
  - { offsetInCU: 0x3403, offset: 0x16A9F3, size: 0x8, addend: 0x0, symName: __ZN4absl12lts_20220623lsERNSt3__113basic_ostreamIcNS1_11char_traitsIcEEEENS0_11LogSeverityE, symObjAddr: 0x0, symBinAddr: 0x306AC, symSize: 0x84 }
  - { offsetInCU: 0x3522, offset: 0x16AB12, size: 0x8, addend: 0x0, symName: __ZN4absl12lts_20220623lsERNSt3__113basic_ostreamIcNS1_11char_traitsIcEEEENS0_18LogSeverityAtLeastE, symObjAddr: 0x84, symBinAddr: 0x30730, symSize: 0x64 }
  - { offsetInCU: 0x35E3, offset: 0x16ABD3, size: 0x8, addend: 0x0, symName: __ZN4absl12lts_20220623lsERNSt3__113basic_ostreamIcNS1_11char_traitsIcEEEENS0_17LogSeverityAtMostE, symObjAddr: 0xE8, symBinAddr: 0x30794, symSize: 0x64 }
  - { offsetInCU: 0x67, offset: 0x16D227, size: 0x8, addend: 0x0, symName: __ZN4absl12lts_2022062313base_internal12_GLOBAL__N_119create_globals_onceE, symObjAddr: 0x12A58, symBinAddr: 0x6E348, symSize: 0x0 }
  - { offsetInCU: 0x82, offset: 0x16D242, size: 0x8, addend: 0x0, symName: __ZN4absl12lts_2022062313base_internal12_GLOBAL__N_122unhooked_arena_storageE, symObjAddr: 0x12A60, symBinAddr: 0x6E350, symSize: 0x0 }
  - { offsetInCU: 0x9D, offset: 0x16D25D, size: 0x8, addend: 0x0, symName: __ZN4absl12lts_2022062313base_internal12_GLOBAL__N_137unhooked_async_sig_safe_arena_storageE, symObjAddr: 0x12BA8, symBinAddr: 0x6E498, symSize: 0x0 }
  - { offsetInCU: 0xB8, offset: 0x16D278, size: 0x8, addend: 0x0, symName: __ZN4absl12lts_2022062313base_internal12_GLOBAL__N_121default_arena_storageE, symObjAddr: 0x12910, symBinAddr: 0x6E200, symSize: 0x0 }
  - { offsetInCU: 0x130, offset: 0x16D2F0, size: 0x8, addend: 0x0, symName: __ZN4absl12lts_2022062313base_internal12_GLOBAL__N_118CreateGlobalArenasEv, symObjAddr: 0x48, symBinAddr: 0x30840, symSize: 0x3C }
  - { offsetInCU: 0x2ED, offset: 0x16D4AD, size: 0x8, addend: 0x0, symName: __ZN4absl12lts_2022062313base_internal12CallOnceImplIRFvvEJEEEvPNSt3__16atomicIjEENS1_14SchedulingModeEOT_DpOT0_, symObjAddr: 0x1150, symBinAddr: 0x3193C, symSize: 0x110 }
  - { offsetInCU: 0x313, offset: 0x16D4D3, size: 0x8, addend: 0x0, symName: __ZZN4absl12lts_2022062313base_internal12CallOnceImplIRFvvEJEEEvPNSt3__16atomicIjEENS1_14SchedulingModeEOT_DpOT0_E5trans, symObjAddr: 0x190C, symBinAddr: 0x5B1B0, symSize: 0x0 }
  - { offsetInCU: 0x6FD, offset: 0x16D8BD, size: 0x8, addend: 0x0, symName: __ZN4absl12lts_2022062313base_internalL16DoAllocWithArenaEmPNS1_13LowLevelAlloc5ArenaE, symObjAddr: 0x8BC, symBinAddr: 0x310B4, symSize: 0x500 }
  - { offsetInCU: 0xD75, offset: 0x16DF35, size: 0x8, addend: 0x0, symName: __ZN4absl12lts_2022062313base_internalL13AddToFreelistEPvPNS1_13LowLevelAlloc5ArenaE, symObjAddr: 0x738, symBinAddr: 0x30F30, symSize: 0x12C }
  - { offsetInCU: 0xEE3, offset: 0x16E0A3, size: 0x8, addend: 0x0, symName: __ZN4absl12lts_2022062313base_internalL18LLA_SkiplistLevelsEmmPj, symObjAddr: 0xDC8, symBinAddr: 0x315B4, symSize: 0xD0 }
  - { offsetInCU: 0xFF1, offset: 0x16E1B1, size: 0x8, addend: 0x0, symName: __ZN4absl12lts_2022062313base_internalL18LLA_SkiplistInsertEPNS1_12_GLOBAL__N_19AllocListES4_PS4_, symObjAddr: 0xE98, symBinAddr: 0x31684, symSize: 0xB4 }
  - { offsetInCU: 0x10A5, offset: 0x16E265, size: 0x8, addend: 0x0, symName: __ZN4absl12lts_2022062313base_internalL8CoalesceEPNS1_12_GLOBAL__N_19AllocListE, symObjAddr: 0xF4C, symBinAddr: 0x31738, symSize: 0xC8 }
  - { offsetInCU: 0x1273, offset: 0x16E433, size: 0x8, addend: 0x0, symName: __ZN4absl12lts_2022062313base_internalL18LLA_SkiplistDeleteEPNS1_12_GLOBAL__N_19AllocListES4_PS4_, symObjAddr: 0x1014, symBinAddr: 0x31800, symSize: 0x13C }
  - { offsetInCU: 0x4137, offset: 0x1712F7, size: 0x8, addend: 0x0, symName: __ZN4absl12lts_2022062313base_internal13LowLevelAlloc12DefaultArenaEv, symObjAddr: 0x0, symBinAddr: 0x307F8, symSize: 0x48 }
  - { offsetInCU: 0x41F7, offset: 0x1713B7, size: 0x8, addend: 0x0, symName: __ZN4absl12lts_2022062313base_internal13LowLevelAlloc5ArenaC2Ej, symObjAddr: 0x84, symBinAddr: 0x3087C, symSize: 0x90 }
  - { offsetInCU: 0x42A0, offset: 0x171460, size: 0x8, addend: 0x0, symName: __ZN4absl12lts_2022062313base_internal13LowLevelAlloc5ArenaC1Ej, symObjAddr: 0x114, symBinAddr: 0x3090C, symSize: 0x4 }
  - { offsetInCU: 0x42C9, offset: 0x171489, size: 0x8, addend: 0x0, symName: __ZN4absl12lts_2022062313base_internal13LowLevelAlloc5ArenaC1Ej, symObjAddr: 0x114, symBinAddr: 0x3090C, symSize: 0x4 }
  - { offsetInCU: 0x432F, offset: 0x1714EF, size: 0x8, addend: 0x0, symName: __ZN4absl12lts_2022062313base_internal13LowLevelAlloc8NewArenaEi, symObjAddr: 0x118, symBinAddr: 0x30910, symSize: 0xB0 }
  - { offsetInCU: 0x45AE, offset: 0x17176E, size: 0x8, addend: 0x0, symName: __ZN4absl12lts_2022062313base_internal13LowLevelAlloc14AllocWithArenaEmPNS2_5ArenaE, symObjAddr: 0x1C8, symBinAddr: 0x309C0, symSize: 0x68 }
  - { offsetInCU: 0x4620, offset: 0x1717E0, size: 0x8, addend: 0x0, symName: __ZN4absl12lts_2022062313base_internal13LowLevelAlloc11DeleteArenaEPNS2_5ArenaE, symObjAddr: 0x230, symBinAddr: 0x30A28, symSize: 0x2C0 }
  - { offsetInCU: 0x49FB, offset: 0x171BBB, size: 0x8, addend: 0x0, symName: __ZN4absl12lts_2022062313base_internal12_GLOBAL__N_19ArenaLockC1EPNS1_13LowLevelAlloc5ArenaE, symObjAddr: 0x4F0, symBinAddr: 0x30CE8, symSize: 0x98 }
  - { offsetInCU: 0x4B99, offset: 0x171D59, size: 0x8, addend: 0x0, symName: __ZN4absl12lts_2022062313base_internal12_GLOBAL__N_19ArenaLock5LeaveEv, symObjAddr: 0x588, symBinAddr: 0x30D80, symSize: 0x90 }
  - { offsetInCU: 0x4CF2, offset: 0x171EB2, size: 0x8, addend: 0x0, symName: __ZN4absl12lts_2022062313base_internal13LowLevelAlloc4FreeEPv, symObjAddr: 0x618, symBinAddr: 0x30E10, symSize: 0xB8 }
  - { offsetInCU: 0x4DF4, offset: 0x171FB4, size: 0x8, addend: 0x0, symName: __ZN4absl12lts_2022062313base_internal12_GLOBAL__N_19ArenaLockD1Ev, symObjAddr: 0x6D0, symBinAddr: 0x30EC8, symSize: 0x68 }
  - { offsetInCU: 0x4FF1, offset: 0x1721B1, size: 0x8, addend: 0x0, symName: __ZN4absl12lts_2022062313base_internal13LowLevelAlloc5AllocEm, symObjAddr: 0x864, symBinAddr: 0x3105C, symSize: 0x58 }
  - { offsetInCU: 0x26, offset: 0x172368, size: 0x8, addend: 0x0, symName: __ZN4absl12lts_2022062313hash_internal12LowLevelHashEPKvmyPKy, symObjAddr: 0x0, symBinAddr: 0x31A4C, symSize: 0x188 }
  - { offsetInCU: 0x16E6, offset: 0x173A28, size: 0x8, addend: 0x0, symName: __ZN4absl12lts_2022062313hash_internal12LowLevelHashEPKvmyPKy, symObjAddr: 0x0, symBinAddr: 0x31A4C, symSize: 0x188 }
  - { offsetInCU: 0x51, offset: 0x173EA3, size: 0x8, addend: 0x0, symName: __ZN4absl12lts_2022062316EqualsIgnoreCaseENS0_11string_viewES1_, symObjAddr: 0x0, symBinAddr: 0x31BD4, symSize: 0x3C }
  - { offsetInCU: 0xC0, offset: 0x173F12, size: 0x8, addend: 0x0, symName: __ZN4absl12lts_2022062320StartsWithIgnoreCaseENS0_11string_viewES1_, symObjAddr: 0x48, symBinAddr: 0x31C10, symSize: 0x5C }
  - { offsetInCU: 0x148, offset: 0x173F9A, size: 0x8, addend: 0x0, symName: __ZN4absl12lts_2022062318EndsWithIgnoreCaseENS0_11string_viewES1_, symObjAddr: 0xE8, symBinAddr: 0x31C6C, symSize: 0x58 }
  - { offsetInCU: 0x2BDC, offset: 0x176A2E, size: 0x8, addend: 0x0, symName: __ZN4absl12lts_2022062318EndsWithIgnoreCaseENS0_11string_viewES1_, symObjAddr: 0xE8, symBinAddr: 0x31C6C, symSize: 0x58 }
  - { offsetInCU: 0x26, offset: 0x176B73, size: 0x8, addend: 0x0, symName: __ZN4absl12lts_2022062316strings_internal10memcasecmpEPKcS3_m, symObjAddr: 0x0, symBinAddr: 0x31CC4, symSize: 0x40 }
  - { offsetInCU: 0x2A02, offset: 0x17954F, size: 0x8, addend: 0x0, symName: __ZN4absl12lts_2022062316strings_internal10memcasecmpEPKcS3_m, symObjAddr: 0x0, symBinAddr: 0x31CC4, symSize: 0x40 }
  - { offsetInCU: 0x2A6A, offset: 0x1795B7, size: 0x8, addend: 0x0, symName: __ZN4absl12lts_2022062316strings_internal10memcasecmpEPKcS3_m, symObjAddr: 0x0, symBinAddr: 0x31CC4, symSize: 0x40 }
  - { offsetInCU: 0x2ACD, offset: 0x17961A, size: 0x8, addend: 0x0, symName: __ZN4absl12lts_2022062316strings_internal6memdupEPKcm, symObjAddr: 0x40, symBinAddr: 0x31D04, symSize: 0x4C }
  - { offsetInCU: 0x2B19, offset: 0x179666, size: 0x8, addend: 0x0, symName: __ZN4absl12lts_2022062316strings_internal7memrchrEPKcim, symObjAddr: 0x8C, symBinAddr: 0x31D50, symSize: 0x2C }
  - { offsetInCU: 0x2B61, offset: 0x1796AE, size: 0x8, addend: 0x0, symName: __ZN4absl12lts_2022062316strings_internal7memrchrEPKcim, symObjAddr: 0x8C, symBinAddr: 0x31D50, symSize: 0x2C }
  - { offsetInCU: 0x2B7F, offset: 0x1796CC, size: 0x8, addend: 0x0, symName: __ZN4absl12lts_2022062316strings_internal6memspnEPKcmS3_, symObjAddr: 0xB8, symBinAddr: 0x31D7C, symSize: 0x44 }
  - { offsetInCU: 0x2C11, offset: 0x17975E, size: 0x8, addend: 0x0, symName: __ZN4absl12lts_2022062316strings_internal7memcspnEPKcmS3_, symObjAddr: 0xFC, symBinAddr: 0x31DC0, symSize: 0x48 }
  - { offsetInCU: 0x2C93, offset: 0x1797E0, size: 0x8, addend: 0x0, symName: __ZN4absl12lts_2022062316strings_internal7mempbrkEPKcmS3_, symObjAddr: 0x144, symBinAddr: 0x31E08, symSize: 0x38 }
  - { offsetInCU: 0x2CFA, offset: 0x179847, size: 0x8, addend: 0x0, symName: __ZN4absl12lts_2022062316strings_internal8memmatchEPKcmS3_m, symObjAddr: 0x17C, symBinAddr: 0x31E40, symSize: 0x90 }
  - { offsetInCU: 0x85B, offset: 0x17A183, size: 0x8, addend: 0x0, symName: '__ZN4absl12lts_2022062313base_internal12CallOnceImplIZNS0_12_GLOBAL__N_115GetMutexGlobalsEvE3$_0JEEEvPNSt3__16atomicIjEENS1_14SchedulingModeEOT_DpOT0_', symObjAddr: 0x3DC4, symBinAddr: 0x350B0, symSize: 0x134 }
  - { offsetInCU: 0x882, offset: 0x17A1AA, size: 0x8, addend: 0x0, symName: '__ZZN4absl12lts_2022062313base_internal12CallOnceImplIZNS0_12_GLOBAL__N_115GetMutexGlobalsEvE3$_0JEEEvPNSt3__16atomicIjEENS1_14SchedulingModeEOT_DpOT0_E5trans', symObjAddr: 0x51E0, symBinAddr: 0x5B258, symSize: 0x0 }
  - { offsetInCU: 0xDD5, offset: 0x17A6FD, size: 0x8, addend: 0x0, symName: __ZN4absl12lts_2022062324synchronization_internal10MutexDelayEii, symObjAddr: 0x1B8, symBinAddr: 0x32088, symSize: 0xA0 }
  - { offsetInCU: 0x10B8, offset: 0x17A9E0, size: 0x8, addend: 0x0, symName: __ZN4absl12lts_202206239Condition5kTrueE, symObjAddr: 0x51B8, symBinAddr: 0x5B230, symSize: 0x0 }
  - { offsetInCU: 0x10D3, offset: 0x17A9FB, size: 0x8, addend: 0x0, symName: __MergedGlobals, symObjAddr: 0x5230, symBinAddr: 0x6E020, symSize: 0x0 }
  - { offsetInCU: 0x10ED, offset: 0x17AA15, size: 0x8, addend: 0x0, symName: __MergedGlobals, symObjAddr: 0x5230, symBinAddr: 0x6E020, symSize: 0x0 }
  - { offsetInCU: 0x1109, offset: 0x17AA31, size: 0x8, addend: 0x0, symName: __ZN4absl12lts_2022062312_GLOBAL__N_115cond_var_tracerE, symObjAddr: 0x5208, symBinAddr: 0x6DFF8, symSize: 0x0 }
  - { offsetInCU: 0x1123, offset: 0x17AA4B, size: 0x8, addend: 0x0, symName: __ZN4absl12lts_2022062312_GLOBAL__N_110symbolizerE, symObjAddr: 0x5218, symBinAddr: 0x6E008, symSize: 0x0 }
  - { offsetInCU: 0x113F, offset: 0x17AA67, size: 0x8, addend: 0x0, symName: __ZZN4absl12lts_2022062312_GLOBAL__N_115GetMutexGlobalsEvE4data, symObjAddr: 0x4EF80, symBinAddr: 0x6E640, symSize: 0x0 }
  - { offsetInCU: 0x119C, offset: 0x17AAC4, size: 0x8, addend: 0x0, symName: __ZN4absl12lts_2022062312_GLOBAL__N_124synch_deadlock_detectionE.0, symObjAddr: 0x5228, symBinAddr: 0x6E018, symSize: 0x0 }
  - { offsetInCU: 0x11B6, offset: 0x17AADE, size: 0x8, addend: 0x0, symName: __ZN4absl12lts_2022062312_GLOBAL__N_122synch_check_invariantsE.0, symObjAddr: 0x50FFC, symBinAddr: 0x706BC, symSize: 0x0 }
  - { offsetInCU: 0x1234, offset: 0x17AB5C, size: 0x8, addend: 0x0, symName: __ZN4absl12lts_2022062312_GLOBAL__N_18GetStackEPPvi, symObjAddr: 0x3F34, symBinAddr: 0x35220, symSize: 0x8 }
  - { offsetInCU: 0x12D4, offset: 0x17ABFC, size: 0x8, addend: 0x0, symName: __ZN4absl12lts_20220623L14synch_event_muE, symObjAddr: 0x50FF8, symBinAddr: 0x706B8, symSize: 0x0 }
  - { offsetInCU: 0x12EF, offset: 0x17AC17, size: 0x8, addend: 0x0, symName: __ZN4absl12lts_20220623L11synch_eventE, symObjAddr: 0x4EFC0, symBinAddr: 0x6E680, symSize: 0x0 }
  - { offsetInCU: 0x136F, offset: 0x17AC97, size: 0x8, addend: 0x0, symName: __ZN4absl12lts_20220623L17deadlock_graph_muE, symObjAddr: 0x51000, symBinAddr: 0x706C0, symSize: 0x0 }
  - { offsetInCU: 0x1389, offset: 0x17ACB1, size: 0x8, addend: 0x0, symName: __ZN4absl12lts_20220623L14deadlock_graphE, symObjAddr: 0x4EF40, symBinAddr: 0x6E600, symSize: 0x0 }
  - { offsetInCU: 0x1397, offset: 0x17ACBF, size: 0x8, addend: 0x0, symName: __ZN4absl12lts_20220623L11StackStringEPPviPcib, symObjAddr: 0x3F3C, symBinAddr: 0x35228, symSize: 0x144 }
  - { offsetInCU: 0x1518, offset: 0x17AE40, size: 0x8, addend: 0x0, symName: __ZN4absl12lts_20220623L11kExclusiveSE, symObjAddr: 0x5168, symBinAddr: 0x5B1E0, symSize: 0x0 }
  - { offsetInCU: 0x1533, offset: 0x17AE5B, size: 0x8, addend: 0x0, symName: __ZN4absl12lts_20220623L8kSharedSE, symObjAddr: 0x5190, symBinAddr: 0x5B208, symSize: 0x0 }
  - { offsetInCU: 0x154E, offset: 0x17AE76, size: 0x8, addend: 0x0, symName: __ZN4absl12lts_20220623L16event_propertiesE, symObjAddr: 0x5250, symBinAddr: 0x6D650, symSize: 0x0 }
  - { offsetInCU: 0x15A3, offset: 0x17AECB, size: 0x8, addend: 0x0, symName: __ZN4absl12lts_2022062321RegisterMutexProfilerEPFvxE, symObjAddr: 0x18, symBinAddr: 0x31EE8, symSize: 0x10 }
  - { offsetInCU: 0x15E2, offset: 0x17AF0A, size: 0x8, addend: 0x0, symName: __ZN4absl12lts_2022062319RegisterMutexTracerEPFvPKcPKvxE, symObjAddr: 0x80, symBinAddr: 0x31F50, symSize: 0x10 }
  - { offsetInCU: 0x1621, offset: 0x17AF49, size: 0x8, addend: 0x0, symName: __ZN4absl12lts_2022062321RegisterCondVarTracerEPFvPKcPKvE, symObjAddr: 0xE8, symBinAddr: 0x31FB8, symSize: 0x10 }
  - { offsetInCU: 0x1660, offset: 0x17AF88, size: 0x8, addend: 0x0, symName: __ZN4absl12lts_2022062318RegisterSymbolizerEPFbPKvPciE, symObjAddr: 0x150, symBinAddr: 0x32020, symSize: 0x10 }
  - { offsetInCU: 0x16FD, offset: 0x17B025, size: 0x8, addend: 0x0, symName: __ZN4absl12lts_20220623L16ForgetSynchEventEPNSt3__16atomicIlEEll, symObjAddr: 0x384, symBinAddr: 0x32248, symSize: 0x220 }
  - { offsetInCU: 0x1B78, offset: 0x17B4A0, size: 0x8, addend: 0x0, symName: __ZN4absl12lts_20220623L16EnsureSynchEventEPNSt3__16atomicIlEEPKcll, symObjAddr: 0x690, symBinAddr: 0x32554, symSize: 0x1B4 }
  - { offsetInCU: 0x1E28, offset: 0x17B750, size: 0x8, addend: 0x0, symName: __ZN4absl12lts_20220623L15UnrefSynchEventEPNS0_10SynchEventE, symObjAddr: 0x844, symBinAddr: 0x32708, symSize: 0xC0 }
  - { offsetInCU: 0x2023, offset: 0x17B94B, size: 0x8, addend: 0x0, symName: __ZN4absl12lts_2022062329EnableMutexInvariantDebuggingEb, symObjAddr: 0x904, symBinAddr: 0x327C8, symSize: 0x10 }
  - { offsetInCU: 0x2055, offset: 0x17B97D, size: 0x8, addend: 0x0, symName: __ZN4absl12lts_2022062329EnableMutexInvariantDebuggingEb, symObjAddr: 0x904, symBinAddr: 0x327C8, symSize: 0x10 }
  - { offsetInCU: 0x207C, offset: 0x17B9A4, size: 0x8, addend: 0x0, symName: __ZN4absl12lts_2022062329EnableMutexInvariantDebuggingEb, symObjAddr: 0x904, symBinAddr: 0x327C8, symSize: 0x10 }
  - { offsetInCU: 0x209D, offset: 0x17B9C5, size: 0x8, addend: 0x0, symName: __ZN4absl12lts_2022062329SetMutexDeadlockDetectionModeENS0_15OnDeadlockCycleE, symObjAddr: 0x968, symBinAddr: 0x3282C, symSize: 0x10 }
  - { offsetInCU: 0x20CA, offset: 0x17B9F2, size: 0x8, addend: 0x0, symName: __ZN4absl12lts_2022062329SetMutexDeadlockDetectionModeENS0_15OnDeadlockCycleE, symObjAddr: 0x968, symBinAddr: 0x3282C, symSize: 0x10 }
  - { offsetInCU: 0x20EC, offset: 0x17BA14, size: 0x8, addend: 0x0, symName: __ZN4absl12lts_2022062329SetMutexDeadlockDetectionModeENS0_15OnDeadlockCycleE, symObjAddr: 0x968, symBinAddr: 0x3282C, symSize: 0x10 }
  - { offsetInCU: 0x2193, offset: 0x17BABB, size: 0x8, addend: 0x0, symName: __ZN4absl12lts_20220623L18MuEquivalentWaiterEPNS0_13base_internal14PerThreadSynchES3_, symObjAddr: 0xAD8, symBinAddr: 0x3299C, symSize: 0x3C }
  - { offsetInCU: 0x21E0, offset: 0x17BB08, size: 0x8, addend: 0x0, symName: __ZN4absl12lts_20220623L7DequeueEPNS0_13base_internal14PerThreadSynchES3_, symObjAddr: 0xB14, symBinAddr: 0x329D8, symSize: 0x78 }
  - { offsetInCU: 0x224A, offset: 0x17BB72, size: 0x8, addend: 0x0, symName: __ZN4absl12lts_20220623L10GetGraphIdEPNS0_5MutexE, symObjAddr: 0xDA4, symBinAddr: 0x32C68, symSize: 0xA8 }
  - { offsetInCU: 0x2401, offset: 0x17BD29, size: 0x8, addend: 0x0, symName: __ZN4absl12lts_20220623L17Synch_GetAllLocksEv, symObjAddr: 0xE4C, symBinAddr: 0x32D10, symSize: 0x4C }
  - { offsetInCU: 0x248F, offset: 0x17BDB7, size: 0x8, addend: 0x0, symName: __ZN4absl12lts_20220623L13GetSynchEventEPKv, symObjAddr: 0xE98, symBinAddr: 0x32D5C, symSize: 0x108 }
  - { offsetInCU: 0x2642, offset: 0x17BF6A, size: 0x8, addend: 0x0, symName: __ZN4absl12lts_20220623L16GetGraphIdLockedEPNS0_5MutexE, symObjAddr: 0x3EF8, symBinAddr: 0x351E4, symSize: 0x3C }
  - { offsetInCU: 0x26EF, offset: 0x17C017, size: 0x8, addend: 0x0, symName: __ZN4absl12lts_20220623L22DebugOnlyDeadlockCheckEPNS0_5MutexE, symObjAddr: 0x1090, symBinAddr: 0x32F54, symSize: 0x460 }
  - { offsetInCU: 0x2D43, offset: 0x17C66B, size: 0x8, addend: 0x0, symName: __ZN4absl12lts_20220623L9LockEnterEPNS0_5MutexENS0_24synchronization_internal7GraphIdEPNS0_14SynchLocksHeldE, symObjAddr: 0x4080, symBinAddr: 0x3536C, symSize: 0x78 }
  - { offsetInCU: 0x2F75, offset: 0x17C89D, size: 0x8, addend: 0x0, symName: __ZN4absl12lts_20220623L19DeadlineFromTimeoutENS0_8DurationE, symObjAddr: 0x1728, symBinAddr: 0x3353C, symSize: 0x54 }
  - { offsetInCU: 0x31A9, offset: 0x17CAD1, size: 0x8, addend: 0x0, symName: __ZN4absl12lts_20220623L23CheckForMutexCorruptionElPKc, symObjAddr: 0x30DC, symBinAddr: 0x345CC, symSize: 0x28 }
  - { offsetInCU: 0x31FA, offset: 0x17CB22, size: 0x8, addend: 0x0, symName: __ZN4absl12lts_20220623L7EnqueueEPNS0_13base_internal14PerThreadSynchEPNS0_15SynchWaitParamsEli, symObjAddr: 0x3104, symBinAddr: 0x345F4, symSize: 0x370 }
  - { offsetInCU: 0x3204, offset: 0x17CB2C, size: 0x8, addend: 0x0, symName: __ZN4absl12lts_20220623L14PostSynchEventEPvi, symObjAddr: 0x2B3C, symBinAddr: 0x3402C, symSize: 0x168 }
  - { offsetInCU: 0x3416, offset: 0x17CD3E, size: 0x8, addend: 0x0, symName: __ZN4absl12lts_20220623L16ExactlyOneReaderEl, symObjAddr: 0x30A4, symBinAddr: 0x34594, symSize: 0x38 }
  - { offsetInCU: 0x3466, offset: 0x17CD8E, size: 0x8, addend: 0x0, symName: __ZN4absl12lts_20220623L23CheckForMutexCorruptionElPKc, symObjAddr: 0x30DC, symBinAddr: 0x345CC, symSize: 0x28 }
  - { offsetInCU: 0x348E, offset: 0x17CDB6, size: 0x8, addend: 0x0, symName: __ZN4absl12lts_20220623L7EnqueueEPNS0_13base_internal14PerThreadSynchEPNS0_15SynchWaitParamsEli, symObjAddr: 0x3104, symBinAddr: 0x345F4, symSize: 0x370 }
  - { offsetInCU: 0x38D4, offset: 0x17D1FC, size: 0x8, addend: 0x0, symName: __ZN4absl12lts_20220623L18DebugOnlyLockLeaveEPNS0_5MutexE, symObjAddr: 0x2EE8, symBinAddr: 0x343D8, symSize: 0x130 }
  - { offsetInCU: 0x39FF, offset: 0x17D327, size: 0x8, addend: 0x0, symName: __ZN4absl12lts_202206235Mutex12ReaderUnlockEv, symObjAddr: 0x3018, symBinAddr: 0x34508, symSize: 0x8C }
  - { offsetInCU: 0x3D2A, offset: 0x17D652, size: 0x8, addend: 0x0, symName: __ZN4absl12lts_20220623L11DereferenceEPv, symObjAddr: 0x3D90, symBinAddr: 0x3507C, symSize: 0x8 }
  - { offsetInCU: 0x8D6B, offset: 0x182693, size: 0x8, addend: 0x0, symName: _AbslInternalMutexYield_lts_20220623, symObjAddr: 0x0, symBinAddr: 0x31ED0, symSize: 0x18 }
  - { offsetInCU: 0x8DBC, offset: 0x1826E4, size: 0x8, addend: 0x0, symName: __ZN4absl12lts_2022062313base_internal10AtomicHookIPFvxEE5StoreES4_, symObjAddr: 0x28, symBinAddr: 0x31EF8, symSize: 0x58 }
  - { offsetInCU: 0x8E92, offset: 0x1827BA, size: 0x8, addend: 0x0, symName: __ZN4absl12lts_2022062319RegisterMutexTracerEPFvPKcPKvxE, symObjAddr: 0x80, symBinAddr: 0x31F50, symSize: 0x10 }
  - { offsetInCU: 0x8F35, offset: 0x18285D, size: 0x8, addend: 0x0, symName: __ZN4absl12lts_2022062313base_internal10AtomicHookIPFvxEE5StoreES4_.cold.1, symObjAddr: 0x40F8, symBinAddr: 0x55408, symSize: 0x24 }
  - { offsetInCU: 0x8F62, offset: 0x18288A, size: 0x8, addend: 0x0, symName: __ZN4absl12lts_2022062313base_internal10AtomicHookIPFvxEE5StoreES4_.cold.2, symObjAddr: 0x411C, symBinAddr: 0x5542C, symSize: 0x24 }
  - { offsetInCU: 0x8F7A, offset: 0x1828A2, size: 0x8, addend: 0x0, symName: __ZN4absl12lts_2022062313base_internal10AtomicHookIPFvPKcPKvxEE5StoreES8_, symObjAddr: 0x90, symBinAddr: 0x31F60, symSize: 0x58 }
  - { offsetInCU: 0x9050, offset: 0x182978, size: 0x8, addend: 0x0, symName: __ZN4absl12lts_2022062321RegisterCondVarTracerEPFvPKcPKvE, symObjAddr: 0xE8, symBinAddr: 0x31FB8, symSize: 0x10 }
  - { offsetInCU: 0x90F3, offset: 0x182A1B, size: 0x8, addend: 0x0, symName: __ZN4absl12lts_2022062313base_internal10AtomicHookIPFvPKcPKvxEE5StoreES8_.cold.1, symObjAddr: 0x4140, symBinAddr: 0x55450, symSize: 0x24 }
  - { offsetInCU: 0x9120, offset: 0x182A48, size: 0x8, addend: 0x0, symName: __ZN4absl12lts_2022062313base_internal10AtomicHookIPFvPKcPKvxEE5StoreES8_.cold.2, symObjAddr: 0x4164, symBinAddr: 0x55474, symSize: 0x24 }
  - { offsetInCU: 0x9138, offset: 0x182A60, size: 0x8, addend: 0x0, symName: __ZN4absl12lts_2022062313base_internal10AtomicHookIPFvPKcPKvEE5StoreES8_, symObjAddr: 0xF8, symBinAddr: 0x31FC8, symSize: 0x58 }
  - { offsetInCU: 0x920E, offset: 0x182B36, size: 0x8, addend: 0x0, symName: __ZN4absl12lts_2022062318RegisterSymbolizerEPFbPKvPciE, symObjAddr: 0x150, symBinAddr: 0x32020, symSize: 0x10 }
  - { offsetInCU: 0x92B1, offset: 0x182BD9, size: 0x8, addend: 0x0, symName: __ZN4absl12lts_2022062313base_internal10AtomicHookIPFvPKcPKvEE5StoreES8_.cold.1, symObjAddr: 0x4188, symBinAddr: 0x55498, symSize: 0x24 }
  - { offsetInCU: 0x92DE, offset: 0x182C06, size: 0x8, addend: 0x0, symName: __ZN4absl12lts_2022062313base_internal10AtomicHookIPFvPKcPKvEE5StoreES8_.cold.2, symObjAddr: 0x41AC, symBinAddr: 0x554BC, symSize: 0x24 }
  - { offsetInCU: 0x92F6, offset: 0x182C1E, size: 0x8, addend: 0x0, symName: __ZN4absl12lts_2022062313base_internal10AtomicHookIPFbPKvPciEE5StoreES7_, symObjAddr: 0x160, symBinAddr: 0x32030, symSize: 0x58 }
  - { offsetInCU: 0x93CC, offset: 0x182CF4, size: 0x8, addend: 0x0, symName: __ZN4absl12lts_2022062324synchronization_internal10MutexDelayEii, symObjAddr: 0x1B8, symBinAddr: 0x32088, symSize: 0xA0 }
  - { offsetInCU: 0x946F, offset: 0x182D97, size: 0x8, addend: 0x0, symName: __ZN4absl12lts_2022062313base_internal10AtomicHookIPFbPKvPciEE5StoreES7_.cold.1, symObjAddr: 0x41D0, symBinAddr: 0x554E0, symSize: 0x24 }
  - { offsetInCU: 0x949C, offset: 0x182DC4, size: 0x8, addend: 0x0, symName: __ZN4absl12lts_2022062313base_internal10AtomicHookIPFbPKvPciEE5StoreES7_.cold.2, symObjAddr: 0x41F4, symBinAddr: 0x55504, symSize: 0x24 }
  - { offsetInCU: 0x954C, offset: 0x182E74, size: 0x8, addend: 0x0, symName: __ZN4absl12lts_2022062313base_internal15SchedulingGuard12ScopedEnableD1Ev, symObjAddr: 0x258, symBinAddr: 0x32128, symSize: 0x68 }
  - { offsetInCU: 0x95E8, offset: 0x182F10, size: 0x8, addend: 0x0, symName: __ZN4absl12lts_202206235Mutex17IncrementSynchSemEPS1_PNS0_13base_internal14PerThreadSynchE, symObjAddr: 0x2C0, symBinAddr: 0x32190, symSize: 0x8 }
  - { offsetInCU: 0x9662, offset: 0x182F8A, size: 0x8, addend: 0x0, symName: __ZN4absl12lts_202206235Mutex17DecrementSynchSemEPS1_PNS0_13base_internal14PerThreadSynchENS0_24synchronization_internal13KernelTimeoutE, symObjAddr: 0x2C8, symBinAddr: 0x32198, symSize: 0x40 }
  - { offsetInCU: 0x9726, offset: 0x18304E, size: 0x8, addend: 0x0, symName: __ZN4absl12lts_202206235Mutex45InternalAttemptToUseMutexInFatalSignalHandlerEv, symObjAddr: 0x308, symBinAddr: 0x321D8, symSize: 0x2C }
  - { offsetInCU: 0x9743, offset: 0x18306B, size: 0x8, addend: 0x0, symName: __ZN4absl12lts_202206235Mutex17DecrementSynchSemEPS1_PNS0_13base_internal14PerThreadSynchENS0_24synchronization_internal13KernelTimeoutE.cold.1, symObjAddr: 0x4218, symBinAddr: 0x55528, symSize: 0x28 }
  - { offsetInCU: 0x9791, offset: 0x1830B9, size: 0x8, addend: 0x0, symName: __ZN4absl12lts_202206235Mutex45InternalAttemptToUseMutexInFatalSignalHandlerEv, symObjAddr: 0x308, symBinAddr: 0x321D8, symSize: 0x2C }
  - { offsetInCU: 0x9839, offset: 0x183161, size: 0x8, addend: 0x0, symName: __ZN4absl12lts_202206235MutexD2Ev, symObjAddr: 0x334, symBinAddr: 0x32204, symSize: 0x44 }
  - { offsetInCU: 0x98F6, offset: 0x18321E, size: 0x8, addend: 0x0, symName: __ZN4absl12lts_202206235Mutex18ForgetDeadlockInfoEv, symObjAddr: 0x5A4, symBinAddr: 0x32468, symSize: 0xC4 }
  - { offsetInCU: 0x9C4D, offset: 0x183575, size: 0x8, addend: 0x0, symName: __ZN4absl12lts_202206235MutexD1Ev, symObjAddr: 0x668, symBinAddr: 0x3252C, symSize: 0x4 }
  - { offsetInCU: 0x9C7B, offset: 0x1835A3, size: 0x8, addend: 0x0, symName: __ZN4absl12lts_202206235MutexD1Ev, symObjAddr: 0x668, symBinAddr: 0x3252C, symSize: 0x4 }
  - { offsetInCU: 0x9C8E, offset: 0x1835B6, size: 0x8, addend: 0x0, symName: __ZN4absl12lts_202206235Mutex14EnableDebugLogEPKc, symObjAddr: 0x66C, symBinAddr: 0x32530, symSize: 0x24 }
  - { offsetInCU: 0x9D72, offset: 0x18369A, size: 0x8, addend: 0x0, symName: __ZN4absl12lts_202206235Mutex24EnableInvariantDebuggingEPFvPvES2_, symObjAddr: 0x914, symBinAddr: 0x327D8, symSize: 0x54 }
  - { offsetInCU: 0x9EB4, offset: 0x1837DC, size: 0x8, addend: 0x0, symName: __ZN4absl12lts_202206235Mutex9TryRemoveEPNS0_13base_internal14PerThreadSynchE, symObjAddr: 0x978, symBinAddr: 0x3283C, symSize: 0x160 }
  - { offsetInCU: 0xA196, offset: 0x183ABE, size: 0x8, addend: 0x0, symName: __ZN4absl12lts_202206239Condition15GuaranteedEqualEPKS1_S3_, symObjAddr: 0x1D44, symBinAddr: 0x33A34, symSize: 0x8C }
  - { offsetInCU: 0xA1EB, offset: 0x183B13, size: 0x8, addend: 0x0, symName: __ZN4absl12lts_202206235Mutex5BlockEPNS0_13base_internal14PerThreadSynchE, symObjAddr: 0xB8C, symBinAddr: 0x32A50, symSize: 0x104 }
  - { offsetInCU: 0xA354, offset: 0x183C7C, size: 0x8, addend: 0x0, symName: __ZN4absl12lts_202206235Mutex6WakeupEPNS0_13base_internal14PerThreadSynchE, symObjAddr: 0xC90, symBinAddr: 0x32B54, symSize: 0x34 }
  - { offsetInCU: 0xA44E, offset: 0x183D76, size: 0x8, addend: 0x0, symName: __ZNK4absl12lts_202206235Mutex13AssertNotHeldEv, symObjAddr: 0xCC4, symBinAddr: 0x32B88, symSize: 0xE0 }
  - { offsetInCU: 0xA5F2, offset: 0x183F1A, size: 0x8, addend: 0x0, symName: __ZN4absl12lts_202206235Mutex4LockEv, symObjAddr: 0xFA0, symBinAddr: 0x32E64, symSize: 0xF0 }
  - { offsetInCU: 0xA8F2, offset: 0x18421A, size: 0x8, addend: 0x0, symName: __ZN4absl12lts_202206235Mutex4LockEv.cold.1, symObjAddr: 0x4240, symBinAddr: 0x55550, symSize: 0xC }
  - { offsetInCU: 0xAA0B, offset: 0x184333, size: 0x8, addend: 0x0, symName: __ZN4absl12lts_202206235Mutex8LockSlowEPKNS0_6MuHowSEPKNS0_9ConditionEi, symObjAddr: 0x14F0, symBinAddr: 0x54830, symSize: 0x5C }
  - { offsetInCU: 0xAAC8, offset: 0x1843F0, size: 0x8, addend: 0x0, symName: __ZN4absl12lts_202206235Mutex20LockSlowWithDeadlineEPKNS0_6MuHowSEPKNS0_9ConditionENS0_24synchronization_internal13KernelTimeoutEi, symObjAddr: 0x177C, symBinAddr: 0x33590, symSize: 0x14C }
  - { offsetInCU: 0xAE0D, offset: 0x184735, size: 0x8, addend: 0x0, symName: __ZN4absl12lts_202206235Mutex10ReaderLockEv, symObjAddr: 0x154C, symBinAddr: 0x333B4, symSize: 0x88 }
  - { offsetInCU: 0xAFAE, offset: 0x1848D6, size: 0x8, addend: 0x0, symName: __ZN4absl12lts_202206235Mutex10ReaderLockEv.cold.1, symObjAddr: 0x424C, symBinAddr: 0x5555C, symSize: 0xC }
  - { offsetInCU: 0xAFC6, offset: 0x1848EE, size: 0x8, addend: 0x0, symName: __ZN4absl12lts_202206235Mutex8LockWhenERKNS0_9ConditionE, symObjAddr: 0x15D4, symBinAddr: 0x5488C, symSize: 0x54 }
  - { offsetInCU: 0xB0AC, offset: 0x1849D4, size: 0x8, addend: 0x0, symName: _OUTLINED_FUNCTION_7, symObjAddr: 0x43F4, symBinAddr: 0x35440, symSize: 0xC }
  - { offsetInCU: 0xB0C4, offset: 0x1849EC, size: 0x8, addend: 0x0, symName: _OUTLINED_FUNCTION_3, symObjAddr: 0x43C0, symBinAddr: 0x3540C, symSize: 0x10 }
  - { offsetInCU: 0xB0DC, offset: 0x184A04, size: 0x8, addend: 0x0, symName: _OUTLINED_FUNCTION_1, symObjAddr: 0x43A8, symBinAddr: 0x353F4, symSize: 0xC }
  - { offsetInCU: 0xB0F4, offset: 0x184A1C, size: 0x8, addend: 0x0, symName: _OUTLINED_FUNCTION_8, symObjAddr: 0x4400, symBinAddr: 0x3544C, symSize: 0xC }
  - { offsetInCU: 0xB10C, offset: 0x184A34, size: 0x8, addend: 0x0, symName: __ZN4absl12lts_202206235Mutex19LockWhenWithTimeoutERKNS0_9ConditionENS0_8DurationE, symObjAddr: 0x1628, symBinAddr: 0x3343C, symSize: 0x3C }
  - { offsetInCU: 0xB188, offset: 0x184AB0, size: 0x8, addend: 0x0, symName: __ZN4absl12lts_202206235Mutex20LockWhenWithDeadlineERKNS0_9ConditionENS0_4TimeE, symObjAddr: 0x1664, symBinAddr: 0x33478, symSize: 0xC4 }
  - { offsetInCU: 0xB49A, offset: 0x184DC2, size: 0x8, addend: 0x0, symName: __ZN4absl12lts_202206235Mutex12LockSlowLoopEPNS0_15SynchWaitParamsEi, symObjAddr: 0x25D0, symBinAddr: 0x33AC0, symSize: 0x45C }
  - { offsetInCU: 0xBB50, offset: 0x185478, size: 0x8, addend: 0x0, symName: __ZN4absl12lts_202206235Mutex10UnlockSlowEPNS0_15SynchWaitParamsE, symObjAddr: 0x1DD0, symBinAddr: 0x54A04, symSize: 0x800 }
  - { offsetInCU: 0xC5EB, offset: 0x185F13, size: 0x8, addend: 0x0, symName: __ZN4absl12lts_202206235Mutex14ReaderLockWhenERKNS0_9ConditionE, symObjAddr: 0x18C8, symBinAddr: 0x548E0, symSize: 0x54 }
  - { offsetInCU: 0xC6D1, offset: 0x185FF9, size: 0x8, addend: 0x0, symName: __ZN4absl12lts_202206235Mutex25ReaderLockWhenWithTimeoutERKNS0_9ConditionENS0_8DurationE, symObjAddr: 0x191C, symBinAddr: 0x336DC, symSize: 0x3C }
  - { offsetInCU: 0xC74D, offset: 0x186075, size: 0x8, addend: 0x0, symName: __ZN4absl12lts_202206235Mutex26ReaderLockWhenWithDeadlineERKNS0_9ConditionENS0_4TimeE, symObjAddr: 0x1958, symBinAddr: 0x33718, symSize: 0xC4 }
  - { offsetInCU: 0xC8E1, offset: 0x186209, size: 0x8, addend: 0x0, symName: __ZN4absl12lts_202206235Mutex5AwaitERKNS0_9ConditionE, symObjAddr: 0x1A1C, symBinAddr: 0x337DC, symSize: 0x98 }
  - { offsetInCU: 0xC9AD, offset: 0x1862D5, size: 0x8, addend: 0x0, symName: __ZNK4absl12lts_202206235Mutex16AssertReaderHeldEv, symObjAddr: 0x1AC8, symBinAddr: 0x33888, symSize: 0x6C }
  - { offsetInCU: 0xCA7B, offset: 0x1863A3, size: 0x8, addend: 0x0, symName: __ZN4absl12lts_202206235Mutex11AwaitCommonERKNS0_9ConditionENS0_24synchronization_internal13KernelTimeoutE, symObjAddr: 0x1B34, symBinAddr: 0x54934, symSize: 0xD0 }
  - { offsetInCU: 0xCCFD, offset: 0x186625, size: 0x8, addend: 0x0, symName: __ZNK4absl12lts_202206239Condition4EvalEv, symObjAddr: 0x1AB4, symBinAddr: 0x33874, symSize: 0x14 }
  - { offsetInCU: 0xCD2B, offset: 0x186653, size: 0x8, addend: 0x0, symName: __ZN4absl12lts_202206235Mutex16AwaitWithTimeoutERKNS0_9ConditionENS0_8DurationE, symObjAddr: 0x1C04, symBinAddr: 0x338F4, symSize: 0x3C }
  - { offsetInCU: 0xCDA7, offset: 0x1866CF, size: 0x8, addend: 0x0, symName: __ZN4absl12lts_202206235Mutex17AwaitWithDeadlineERKNS0_9ConditionENS0_4TimeE, symObjAddr: 0x1C40, symBinAddr: 0x33930, symSize: 0x104 }
  - { offsetInCU: 0xD09D, offset: 0x1869C5, size: 0x8, addend: 0x0, symName: _OUTLINED_FUNCTION_0, symObjAddr: 0x4398, symBinAddr: 0x353E4, symSize: 0x10 }
  - { offsetInCU: 0xD0B5, offset: 0x1869DD, size: 0x8, addend: 0x0, symName: __ZN4absl12lts_202206235Mutex7TryLockEv, symObjAddr: 0x2A2C, symBinAddr: 0x33F1C, symSize: 0x110 }
  - { offsetInCU: 0xD397, offset: 0x186CBF, size: 0x8, addend: 0x0, symName: __ZN4absl12lts_202206235Mutex13ReaderTryLockEv, symObjAddr: 0x2CA4, symBinAddr: 0x34194, symSize: 0x148 }
  - { offsetInCU: 0xD6BE, offset: 0x186FE6, size: 0x8, addend: 0x0, symName: __ZN4absl12lts_202206235Mutex6UnlockEv, symObjAddr: 0x2DEC, symBinAddr: 0x342DC, symSize: 0xFC }
  - { offsetInCU: 0xD887, offset: 0x1871AF, size: 0x8, addend: 0x0, symName: __ZN4absl12lts_20220623L18DebugOnlyLockLeaveEPNS0_5MutexE.cold.1, symObjAddr: 0x4258, symBinAddr: 0x55568, symSize: 0x28 }
  - { offsetInCU: 0xD8B5, offset: 0x1871DD, size: 0x8, addend: 0x0, symName: __ZN4absl12lts_202206235Mutex12ReaderUnlockEv, symObjAddr: 0x3018, symBinAddr: 0x34508, symSize: 0x8C }
  - { offsetInCU: 0xD9EE, offset: 0x187316, size: 0x8, addend: 0x0, symName: __ZN4absl12lts_20220623L16ExactlyOneReaderEl, symObjAddr: 0x30A4, symBinAddr: 0x34594, symSize: 0x38 }
  - { offsetInCU: 0xD9F9, offset: 0x187321, size: 0x8, addend: 0x0, symName: __ZN4absl12lts_202206235Mutex12ReaderUnlockEv.cold.1, symObjAddr: 0x4280, symBinAddr: 0x55590, symSize: 0x28 }
  - { offsetInCU: 0xDA11, offset: 0x187339, size: 0x8, addend: 0x0, symName: __ZN4absl12lts_20220623L16ExactlyOneReaderEl.cold.2, symObjAddr: 0x42D0, symBinAddr: 0x555E0, symSize: 0x28 }
  - { offsetInCU: 0xDA29, offset: 0x187351, size: 0x8, addend: 0x0, symName: __ZN4absl12lts_20220623L16ExactlyOneReaderEl.cold.1, symObjAddr: 0x42A8, symBinAddr: 0x555B8, symSize: 0x28 }
  - { offsetInCU: 0xDA41, offset: 0x187369, size: 0x8, addend: 0x0, symName: __ZN4absl12lts_20220623L23CheckForMutexCorruptionElPKc.cold.1, symObjAddr: 0x42F8, symBinAddr: 0x55608, symSize: 0xA0 }
  - { offsetInCU: 0xDB42, offset: 0x18746A, size: 0x8, addend: 0x0, symName: __ZN4absl12lts_202206235Mutex5TransEPKNS0_6MuHowSE, symObjAddr: 0x3474, symBinAddr: 0x55204, symSize: 0xC }
  - { offsetInCU: 0xDBE1, offset: 0x187509, size: 0x8, addend: 0x0, symName: __ZN4absl12lts_202206235Mutex3FerEPNS0_13base_internal14PerThreadSynchE, symObjAddr: 0x3480, symBinAddr: 0x34964, symSize: 0x2BC }
  - { offsetInCU: 0xE064, offset: 0x18798C, size: 0x8, addend: 0x0, symName: __ZNK4absl12lts_202206235Mutex10AssertHeldEv, symObjAddr: 0x373C, symBinAddr: 0x34C20, symSize: 0x64 }
  - { offsetInCU: 0xE148, offset: 0x187A70, size: 0x8, addend: 0x0, symName: __ZN4absl12lts_202206237CondVar14EnableDebugLogEPKc, symObjAddr: 0x37A0, symBinAddr: 0x34C84, symSize: 0x2C }
  - { offsetInCU: 0xE1C5, offset: 0x187AED, size: 0x8, addend: 0x0, symName: __ZN4absl12lts_202206237CondVarD2Ev, symObjAddr: 0x37CC, symBinAddr: 0x34CB0, symSize: 0x3C }
  - { offsetInCU: 0xE256, offset: 0x187B7E, size: 0x8, addend: 0x0, symName: __ZN4absl12lts_202206237CondVarD1Ev, symObjAddr: 0x3808, symBinAddr: 0x34CEC, symSize: 0x4 }
  - { offsetInCU: 0xE284, offset: 0x187BAC, size: 0x8, addend: 0x0, symName: __ZN4absl12lts_202206237CondVarD1Ev, symObjAddr: 0x3808, symBinAddr: 0x34CEC, symSize: 0x4 }
  - { offsetInCU: 0xE297, offset: 0x187BBF, size: 0x8, addend: 0x0, symName: __ZN4absl12lts_202206237CondVar6RemoveEPNS0_13base_internal14PerThreadSynchE, symObjAddr: 0x380C, symBinAddr: 0x34CF0, symSize: 0xAC }
  - { offsetInCU: 0xE578, offset: 0x187EA0, size: 0x8, addend: 0x0, symName: __ZN4absl12lts_202206237CondVar10WaitCommonEPNS0_5MutexENS0_24synchronization_internal13KernelTimeoutE, symObjAddr: 0x38B8, symBinAddr: 0x55210, symSize: 0x184 }
  - { offsetInCU: 0xE9C9, offset: 0x1882F1, size: 0x8, addend: 0x0, symName: _OUTLINED_FUNCTION_6, symObjAddr: 0x43E0, symBinAddr: 0x3542C, symSize: 0x14 }
  - { offsetInCU: 0xE9E1, offset: 0x188309, size: 0x8, addend: 0x0, symName: __ZN4absl12lts_202206237CondVar15WaitWithTimeoutEPNS0_5MutexENS0_8DurationE, symObjAddr: 0x3A3C, symBinAddr: 0x34D9C, symSize: 0x3C }
  - { offsetInCU: 0xEA5D, offset: 0x188385, size: 0x8, addend: 0x0, symName: __ZN4absl12lts_202206237CondVar16WaitWithDeadlineEPNS0_5MutexENS0_4TimeE, symObjAddr: 0x3A78, symBinAddr: 0x55394, symSize: 0x6C }
  - { offsetInCU: 0xEB3D, offset: 0x188465, size: 0x8, addend: 0x0, symName: __ZN4absl12lts_202206237CondVar4WaitEPNS0_5MutexE, symObjAddr: 0x3AE4, symBinAddr: 0x55400, symSize: 0x8 }
  - { offsetInCU: 0xEB95, offset: 0x1884BD, size: 0x8, addend: 0x0, symName: __ZN4absl12lts_202206237CondVar6WakeupEPNS0_13base_internal14PerThreadSynchE, symObjAddr: 0x3AEC, symBinAddr: 0x34DD8, symSize: 0x2C }
  - { offsetInCU: 0xECFE, offset: 0x188626, size: 0x8, addend: 0x0, symName: __ZN4absl12lts_202206237CondVar6SignalEv, symObjAddr: 0x3B18, symBinAddr: 0x34E04, symSize: 0xD8 }
  - { offsetInCU: 0xEFD5, offset: 0x1888FD, size: 0x8, addend: 0x0, symName: __ZN4absl12lts_202206237CondVar9SignalAllEv, symObjAddr: 0x3BF0, symBinAddr: 0x34EDC, symSize: 0xD0 }
  - { offsetInCU: 0xF24A, offset: 0x188B72, size: 0x8, addend: 0x0, symName: __ZN4absl12lts_2022062319ReleasableMutexLock7ReleaseEv, symObjAddr: 0x3CC0, symBinAddr: 0x34FAC, symSize: 0x6C }
  - { offsetInCU: 0xF2B5, offset: 0x188BDD, size: 0x8, addend: 0x0, symName: __ZN4absl12lts_202206239ConditionC2Ev, symObjAddr: 0x3D2C, symBinAddr: 0x35018, symSize: 0x4 }
  - { offsetInCU: 0xF2E1, offset: 0x188C09, size: 0x8, addend: 0x0, symName: __ZN4absl12lts_202206239ConditionC1Ev, symObjAddr: 0x3D30, symBinAddr: 0x3501C, symSize: 0x4 }
  - { offsetInCU: 0xF30D, offset: 0x188C35, size: 0x8, addend: 0x0, symName: __ZN4absl12lts_202206239ConditionC2EPFbPvES2_, symObjAddr: 0x3D34, symBinAddr: 0x35020, symSize: 0x18 }
  - { offsetInCU: 0xF33B, offset: 0x188C63, size: 0x8, addend: 0x0, symName: __ZN4absl12lts_202206239Condition19CallVoidPtrFunctionEPKS1_, symObjAddr: 0x3D4C, symBinAddr: 0x35038, symSize: 0xC }
  - { offsetInCU: 0xF3A9, offset: 0x188CD1, size: 0x8, addend: 0x0, symName: __ZN4absl12lts_202206239ConditionC1EPFbPvES2_, symObjAddr: 0x3D58, symBinAddr: 0x35044, symSize: 0x18 }
  - { offsetInCU: 0xF3F5, offset: 0x188D1D, size: 0x8, addend: 0x0, symName: __ZN4absl12lts_202206239ConditionC1EPFbPvES2_, symObjAddr: 0x3D58, symBinAddr: 0x35044, symSize: 0x18 }
  - { offsetInCU: 0xF41E, offset: 0x188D46, size: 0x8, addend: 0x0, symName: __ZN4absl12lts_202206239ConditionC2EPKb, symObjAddr: 0x3D70, symBinAddr: 0x3505C, symSize: 0x20 }
  - { offsetInCU: 0xF46E, offset: 0x188D96, size: 0x8, addend: 0x0, symName: __ZN4absl12lts_202206239ConditionC1EPKb, symObjAddr: 0x3D98, symBinAddr: 0x35084, symSize: 0x20 }
  - { offsetInCU: 0xF4AB, offset: 0x188DD3, size: 0x8, addend: 0x0, symName: __ZN4absl12lts_202206239ConditionC1EPKb, symObjAddr: 0x3D98, symBinAddr: 0x35084, symSize: 0x20 }
  - { offsetInCU: 0xF4CD, offset: 0x188DF5, size: 0x8, addend: 0x0, symName: __ZN4absl12lts_2022062313base_internal10AtomicHookIPFvxEE13DummyFunctionEx, symObjAddr: 0x3DB8, symBinAddr: 0x350A4, symSize: 0x4 }
  - { offsetInCU: 0xF4EC, offset: 0x188E14, size: 0x8, addend: 0x0, symName: __ZN4absl12lts_2022062313base_internal10AtomicHookIPFvPKcPKvxEE13DummyFunctionES4_S6_x, symObjAddr: 0x3DBC, symBinAddr: 0x350A8, symSize: 0x4 }
  - { offsetInCU: 0xF51F, offset: 0x188E47, size: 0x8, addend: 0x0, symName: __ZN4absl12lts_2022062313base_internal10AtomicHookIPFvPKcPKvEE13DummyFunctionES4_S6_, symObjAddr: 0x3DC0, symBinAddr: 0x350AC, symSize: 0x4 }
  - { offsetInCU: 0xF6A5, offset: 0x188FCD, size: 0x8, addend: 0x0, symName: _OUTLINED_FUNCTION_2, symObjAddr: 0x43B4, symBinAddr: 0x35400, symSize: 0xC }
  - { offsetInCU: 0xF6BD, offset: 0x188FE5, size: 0x8, addend: 0x0, symName: _OUTLINED_FUNCTION_4, symObjAddr: 0x43D0, symBinAddr: 0x3541C, symSize: 0x8 }
  - { offsetInCU: 0xF6D5, offset: 0x188FFD, size: 0x8, addend: 0x0, symName: _OUTLINED_FUNCTION_5, symObjAddr: 0x43D8, symBinAddr: 0x35424, symSize: 0x8 }
  - { offsetInCU: 0xF6E, offset: 0x189FCD, size: 0x8, addend: 0x0, symName: __ZN4absl12lts_202206239Condition19CastAndCallFunctionIKNSt3__16atomicIbEEEEbPKS1_, symObjAddr: 0x218, symBinAddr: 0x35664, symSize: 0xC }
  - { offsetInCU: 0x2F71, offset: 0x18BFD0, size: 0x8, addend: 0x0, symName: __ZN4absl12lts_2022062312Notification6NotifyEv, symObjAddr: 0x0, symBinAddr: 0x35458, symSize: 0x84 }
  - { offsetInCU: 0x30E6, offset: 0x18C145, size: 0x8, addend: 0x0, symName: __ZN4absl12lts_2022062312NotificationD2Ev, symObjAddr: 0x84, symBinAddr: 0x354DC, symSize: 0x34 }
  - { offsetInCU: 0x317D, offset: 0x18C1DC, size: 0x8, addend: 0x0, symName: __ZN4absl12lts_2022062312NotificationD1Ev, symObjAddr: 0xC4, symBinAddr: 0x35510, symSize: 0x4 }
  - { offsetInCU: 0x31AB, offset: 0x18C20A, size: 0x8, addend: 0x0, symName: __ZN4absl12lts_2022062312NotificationD1Ev, symObjAddr: 0xC4, symBinAddr: 0x35510, symSize: 0x4 }
  - { offsetInCU: 0x324A, offset: 0x18C2A9, size: 0x8, addend: 0x0, symName: __ZNK4absl12lts_2022062312Notification19WaitForNotificationEv, symObjAddr: 0xC8, symBinAddr: 0x35514, symSize: 0x5C }
  - { offsetInCU: 0x3331, offset: 0x18C390, size: 0x8, addend: 0x0, symName: __ZN4absl12lts_2022062312Notification23HasBeenNotifiedInternalEPKNSt3__16atomicIbEE, symObjAddr: 0x124, symBinAddr: 0x35570, symSize: 0xC }
  - { offsetInCU: 0x3351, offset: 0x18C3B0, size: 0x8, addend: 0x0, symName: __ZN4absl12lts_2022062312Notification23HasBeenNotifiedInternalEPKNSt3__16atomicIbEE, symObjAddr: 0x124, symBinAddr: 0x35570, symSize: 0xC }
  - { offsetInCU: 0x3372, offset: 0x18C3D1, size: 0x8, addend: 0x0, symName: __ZN4absl12lts_2022062312Notification23HasBeenNotifiedInternalEPKNSt3__16atomicIbEE, symObjAddr: 0x124, symBinAddr: 0x35570, symSize: 0xC }
  - { offsetInCU: 0x3392, offset: 0x18C3F1, size: 0x8, addend: 0x0, symName: __ZNK4absl12lts_2022062312Notification30WaitForNotificationWithTimeoutENS0_8DurationE, symObjAddr: 0x130, symBinAddr: 0x3557C, symSize: 0x74 }
  - { offsetInCU: 0x3492, offset: 0x18C4F1, size: 0x8, addend: 0x0, symName: __ZNK4absl12lts_2022062312Notification31WaitForNotificationWithDeadlineENS0_4TimeE, symObjAddr: 0x1A4, symBinAddr: 0x355F0, symSize: 0x74 }
  - { offsetInCU: 0x26, offset: 0x18C626, size: 0x8, addend: 0x0, symName: __ZN4absl12lts_2022062310SimpleAtofENS0_11string_viewEPf, symObjAddr: 0x0, symBinAddr: 0x35670, symSize: 0x13C }
  - { offsetInCU: 0x62, offset: 0x18C662, size: 0x8, addend: 0x0, symName: __ZN4absl12lts_2022062316numbers_internal8kHexCharE, symObjAddr: 0x209E, symBinAddr: 0x5B39E, symSize: 0x0 }
  - { offsetInCU: 0x7D, offset: 0x18C67D, size: 0x8, addend: 0x0, symName: __ZN4absl12lts_2022062316numbers_internal9kHexTableE, symObjAddr: 0x20AF, symBinAddr: 0x5B3AF, symSize: 0x0 }
  - { offsetInCU: 0x98, offset: 0x18C698, size: 0x8, addend: 0x0, symName: __ZN4absl12lts_2022062316numbers_internal16two_ASCII_digitsE, symObjAddr: 0x22B0, symBinAddr: 0x5B5B0, symSize: 0x0 }
  - { offsetInCU: 0xC9, offset: 0x18C6C9, size: 0x8, addend: 0x0, symName: __ZN4absl12lts_2022062316numbers_internal15FastIntToBufferEjPc, symObjAddr: 0x42C, symBinAddr: 0x35A9C, symSize: 0x1CC }
  - { offsetInCU: 0x205, offset: 0x18C805, size: 0x8, addend: 0x0, symName: __ZN4absl12lts_2022062316numbers_internal15FastIntToBufferEiPc, symObjAddr: 0x5F8, symBinAddr: 0x35C68, symSize: 0x18 }
  - { offsetInCU: 0x20F, offset: 0x18C80F, size: 0x8, addend: 0x0, symName: __ZN4absl12lts_2022062316numbers_internal15FastIntToBufferEiPc, symObjAddr: 0x5F8, symBinAddr: 0x35C68, symSize: 0x18 }
  - { offsetInCU: 0x272, offset: 0x18C872, size: 0x8, addend: 0x0, symName: __ZN4absl12lts_2022062316numbers_internal15FastIntToBufferEyPc, symObjAddr: 0x610, symBinAddr: 0x35C80, symSize: 0x19C }
  - { offsetInCU: 0x3FF, offset: 0x18C9FF, size: 0x8, addend: 0x0, symName: __ZN4absl12lts_2022062316numbers_internal15FastIntToBufferExPc, symObjAddr: 0x7AC, symBinAddr: 0x35E1C, symSize: 0x18 }
  - { offsetInCU: 0x409, offset: 0x18CA09, size: 0x8, addend: 0x0, symName: __ZN4absl12lts_2022062316numbers_internal15FastIntToBufferExPc, symObjAddr: 0x7AC, symBinAddr: 0x35E1C, symSize: 0x18 }
  - { offsetInCU: 0x470, offset: 0x18CA70, size: 0x8, addend: 0x0, symName: __ZN4absl12lts_2022062316numbers_internal17SixDigitsToBufferEdPc, symObjAddr: 0x7C4, symBinAddr: 0x35E34, symSize: 0x764 }
  - { offsetInCU: 0x6AC, offset: 0x18CCAC, size: 0x8, addend: 0x0, symName: __ZN4absl12lts_2022062316numbers_internal17safe_strto32_baseENS0_11string_viewEPii, symObjAddr: 0xF28, symBinAddr: 0x36598, symSize: 0x18C }
  - { offsetInCU: 0x82D, offset: 0x18CE2D, size: 0x8, addend: 0x0, symName: __ZN4absl12lts_2022062316numbers_internal17safe_strto64_baseENS0_11string_viewEPxi, symObjAddr: 0x10B4, symBinAddr: 0x36724, symSize: 0x18C }
  - { offsetInCU: 0x837, offset: 0x18CE37, size: 0x8, addend: 0x0, symName: __ZN4absl12lts_2022062316numbers_internal17safe_strto64_baseENS0_11string_viewEPxi, symObjAddr: 0x10B4, symBinAddr: 0x36724, symSize: 0x18C }
  - { offsetInCU: 0x9B8, offset: 0x18CFB8, size: 0x8, addend: 0x0, symName: __ZN4absl12lts_2022062316numbers_internal18safe_strto128_baseENS0_11string_viewEPNS0_6int128Ei, symObjAddr: 0x1240, symBinAddr: 0x368B0, symSize: 0x278 }
  - { offsetInCU: 0x9C2, offset: 0x18CFC2, size: 0x8, addend: 0x0, symName: __ZN4absl12lts_2022062316numbers_internal18safe_strto128_baseENS0_11string_viewEPNS0_6int128Ei, symObjAddr: 0x1240, symBinAddr: 0x368B0, symSize: 0x278 }
  - { offsetInCU: 0xE56, offset: 0x18D456, size: 0x8, addend: 0x0, symName: __ZN4absl12lts_2022062316numbers_internal18safe_strtou32_baseENS0_11string_viewEPji, symObjAddr: 0x14B8, symBinAddr: 0x36B28, symSize: 0xFC }
  - { offsetInCU: 0xE60, offset: 0x18D460, size: 0x8, addend: 0x0, symName: __ZN4absl12lts_2022062316numbers_internal18safe_strtou32_baseENS0_11string_viewEPji, symObjAddr: 0x14B8, symBinAddr: 0x36B28, symSize: 0xFC }
  - { offsetInCU: 0xF70, offset: 0x18D570, size: 0x8, addend: 0x0, symName: __ZN4absl12lts_2022062316numbers_internal18safe_strtou64_baseENS0_11string_viewEPyi, symObjAddr: 0x15B4, symBinAddr: 0x36C24, symSize: 0x100 }
  - { offsetInCU: 0xF7A, offset: 0x18D57A, size: 0x8, addend: 0x0, symName: __ZN4absl12lts_2022062316numbers_internal18safe_strtou64_baseENS0_11string_viewEPyi, symObjAddr: 0x15B4, symBinAddr: 0x36C24, symSize: 0x100 }
  - { offsetInCU: 0x108A, offset: 0x18D68A, size: 0x8, addend: 0x0, symName: __ZN4absl12lts_2022062316numbers_internal19safe_strtou128_baseENS0_11string_viewEPNS0_7uint128Ei, symObjAddr: 0x16B4, symBinAddr: 0x36D24, symSize: 0x170 }
  - { offsetInCU: 0x1094, offset: 0x18D694, size: 0x8, addend: 0x0, symName: __ZN4absl12lts_2022062316numbers_internal19safe_strtou128_baseENS0_11string_viewEPNS0_7uint128Ei, symObjAddr: 0x16B4, symBinAddr: 0x36D24, symSize: 0x170 }
  - { offsetInCU: 0x1392, offset: 0x18D992, size: 0x8, addend: 0x0, symName: __ZN4absl12lts_2022062312_GLOBAL__N_122one_ASCII_final_digitsE, symObjAddr: 0x208A, symBinAddr: 0x5B38A, symSize: 0x0 }
  - { offsetInCU: 0x13AA, offset: 0x18D9AA, size: 0x8, addend: 0x0, symName: __ZN4absl12lts_2022062312_GLOBAL__N_112LookupTablesIiE13kVmaxOverBaseE, symObjAddr: 0x24AC, symBinAddr: 0x5B7AC, symSize: 0x0 }
  - { offsetInCU: 0x13F3, offset: 0x18D9F3, size: 0x8, addend: 0x0, symName: __ZN4absl12lts_2022062312_GLOBAL__N_111kAsciiToIntE, symObjAddr: 0x23AC, symBinAddr: 0x5B6AC, symSize: 0x0 }
  - { offsetInCU: 0x140B, offset: 0x18DA0B, size: 0x8, addend: 0x0, symName: __ZN4absl12lts_2022062312_GLOBAL__N_112LookupTablesIiE13kVminOverBaseE, symObjAddr: 0x2540, symBinAddr: 0x5B840, symSize: 0x0 }
  - { offsetInCU: 0x1423, offset: 0x18DA23, size: 0x8, addend: 0x0, symName: __ZN4absl12lts_2022062312_GLOBAL__N_112LookupTablesIxE13kVmaxOverBaseE, symObjAddr: 0x25D8, symBinAddr: 0x5B8D8, symSize: 0x0 }
  - { offsetInCU: 0x1469, offset: 0x18DA69, size: 0x8, addend: 0x0, symName: __ZN4absl12lts_2022062312_GLOBAL__N_112LookupTablesIxE13kVminOverBaseE, symObjAddr: 0x2700, symBinAddr: 0x5BA00, symSize: 0x0 }
  - { offsetInCU: 0x1481, offset: 0x18DA81, size: 0x8, addend: 0x0, symName: __ZN4absl12lts_2022062312_GLOBAL__N_112LookupTablesINS0_6int128EE13kVmaxOverBaseE, symObjAddr: 0x2830, symBinAddr: 0x5BB30, symSize: 0x0 }
  - { offsetInCU: 0x14C7, offset: 0x18DAC7, size: 0x8, addend: 0x0, symName: __ZN4absl12lts_2022062312_GLOBAL__N_112LookupTablesINS0_6int128EE13kVminOverBaseE, symObjAddr: 0x2A80, symBinAddr: 0x5BD80, symSize: 0x0 }
  - { offsetInCU: 0x14DF, offset: 0x18DADF, size: 0x8, addend: 0x0, symName: __ZN4absl12lts_2022062312_GLOBAL__N_112LookupTablesIjE13kVmaxOverBaseE, symObjAddr: 0x2CD0, symBinAddr: 0x5BFD0, symSize: 0x0 }
  - { offsetInCU: 0x1525, offset: 0x18DB25, size: 0x8, addend: 0x0, symName: __ZN4absl12lts_2022062312_GLOBAL__N_112LookupTablesIyE13kVmaxOverBaseE, symObjAddr: 0x2D68, symBinAddr: 0x5C068, symSize: 0x0 }
  - { offsetInCU: 0x156B, offset: 0x18DB6B, size: 0x8, addend: 0x0, symName: __ZN4absl12lts_2022062312_GLOBAL__N_112LookupTablesINS0_7uint128EE13kVmaxOverBaseE, symObjAddr: 0x2E90, symBinAddr: 0x5C190, symSize: 0x0 }
  - { offsetInCU: 0x171C, offset: 0x18DD1C, size: 0x8, addend: 0x0, symName: __ZN4absl12lts_2022062312_GLOBAL__N_124safe_parse_sign_and_baseEPNS0_11string_viewEPiPb, symObjAddr: 0x195C, symBinAddr: 0x36F88, symSize: 0x190 }
  - { offsetInCU: 0x186D, offset: 0x18DE6D, size: 0x8, addend: 0x0, symName: __ZN4absl12lts_2022062316numbers_internal15FastIntToBufferEjPc.cold.1, symObjAddr: 0x1AEC, symBinAddr: 0x556A8, symSize: 0x24 }
  - { offsetInCU: 0x1EAD, offset: 0x18E4AD, size: 0x8, addend: 0x0, symName: __ZN4absl12lts_2022062310SimpleAtofENS0_11string_viewEPf, symObjAddr: 0x0, symBinAddr: 0x35670, symSize: 0x13C }
  - { offsetInCU: 0x2067, offset: 0x18E667, size: 0x8, addend: 0x0, symName: __ZN4absl12lts_2022062310SimpleAtodENS0_11string_viewEPd, symObjAddr: 0x13C, symBinAddr: 0x357AC, symSize: 0x13C }
  - { offsetInCU: 0x2221, offset: 0x18E821, size: 0x8, addend: 0x0, symName: __ZN4absl12lts_2022062310SimpleAtobENS0_11string_viewEPb, symObjAddr: 0x278, symBinAddr: 0x358E8, symSize: 0x1B4 }
  - { offsetInCU: 0x24CD, offset: 0x18EACD, size: 0x8, addend: 0x0, symName: __ZN4absl12lts_20220623L7PowFiveEyi, symObjAddr: 0x1868, symBinAddr: 0x36E94, symSize: 0x8C }
  - { offsetInCU: 0x288D, offset: 0x18EE8D, size: 0x8, addend: 0x0, symName: __ZN4absl12lts_20220623L5Mul32ENSt3__14pairIyyEEj, symObjAddr: 0x18F4, symBinAddr: 0x36F20, symSize: 0x68 }
  - { offsetInCU: 0x5729, offset: 0x191D29, size: 0x8, addend: 0x0, symName: __ZN4absl12lts_20220623L7PowFiveEyi, symObjAddr: 0x1868, symBinAddr: 0x36E94, symSize: 0x8C }
  - { offsetInCU: 0x5740, offset: 0x191D40, size: 0x8, addend: 0x0, symName: __ZN4absl12lts_2022062316numbers_internal15FastIntToBufferEjPc.cold.4, symObjAddr: 0x1B58, symBinAddr: 0x55714, symSize: 0x24 }
  - { offsetInCU: 0x576D, offset: 0x191D6D, size: 0x8, addend: 0x0, symName: __ZN4absl12lts_2022062316numbers_internal15FastIntToBufferEjPc.cold.3, symObjAddr: 0x1B34, symBinAddr: 0x556F0, symSize: 0x24 }
  - { offsetInCU: 0x579A, offset: 0x191D9A, size: 0x8, addend: 0x0, symName: __ZN4absl12lts_2022062316numbers_internal15FastIntToBufferEjPc.cold.1, symObjAddr: 0x1AEC, symBinAddr: 0x556A8, symSize: 0x24 }
  - { offsetInCU: 0x57C7, offset: 0x191DC7, size: 0x8, addend: 0x0, symName: __ZN4absl12lts_2022062316numbers_internal15FastIntToBufferEjPc.cold.2, symObjAddr: 0x1B10, symBinAddr: 0x556CC, symSize: 0x24 }
  - { offsetInCU: 0x57F4, offset: 0x191DF4, size: 0x8, addend: 0x0, symName: __ZN4absl12lts_2022062316numbers_internal15FastIntToBufferEyPc.cold.1, symObjAddr: 0x1B7C, symBinAddr: 0x55738, symSize: 0x24 }
  - { offsetInCU: 0x5821, offset: 0x191E21, size: 0x8, addend: 0x0, symName: __ZN4absl12lts_2022062316numbers_internal15FastIntToBufferEyPc.cold.2, symObjAddr: 0x1BA0, symBinAddr: 0x5575C, symSize: 0x24 }
  - { offsetInCU: 0x584F, offset: 0x191E4F, size: 0x8, addend: 0x0, symName: __ZN4absl12lts_2022062316numbers_internal15FastIntToBufferEyPc.cold.3, symObjAddr: 0x1BC4, symBinAddr: 0x55780, symSize: 0x24 }
  - { offsetInCU: 0x587D, offset: 0x191E7D, size: 0x8, addend: 0x0, symName: __ZN4absl12lts_2022062316numbers_internal15FastIntToBufferEyPc.cold.4, symObjAddr: 0x1BE8, symBinAddr: 0x557A4, symSize: 0x24 }
  - { offsetInCU: 0x58AB, offset: 0x191EAB, size: 0x8, addend: 0x0, symName: __ZN4absl12lts_2022062316numbers_internal15FastIntToBufferEyPc.cold.5, symObjAddr: 0x1C0C, symBinAddr: 0x557C8, symSize: 0x24 }
  - { offsetInCU: 0x5921, offset: 0x191F21, size: 0x8, addend: 0x0, symName: __ZN4absl12lts_2022062316numbers_internal17SixDigitsToBufferEdPc.cold.1, symObjAddr: 0x1C30, symBinAddr: 0x557EC, symSize: 0x24 }
  - { offsetInCU: 0x5965, offset: 0x191F65, size: 0x8, addend: 0x0, symName: __ZN4absl12lts_2022062316numbers_internal17SixDigitsToBufferEdPc.cold.2, symObjAddr: 0x1C54, symBinAddr: 0x55810, symSize: 0x24 }
  - { offsetInCU: 0x59A9, offset: 0x191FA9, size: 0x8, addend: 0x0, symName: __ZN4absl12lts_2022062316numbers_internal17SixDigitsToBufferEdPc.cold.3, symObjAddr: 0x1C78, symBinAddr: 0x55834, symSize: 0x24 }
  - { offsetInCU: 0x59ED, offset: 0x191FED, size: 0x8, addend: 0x0, symName: __ZN4absl12lts_2022062316numbers_internal17SixDigitsToBufferEdPc.cold.4, symObjAddr: 0x1C9C, symBinAddr: 0x55858, symSize: 0x28 }
  - { offsetInCU: 0x5A05, offset: 0x192005, size: 0x8, addend: 0x0, symName: __ZN4absl12lts_2022062316numbers_internal17SixDigitsToBufferEdPc.cold.5, symObjAddr: 0x1CC4, symBinAddr: 0x55880, symSize: 0x24 }
  - { offsetInCU: 0x5A33, offset: 0x192033, size: 0x8, addend: 0x0, symName: __ZN4absl12lts_2022062316numbers_internal17safe_strto32_baseENS0_11string_viewEPii.cold.1, symObjAddr: 0x1CE8, symBinAddr: 0x558A4, symSize: 0x24 }
  - { offsetInCU: 0x5A77, offset: 0x192077, size: 0x8, addend: 0x0, symName: __ZN4absl12lts_2022062316numbers_internal17safe_strto32_baseENS0_11string_viewEPii.cold.3, symObjAddr: 0x1D30, symBinAddr: 0x558EC, symSize: 0x24 }
  - { offsetInCU: 0x5ABB, offset: 0x1920BB, size: 0x8, addend: 0x0, symName: __ZN4absl12lts_2022062316numbers_internal17safe_strto32_baseENS0_11string_viewEPii.cold.2, symObjAddr: 0x1D0C, symBinAddr: 0x558C8, symSize: 0x24 }
  - { offsetInCU: 0x5B04, offset: 0x192104, size: 0x8, addend: 0x0, symName: __ZN4absl12lts_2022062316numbers_internal17safe_strto64_baseENS0_11string_viewEPxi.cold.1, symObjAddr: 0x1D54, symBinAddr: 0x55910, symSize: 0x24 }
  - { offsetInCU: 0x5B48, offset: 0x192148, size: 0x8, addend: 0x0, symName: __ZN4absl12lts_2022062316numbers_internal17safe_strto64_baseENS0_11string_viewEPxi.cold.3, symObjAddr: 0x1D9C, symBinAddr: 0x55958, symSize: 0x24 }
  - { offsetInCU: 0x5B8C, offset: 0x19218C, size: 0x8, addend: 0x0, symName: __ZN4absl12lts_2022062316numbers_internal17safe_strto64_baseENS0_11string_viewEPxi.cold.2, symObjAddr: 0x1D78, symBinAddr: 0x55934, symSize: 0x24 }
  - { offsetInCU: 0x5CB3, offset: 0x1922B3, size: 0x8, addend: 0x0, symName: __ZN4absl12lts_2022062316numbers_internal18safe_strto128_baseENS0_11string_viewEPNS0_6int128Ei.cold.1, symObjAddr: 0x1DC0, symBinAddr: 0x5597C, symSize: 0x24 }
  - { offsetInCU: 0x5CF7, offset: 0x1922F7, size: 0x8, addend: 0x0, symName: __ZN4absl12lts_2022062316numbers_internal18safe_strto128_baseENS0_11string_viewEPNS0_6int128Ei.cold.3, symObjAddr: 0x1E08, symBinAddr: 0x559C4, symSize: 0x24 }
  - { offsetInCU: 0x5D3B, offset: 0x19233B, size: 0x8, addend: 0x0, symName: __ZN4absl12lts_2022062316numbers_internal18safe_strto128_baseENS0_11string_viewEPNS0_6int128Ei.cold.2, symObjAddr: 0x1DE4, symBinAddr: 0x559A0, symSize: 0x24 }
  - { offsetInCU: 0x5D84, offset: 0x192384, size: 0x8, addend: 0x0, symName: __ZN4absl12lts_2022062316numbers_internal18safe_strtou32_baseENS0_11string_viewEPji.cold.1, symObjAddr: 0x1E2C, symBinAddr: 0x559E8, symSize: 0x24 }
  - { offsetInCU: 0x5DC8, offset: 0x1923C8, size: 0x8, addend: 0x0, symName: __ZN4absl12lts_2022062316numbers_internal18safe_strtou32_baseENS0_11string_viewEPji.cold.2, symObjAddr: 0x1E50, symBinAddr: 0x55A0C, symSize: 0x24 }
  - { offsetInCU: 0x5E11, offset: 0x192411, size: 0x8, addend: 0x0, symName: __ZN4absl12lts_2022062316numbers_internal18safe_strtou64_baseENS0_11string_viewEPyi.cold.1, symObjAddr: 0x1E74, symBinAddr: 0x55A30, symSize: 0x24 }
  - { offsetInCU: 0x5E55, offset: 0x192455, size: 0x8, addend: 0x0, symName: __ZN4absl12lts_2022062316numbers_internal18safe_strtou64_baseENS0_11string_viewEPyi.cold.2, symObjAddr: 0x1E98, symBinAddr: 0x55A54, symSize: 0x24 }
  - { offsetInCU: 0x5F5A, offset: 0x19255A, size: 0x8, addend: 0x0, symName: __ZN4absl12lts_2022062316numbers_internal19safe_strtou128_baseENS0_11string_viewEPNS0_7uint128Ei.cold.1, symObjAddr: 0x1EBC, symBinAddr: 0x55A78, symSize: 0x24 }
  - { offsetInCU: 0x5F9E, offset: 0x19259E, size: 0x8, addend: 0x0, symName: __ZN4absl12lts_2022062316numbers_internal19safe_strtou128_baseENS0_11string_viewEPNS0_7uint128Ei.cold.2, symObjAddr: 0x1EE0, symBinAddr: 0x55A9C, symSize: 0x24 }
  - { offsetInCU: 0x611E, offset: 0x19271E, size: 0x8, addend: 0x0, symName: __ZN4absl12lts_2022062312_GLOBAL__N_124safe_parse_sign_and_baseEPNS0_11string_viewEPiPb.cold.1, symObjAddr: 0x1F2C, symBinAddr: 0x55AC0, symSize: 0x28 }
  - { offsetInCU: 0x618C, offset: 0x19278C, size: 0x8, addend: 0x0, symName: _OUTLINED_FUNCTION_0, symObjAddr: 0x1F54, symBinAddr: 0x37118, symSize: 0x8 }
  - { offsetInCU: 0x61A4, offset: 0x1927A4, size: 0x8, addend: 0x0, symName: _OUTLINED_FUNCTION_1, symObjAddr: 0x1F5C, symBinAddr: 0x37120, symSize: 0x8 }
  - { offsetInCU: 0x61BC, offset: 0x1927BC, size: 0x8, addend: 0x0, symName: _OUTLINED_FUNCTION_2, symObjAddr: 0x1F64, symBinAddr: 0x37128, symSize: 0x8 }
  - { offsetInCU: 0x61D4, offset: 0x1927D4, size: 0x8, addend: 0x0, symName: _OUTLINED_FUNCTION_3, symObjAddr: 0x1F6C, symBinAddr: 0x37130, symSize: 0x8 }
  - { offsetInCU: 0x26, offset: 0x19284A, size: 0x8, addend: 0x0, symName: __ZN4absl12lts_2022062316strings_internal13OStringStream8overflowEi, symObjAddr: 0x0, symBinAddr: 0x37138, symSize: 0x30 }
  - { offsetInCU: 0x4B16, offset: 0x19733A, size: 0x8, addend: 0x0, symName: __ZN4absl12lts_2022062316strings_internal13OStringStream8overflowEi, symObjAddr: 0x0, symBinAddr: 0x37138, symSize: 0x30 }
  - { offsetInCU: 0x4B51, offset: 0x197375, size: 0x8, addend: 0x0, symName: __ZN4absl12lts_2022062316strings_internal13OStringStream6xsputnEPKcl, symObjAddr: 0x30, symBinAddr: 0x37168, symSize: 0x30 }
  - { offsetInCU: 0x4B5B, offset: 0x19737F, size: 0x8, addend: 0x0, symName: __ZN4absl12lts_2022062316strings_internal13OStringStream8overflowEi.cold.1, symObjAddr: 0x1E0, symBinAddr: 0x55AE8, symSize: 0x28 }
  - { offsetInCU: 0x4B73, offset: 0x197397, size: 0x8, addend: 0x0, symName: __ZN4absl12lts_2022062316strings_internal13OStringStream6xsputnEPKcl, symObjAddr: 0x30, symBinAddr: 0x37168, symSize: 0x30 }
  - { offsetInCU: 0x4BBD, offset: 0x1973E1, size: 0x8, addend: 0x0, symName: __ZN4absl12lts_2022062316strings_internal13OStringStreamD1Ev, symObjAddr: 0x60, symBinAddr: 0x37198, symSize: 0x40 }
  - { offsetInCU: 0x4BC7, offset: 0x1973EB, size: 0x8, addend: 0x0, symName: __ZN4absl12lts_2022062316strings_internal13OStringStream6xsputnEPKcl.cold.1, symObjAddr: 0x208, symBinAddr: 0x55B10, symSize: 0x28 }
  - { offsetInCU: 0x4C0A, offset: 0x19742E, size: 0x8, addend: 0x0, symName: __ZN4absl12lts_2022062316strings_internal13OStringStreamD1Ev, symObjAddr: 0x60, symBinAddr: 0x37198, symSize: 0x40 }
  - { offsetInCU: 0x4C64, offset: 0x197488, size: 0x8, addend: 0x0, symName: __ZN4absl12lts_2022062316strings_internal13OStringStreamD0Ev, symObjAddr: 0xA0, symBinAddr: 0x371D8, symSize: 0x40 }
  - { offsetInCU: 0x4CBE, offset: 0x1974E2, size: 0x8, addend: 0x0, symName: __ZThn64_N4absl12lts_2022062316strings_internal13OStringStreamD1Ev, symObjAddr: 0xE0, symBinAddr: 0x37218, symSize: 0x38 }
  - { offsetInCU: 0x4D2B, offset: 0x19754F, size: 0x8, addend: 0x0, symName: __ZThn64_N4absl12lts_2022062316strings_internal13OStringStreamD0Ev, symObjAddr: 0x118, symBinAddr: 0x37250, symSize: 0x40 }
  - { offsetInCU: 0x4D98, offset: 0x1975BC, size: 0x8, addend: 0x0, symName: __ZTv0_n24_N4absl12lts_2022062316strings_internal13OStringStreamD1Ev, symObjAddr: 0x158, symBinAddr: 0x37290, symSize: 0x40 }
  - { offsetInCU: 0x4DE9, offset: 0x19760D, size: 0x8, addend: 0x0, symName: __ZTv0_n24_N4absl12lts_2022062316strings_internal13OStringStreamD0Ev, symObjAddr: 0x198, symBinAddr: 0x372D0, symSize: 0x48 }
  - { offsetInCU: 0x26, offset: 0x1976A0, size: 0x8, addend: 0x0, symName: __ZN4absl12lts_2022062319str_format_internal13BufferRawSink5WriteENS0_11string_viewE, symObjAddr: 0x0, symBinAddr: 0x37318, symSize: 0x58 }
  - { offsetInCU: 0x2BEE, offset: 0x19A268, size: 0x8, addend: 0x0, symName: __ZN4absl12lts_2022062319str_format_internal13BufferRawSink5WriteENS0_11string_viewE, symObjAddr: 0x0, symBinAddr: 0x37318, symSize: 0x58 }
  - { offsetInCU: 0x2D46, offset: 0x19A3C0, size: 0x8, addend: 0x0, symName: __ZN4absl12lts_2022062319str_format_internal11FILERawSink5WriteENS0_11string_viewE, symObjAddr: 0x58, symBinAddr: 0x37370, symSize: 0x110 }
  - { offsetInCU: 0x2E4F, offset: 0x19A4C9, size: 0x8, addend: 0x0, symName: __ZN4absl12lts_2022062319str_format_internal12_GLOBAL__N_115ClearErrnoGuardD1Ev, symObjAddr: 0x168, symBinAddr: 0x37480, symSize: 0x3C }
  - { offsetInCU: 0x26, offset: 0x19A554, size: 0x8, addend: 0x0, symName: __ZN4absl12lts_2022062319str_format_internal17LengthModToStringENS1_9LengthModE, symObjAddr: 0x0, symBinAddr: 0x374BC, symSize: 0x30 }
  - { offsetInCU: 0x4E, offset: 0x19A57C, size: 0x8, addend: 0x0, symName: __ZN4absl12lts_2022062319str_format_internal5kTagsE, symObjAddr: 0x1C54, symBinAddr: 0x5C43F, symSize: 0x0 }
  - { offsetInCU: 0x2EF, offset: 0x19A81D, size: 0x8, addend: 0x0, symName: __ZN4absl12lts_2022062319str_format_internal17LengthModToStringENS1_9LengthModE, symObjAddr: 0x0, symBinAddr: 0x374BC, symSize: 0x30 }
  - { offsetInCU: 0x419, offset: 0x19A947, size: 0x8, addend: 0x0, symName: __ZN4absl12lts_2022062319str_format_internal12_GLOBAL__N_117ConsumeConversionILb1EEEPKcS5_S5_PNS1_17UnboundConversionEPi, symObjAddr: 0x420, symBinAddr: 0x378DC, symSize: 0x58C }
  - { offsetInCU: 0x9A6, offset: 0x19AED4, size: 0x8, addend: 0x0, symName: __ZN4absl12lts_2022062319str_format_internal16ParsedFormatBaseC2ENS0_11string_viewEbSt16initializer_listINS0_23FormatConversionCharSetEE, symObjAddr: 0x9AC, symBinAddr: 0x37E68, symSize: 0xD4 }
  - { offsetInCU: 0x9BA, offset: 0x19AEE8, size: 0x8, addend: 0x0, symName: __ZN4absl12lts_2022062319str_format_internal12_GLOBAL__N_120CheckFastPathSettingERKNS1_17UnboundConversionE, symObjAddr: 0x1494, symBinAddr: 0x38800, symSize: 0x70 }
  - { offsetInCU: 0xA55, offset: 0x19AF83, size: 0x8, addend: 0x0, symName: __ZN4absl12lts_2022062319str_format_internal24ConsumeUnboundConversionEPKcS3_PNS1_17UnboundConversionEPi, symObjAddr: 0x30, symBinAddr: 0x374EC, symSize: 0x3F0 }
  - { offsetInCU: 0xEB8, offset: 0x19B3E6, size: 0x8, addend: 0x0, symName: __ZN4absl12lts_2022062319str_format_internal12_GLOBAL__N_117ConsumeConversionILb1EEEPKcS5_S5_PNS1_17UnboundConversionEPi, symObjAddr: 0x420, symBinAddr: 0x378DC, symSize: 0x58C }
  - { offsetInCU: 0xEC2, offset: 0x19B3F0, size: 0x8, addend: 0x0, symName: __ZN4absl12lts_2022062319str_format_internal17ParseFormatStringINS1_16ParsedFormatBase20ParsedFormatConsumerEEEbNS0_11string_viewET_, symObjAddr: 0xA80, symBinAddr: 0x37F3C, symSize: 0x194 }
  - { offsetInCU: 0x12AD, offset: 0x19B7DB, size: 0x8, addend: 0x0, symName: __ZNK4absl12lts_2022062319str_format_internal16ParsedFormatBase18MatchesConversionsEbSt16initializer_listINS0_23FormatConversionCharSetEE, symObjAddr: 0xC14, symBinAddr: 0x380D0, symSize: 0x184 }
  - { offsetInCU: 0x1324, offset: 0x19B852, size: 0x8, addend: 0x0, symName: __ZN4absl12lts_2022062319str_format_internal29FormatConversionCharToConvIntEc, symObjAddr: 0xD9C, symBinAddr: 0x38258, symSize: 0xE4 }
  - { offsetInCU: 0x819B, offset: 0x1A26C9, size: 0x8, addend: 0x0, symName: __ZNSt3__119__allocate_at_leastB8ue170006INS_9allocatorIN4absl12lts_2022062319str_format_internal16ParsedFormatBase14ConversionItemEEEEENS_19__allocation_resultINS_16allocator_traitsIT_E7pointerEEERSA_m, symObjAddr: 0x17C8, symBinAddr: 0x38B34, symSize: 0x34 }
  - { offsetInCU: 0x8239, offset: 0x1A2767, size: 0x8, addend: 0x0, symName: __ZNSt3__112__hash_tableIiNS_4hashIiEENS_8equal_toIiEENS_9allocatorIiEEED2Ev, symObjAddr: 0x17FC, symBinAddr: 0x38B68, symSize: 0x48 }
  - { offsetInCU: 0xAD30, offset: 0x1A525E, size: 0x8, addend: 0x0, symName: __ZNK4absl12lts_2022062319str_format_internal7ConvTag8as_flagsEv, symObjAddr: 0x141C, symBinAddr: 0x38788, symSize: 0x44 }
  - { offsetInCU: 0xADB7, offset: 0x1A52E5, size: 0x8, addend: 0x0, symName: __ZNK4absl12lts_2022062319str_format_internal7ConvTag9as_lengthEv, symObjAddr: 0x1460, symBinAddr: 0x387CC, symSize: 0x34 }
  - { offsetInCU: 0xADC2, offset: 0x1A52F0, size: 0x8, addend: 0x0, symName: __ZN4absl12lts_2022062319str_format_internal24ConsumeUnboundConversionEPKcS3_PNS1_17UnboundConversionEPi.cold.7, symObjAddr: 0x1924, symBinAddr: 0x55C18, symSize: 0x28 }
  - { offsetInCU: 0xADF0, offset: 0x1A531E, size: 0x8, addend: 0x0, symName: __ZNK4absl12lts_2022062319str_format_internal7ConvTag9as_lengthEv, symObjAddr: 0x1460, symBinAddr: 0x387CC, symSize: 0x34 }
  - { offsetInCU: 0xAE56, offset: 0x1A5384, size: 0x8, addend: 0x0, symName: __ZN4absl12lts_2022062319str_format_internal12_GLOBAL__N_120CheckFastPathSettingERKNS1_17UnboundConversionE, symObjAddr: 0x1494, symBinAddr: 0x38800, symSize: 0x70 }
  - { offsetInCU: 0xAE61, offset: 0x1A538F, size: 0x8, addend: 0x0, symName: __ZN4absl12lts_2022062319str_format_internal24ConsumeUnboundConversionEPKcS3_PNS1_17UnboundConversionEPi.cold.2, symObjAddr: 0x186C, symBinAddr: 0x55B60, symSize: 0x28 }
  - { offsetInCU: 0xAE8F, offset: 0x1A53BD, size: 0x8, addend: 0x0, symName: __ZN4absl12lts_2022062319str_format_internal24ConsumeUnboundConversionEPKcS3_PNS1_17UnboundConversionEPi.cold.1, symObjAddr: 0x1844, symBinAddr: 0x55B38, symSize: 0x28 }
  - { offsetInCU: 0xAED2, offset: 0x1A5400, size: 0x8, addend: 0x0, symName: __ZN4absl12lts_2022062319str_format_internal24ConsumeUnboundConversionEPKcS3_PNS1_17UnboundConversionEPi.cold.4, symObjAddr: 0x18B8, symBinAddr: 0x55BAC, symSize: 0x24 }
  - { offsetInCU: 0xAF15, offset: 0x1A5443, size: 0x8, addend: 0x0, symName: __ZN4absl12lts_2022062319str_format_internal24ConsumeUnboundConversionEPKcS3_PNS1_17UnboundConversionEPi.cold.5, symObjAddr: 0x18DC, symBinAddr: 0x55BD0, symSize: 0x24 }
  - { offsetInCU: 0xAF58, offset: 0x1A5486, size: 0x8, addend: 0x0, symName: __ZN4absl12lts_2022062319str_format_internal24ConsumeUnboundConversionEPKcS3_PNS1_17UnboundConversionEPi.cold.6, symObjAddr: 0x1900, symBinAddr: 0x55BF4, symSize: 0x24 }
  - { offsetInCU: 0xAF9B, offset: 0x1A54C9, size: 0x8, addend: 0x0, symName: __ZN4absl12lts_2022062319str_format_internal24ConsumeUnboundConversionEPKcS3_PNS1_17UnboundConversionEPi.cold.3, symObjAddr: 0x1894, symBinAddr: 0x55B88, symSize: 0x24 }
  - { offsetInCU: 0xB01D, offset: 0x1A554B, size: 0x8, addend: 0x0, symName: __ZN4absl12lts_2022062319str_format_internal12_GLOBAL__N_117ConsumeConversionILb1EEEPKcS5_S5_PNS1_17UnboundConversionEPi.cold.1, symObjAddr: 0x194C, symBinAddr: 0x55C40, symSize: 0x28 }
  - { offsetInCU: 0xB035, offset: 0x1A5563, size: 0x8, addend: 0x0, symName: __ZN4absl12lts_2022062319str_format_internal12_GLOBAL__N_117ConsumeConversionILb1EEEPKcS5_S5_PNS1_17UnboundConversionEPi.cold.8, symObjAddr: 0x1A54, symBinAddr: 0x55D48, symSize: 0x28 }
  - { offsetInCU: 0xB04D, offset: 0x1A557B, size: 0x8, addend: 0x0, symName: __ZN4absl12lts_2022062319str_format_internal12_GLOBAL__N_117ConsumeConversionILb1EEEPKcS5_S5_PNS1_17UnboundConversionEPi.cold.3, symObjAddr: 0x199C, symBinAddr: 0x55C90, symSize: 0x28 }
  - { offsetInCU: 0xB065, offset: 0x1A5593, size: 0x8, addend: 0x0, symName: __ZN4absl12lts_2022062319str_format_internal12_GLOBAL__N_117ConsumeConversionILb1EEEPKcS5_S5_PNS1_17UnboundConversionEPi.cold.2, symObjAddr: 0x1974, symBinAddr: 0x55C68, symSize: 0x28 }
  - { offsetInCU: 0xB092, offset: 0x1A55C0, size: 0x8, addend: 0x0, symName: __ZN4absl12lts_2022062319str_format_internal12_GLOBAL__N_117ConsumeConversionILb1EEEPKcS5_S5_PNS1_17UnboundConversionEPi.cold.5, symObjAddr: 0x19E8, symBinAddr: 0x55CDC, symSize: 0x24 }
  - { offsetInCU: 0xB0BF, offset: 0x1A55ED, size: 0x8, addend: 0x0, symName: __ZN4absl12lts_2022062319str_format_internal12_GLOBAL__N_117ConsumeConversionILb1EEEPKcS5_S5_PNS1_17UnboundConversionEPi.cold.6, symObjAddr: 0x1A0C, symBinAddr: 0x55D00, symSize: 0x24 }
  - { offsetInCU: 0xB0EC, offset: 0x1A561A, size: 0x8, addend: 0x0, symName: __ZN4absl12lts_2022062319str_format_internal12_GLOBAL__N_117ConsumeConversionILb1EEEPKcS5_S5_PNS1_17UnboundConversionEPi.cold.7, symObjAddr: 0x1A30, symBinAddr: 0x55D24, symSize: 0x24 }
  - { offsetInCU: 0xB119, offset: 0x1A5647, size: 0x8, addend: 0x0, symName: __ZN4absl12lts_2022062319str_format_internal12_GLOBAL__N_117ConsumeConversionILb1EEEPKcS5_S5_PNS1_17UnboundConversionEPi.cold.4, symObjAddr: 0x19C4, symBinAddr: 0x55CB8, symSize: 0x24 }
  - { offsetInCU: 0xB3C2, offset: 0x1A58F0, size: 0x8, addend: 0x0, symName: __ZN4absl12lts_2022062319str_format_internal16ParsedFormatBaseC2ENS0_11string_viewEbSt16initializer_listINS0_23FormatConversionCharSetEE, symObjAddr: 0x9AC, symBinAddr: 0x37E68, symSize: 0xD4 }
  - { offsetInCU: 0xB697, offset: 0x1A5BC5, size: 0x8, addend: 0x0, symName: __ZNK4absl12lts_2022062319str_format_internal16ParsedFormatBase18MatchesConversionsEbSt16initializer_listINS0_23FormatConversionCharSetEE, symObjAddr: 0xC14, symBinAddr: 0x380D0, symSize: 0x184 }
  - { offsetInCU: 0xBCC8, offset: 0x1A61F6, size: 0x8, addend: 0x0, symName: __ZN4absl12lts_2022062319str_format_internal16ParsedFormatBaseC2ENS0_11string_viewEbSt16initializer_listINS0_23FormatConversionCharSetEE.cold.1, symObjAddr: 0x1A7C, symBinAddr: 0x55D70, symSize: 0x18 }
  - { offsetInCU: 0xBEA9, offset: 0x1A63D7, size: 0x8, addend: 0x0, symName: __ZN4absl12lts_2022062319str_format_internal16ParsedFormatBase20ParsedFormatConsumer6AppendENS0_11string_viewE, symObjAddr: 0x1504, symBinAddr: 0x38870, symSize: 0x15C }
  - { offsetInCU: 0xC343, offset: 0x1A6871, size: 0x8, addend: 0x0, symName: __ZN4absl12lts_2022062319str_format_internal16ParsedFormatBase20ParsedFormatConsumer10ConvertOneERKNS1_17UnboundConversionENS0_11string_viewE, symObjAddr: 0x1660, symBinAddr: 0x389CC, symSize: 0x154 }
  - { offsetInCU: 0xC355, offset: 0x1A6883, size: 0x8, addend: 0x0, symName: __ZN4absl12lts_2022062319str_format_internal16ParsedFormatBase20ParsedFormatConsumer10ConvertOneERKNS1_17UnboundConversionENS0_11string_viewE, symObjAddr: 0x1660, symBinAddr: 0x389CC, symSize: 0x154 }
  - { offsetInCU: 0xC7E6, offset: 0x1A6D14, size: 0x8, addend: 0x0, symName: __ZNKSt3__16vectorIN4absl12lts_2022062319str_format_internal16ParsedFormatBase14ConversionItemENS_9allocatorIS5_EEE20__throw_length_errorB8ue170006Ev, symObjAddr: 0x17B4, symBinAddr: 0x38B20, symSize: 0x14 }
  - { offsetInCU: 0xC7F8, offset: 0x1A6D26, size: 0x8, addend: 0x0, symName: __ZN4absl12lts_2022062319str_format_internal17ParseFormatStringINS1_16ParsedFormatBase20ParsedFormatConsumerEEEbNS0_11string_viewET_.cold.3, symObjAddr: 0x1ADC, symBinAddr: 0x55DD0, symSize: 0x24 }
  - { offsetInCU: 0xC865, offset: 0x1A6D93, size: 0x8, addend: 0x0, symName: __ZN4absl12lts_2022062319str_format_internal17ParseFormatStringINS1_16ParsedFormatBase20ParsedFormatConsumerEEEbNS0_11string_viewET_.cold.2, symObjAddr: 0x1AB8, symBinAddr: 0x55DAC, symSize: 0x24 }
  - { offsetInCU: 0xC8D2, offset: 0x1A6E00, size: 0x8, addend: 0x0, symName: __ZN4absl12lts_2022062319str_format_internal17ParseFormatStringINS1_16ParsedFormatBase20ParsedFormatConsumerEEEbNS0_11string_viewET_.cold.1, symObjAddr: 0x1A94, symBinAddr: 0x55D88, symSize: 0x24 }
  - { offsetInCU: 0xCD19, offset: 0x1A7247, size: 0x8, addend: 0x0, symName: __ZNSt3__112__hash_tableIiNS_4hashIiEENS_8equal_toIiEENS_9allocatorIiEEE25__emplace_unique_key_argsIiJRKiEEENS_4pairINS_15__hash_iteratorIPNS_11__hash_nodeIiPvEEEEbEERKT_DpOT0_, symObjAddr: 0xE80, symBinAddr: 0x3833C, symSize: 0x218 }
  - { offsetInCU: 0xD26B, offset: 0x1A7799, size: 0x8, addend: 0x0, symName: __ZNSt3__112__hash_tableIiNS_4hashIiEENS_8equal_toIiEENS_9allocatorIiEEED2Ev, symObjAddr: 0x17FC, symBinAddr: 0x38B68, symSize: 0x48 }
  - { offsetInCU: 0xD4ED, offset: 0x1A7A1B, size: 0x8, addend: 0x0, symName: __ZN4absl12lts_2022062319str_format_internal16ParsedFormatBaseC1ENS0_11string_viewEbSt16initializer_listINS0_23FormatConversionCharSetEE, symObjAddr: 0xD98, symBinAddr: 0x38254, symSize: 0x4 }
  - { offsetInCU: 0xD547, offset: 0x1A7A75, size: 0x8, addend: 0x0, symName: __ZN4absl12lts_2022062319str_format_internal16ParsedFormatBaseC1ENS0_11string_viewEbSt16initializer_listINS0_23FormatConversionCharSetEE, symObjAddr: 0xD98, symBinAddr: 0x38254, symSize: 0x4 }
