---
triple:          'arm64-apple-darwin'
binary-path:     '/Users/nawafaljohani/Desktop/last/build/ios/Release-iphoneos/FirebaseFirestoreInternal/FirebaseFirestoreInternal.framework/FirebaseFirestoreInternal'
relocations:
  - { offsetInCU: 0x33, offset: 0x33, size: 0x8, addend: 0x0, symName: _FirebaseFirestoreInternalVersionString, symObjAddr: 0x0, symBinAddr: 0x181E60, symSize: 0x0 }
  - { offsetInCU: 0x67, offset: 0x67, size: 0x8, addend: 0x0, symName: _FirebaseFirestoreInternalVersionNumber, symObjAddr: 0x38, symBinAddr: 0x181E98, symSize: 0x0 }
  - { offsetInCU: 0x5854, offset: 0x58D0, size: 0x8, addend: 0x0, symName: __ZN8firebase9firestore5modeleqERKNS1_14AggregateAliasES4_, symObjAddr: 0x4, symBinAddr: 0x8004, symSize: 0x9C }
  - { offsetInCU: 0x5C82, offset: 0x5CFE, size: 0x8, addend: 0x0, symName: __ZNK8firebase9firestore5model14AggregateAlias11StringValueEv, symObjAddr: 0x0, symBinAddr: 0x8000, symSize: 0x4 }
  - { offsetInCU: 0x5D24, offset: 0x5DA0, size: 0x8, addend: 0x0, symName: __ZNK8firebase9firestore5model14AggregateAlias4HashEv, symObjAddr: 0xA0, symBinAddr: 0x80A0, symSize: 0x24 }
  - { offsetInCU: 0x5DE9, offset: 0x5E65, size: 0x8, addend: 0x0, symName: __ZNKSt3__113__string_hashIcNS_9allocatorIcEEEclB8ue170006ERKNS_12basic_stringIcNS_11char_traitsIcEES2_EE, symObjAddr: 0xC4, symBinAddr: 0x80C4, symSize: 0x3C }
  - { offsetInCU: 0x5EB1, offset: 0x5F2D, size: 0x8, addend: 0x0, symName: __ZNKSt3__121__murmur2_or_cityhashImLm64EEclB8ue170006EPKvm, symObjAddr: 0x10C, symBinAddr: 0x810C, symSize: 0x208 }
  - { offsetInCU: 0x6534, offset: 0x65B0, size: 0x8, addend: 0x0, symName: __ZNSt3__121__murmur2_or_cityhashImLm64EE18__hash_len_0_to_16B8ue170006EPKcm, symObjAddr: 0x314, symBinAddr: 0x8314, symSize: 0xF8 }
  - { offsetInCU: 0x6734, offset: 0x67B0, size: 0x8, addend: 0x0, symName: __ZNSt3__121__murmur2_or_cityhashImLm64EE19__hash_len_33_to_64B8ue170006EPKcm, symObjAddr: 0x4B8, symBinAddr: 0x84B8, symSize: 0x110 }
  - { offsetInCU: 0x68B8, offset: 0x6934, size: 0x8, addend: 0x0, symName: __ZNSt3__121__murmur2_or_cityhashImLm64EE19__hash_len_17_to_32B8ue170006EPKcm, symObjAddr: 0x40C, symBinAddr: 0x840C, symSize: 0xAC }
  - { offsetInCU: 0x6AC1, offset: 0xD577, size: 0x8, addend: 0x0, symName: __ZNK8firebase9firestore5model14AggregateField4HashEv, symObjAddr: 0x0, symBinAddr: 0x85C8, symSize: 0x9C }
  - { offsetInCU: 0x12EED, offset: 0x2107A, size: 0x8, addend: 0x0, symName: __ZNSt3__125__throw_bad_function_callB8ue170006Ev, symObjAddr: 0xF9C, symBinAddr: 0x95F4, symSize: 0x34 }
  - { offsetInCU: 0x13479, offset: 0x21606, size: 0x8, addend: 0x0, symName: __ZNSt3__120__throw_length_errorB8ue170006EPKc, symObjAddr: 0x1194, symBinAddr: 0x97EC, symSize: 0x50 }
  - { offsetInCU: 0x15E08, offset: 0x23F95, size: 0x8, addend: 0x0, symName: __ZN8firebase9firestore4util4impl16RankedInvokeHashINSt3__16vectorINS0_5model14AggregateFieldENS4_9allocatorIS7_EEEEEEDTcl10InvokeHashdeclsr3stdE5beginfp_EEERKT_NS2_10HashChoiceILi3EEE, symObjAddr: 0xAC0, symBinAddr: 0x9118, symSize: 0x6C }
  - { offsetInCU: 0x1754C, offset: 0x256D9, size: 0x8, addend: 0x0, symName: __ZN8firebase9firestore5modeleqERKNS1_14AggregateFieldES4_, symObjAddr: 0x978, symBinAddr: 0x8FD0, symSize: 0x148 }
  - { offsetInCU: 0x183F4, offset: 0x26581, size: 0x8, addend: 0x0, symName: __ZN8firebase9firestore3apieqERKNS1_14AggregateQueryES4_, symObjAddr: 0x0, symBinAddr: 0x8664, symSize: 0x88 }
  - { offsetInCU: 0x1C596, offset: 0x2A723, size: 0x8, addend: 0x0, symName: __ZN8firebase9firestore3api14AggregateQuery3GetEONSt3__18functionIFvRKNS0_4util8StatusOrIxEEEEE, symObjAddr: 0x1A8, symBinAddr: 0x880C, symSize: 0x164 }
  - { offsetInCU: 0x1ED2F, offset: 0x2CEBC, size: 0x8, addend: 0x0, symName: __ZNK8firebase9firestore3api14AggregateQuery4HashEv, symObjAddr: 0x88, symBinAddr: 0x86EC, symSize: 0x40 }
  - { offsetInCU: 0x1EEDA, offset: 0x2D067, size: 0x8, addend: 0x0, symName: __ZN8firebase9firestore3api14AggregateQueryC2ENS1_5QueryEONSt3__16vectorINS0_5model14AggregateFieldENS4_9allocatorIS7_EEEE, symObjAddr: 0xC8, symBinAddr: 0x872C, symSize: 0x54 }
  - { offsetInCU: 0x1EF93, offset: 0x2D120, size: 0x8, addend: 0x0, symName: __ZN8firebase9firestore3api5QueryC2EOS2_, symObjAddr: 0x324, symBinAddr: 0x8988, symSize: 0xFC }
  - { offsetInCU: 0x1EFC7, offset: 0x2D154, size: 0x8, addend: 0x0, symName: __ZN8firebase9firestore3api5QueryC2EOS2_, symObjAddr: 0x324, symBinAddr: 0x8988, symSize: 0xFC }
  - { offsetInCU: 0x1EFEA, offset: 0x2D177, size: 0x8, addend: 0x0, symName: __ZN8firebase9firestore3api5QueryC2EOS2_, symObjAddr: 0x324, symBinAddr: 0x8988, symSize: 0xFC }
  - { offsetInCU: 0x1F6E6, offset: 0x2D873, size: 0x8, addend: 0x0, symName: __ZN8firebase9firestore3api14AggregateQueryC1ENS1_5QueryEONSt3__16vectorINS0_5model14AggregateFieldENS4_9allocatorIS7_EEEE, symObjAddr: 0x11C, symBinAddr: 0x8780, symSize: 0x54 }
  - { offsetInCU: 0x1F82C, offset: 0x2D9B9, size: 0x8, addend: 0x0, symName: __ZN8firebase9firestore3api14AggregateQuery12GetAggregateEONSt3__18functionIFvRKNS0_4util8StatusOrINS0_5model11ObjectValueEEEEEE, symObjAddr: 0x170, symBinAddr: 0x87D4, symSize: 0x38 }
  - { offsetInCU: 0x1FE5E, offset: 0x2DFEB, size: 0x8, addend: 0x0, symName: __ZNSt3__110__function12__value_funcIFvRKN8firebase9firestore4util8StatusOrIxEEEEC2B8ue170006EOSA_, symObjAddr: 0xB2C, symBinAddr: 0x9184, symSize: 0x64 }
  - { offsetInCU: 0x1FEAB, offset: 0x2E038, size: 0x8, addend: 0x0, symName: __ZN8firebase9firestore3api14AggregateQueryD1Ev, symObjAddr: 0x30C, symBinAddr: 0x8970, symSize: 0x4 }
  - { offsetInCU: 0x1FECE, offset: 0x2E05B, size: 0x8, addend: 0x0, symName: __ZN8firebase9firestore3api14AggregateQueryD1Ev, symObjAddr: 0x30C, symBinAddr: 0x8970, symSize: 0x4 }
  - { offsetInCU: 0x1FEE1, offset: 0x2E06E, size: 0x8, addend: 0x0, symName: __ZN8firebase9firestore3api14AggregateQueryD2Ev, symObjAddr: 0x42C, symBinAddr: 0x8A84, symSize: 0x64 }
  - { offsetInCU: 0x20055, offset: 0x2E1E2, size: 0x8, addend: 0x0, symName: __ZN8firebase9firestore3api14AggregateQueryD0Ev, symObjAddr: 0x310, symBinAddr: 0x8974, symSize: 0x14 }
  - { offsetInCU: 0x2063B, offset: 0x2E7C8, size: 0x8, addend: 0x0, symName: __ZNSt3__16vectorIN8firebase9firestore5model14AggregateFieldENS_9allocatorIS4_EEE16__destroy_vectorclB8ue170006Ev, symObjAddr: 0x490, symBinAddr: 0x8AE8, symSize: 0x84 }
  - { offsetInCU: 0x2078B, offset: 0x2E918, size: 0x8, addend: 0x0, symName: __ZN8firebase9firestore4core5QueryD2Ev, symObjAddr: 0x5EC, symBinAddr: 0x8C44, symSize: 0x9C }
  - { offsetInCU: 0x20D4C, offset: 0x2EED9, size: 0x8, addend: 0x0, symName: __ZNSt3__110shared_ptrIN8firebase9firestore3api9FirestoreEED2B8ue170006Ev, symObjAddr: 0x920, symBinAddr: 0x8F78, symSize: 0x58 }
  - { offsetInCU: 0x20EA2, offset: 0x2F02F, size: 0x8, addend: 0x0, symName: __ZNSt3__19allocatorIN8firebase9firestore5model14AggregateFieldEE7destroyB8ue170006EPS4_, symObjAddr: 0x514, symBinAddr: 0x8B6C, symSize: 0x44 }
  - { offsetInCU: 0x21345, offset: 0x2F4D2, size: 0x8, addend: 0x0, symName: __ZNSt3__16vectorINS_12basic_stringIcNS_11char_traitsIcEENS_9allocatorIcEEEENS4_IS6_EEE16__destroy_vectorclB8ue170006Ev, symObjAddr: 0x558, symBinAddr: 0x8BB0, symSize: 0x40 }
  - { offsetInCU: 0x2147D, offset: 0x2F60A, size: 0x8, addend: 0x0, symName: __ZNSt3__16vectorINS_12basic_stringIcNS_11char_traitsIcEENS_9allocatorIcEEEENS4_IS6_EEE7__clearB8ue170006Ev, symObjAddr: 0x598, symBinAddr: 0x8BF0, symSize: 0x54 }
  - { offsetInCU: 0x21960, offset: 0x2FAED, size: 0x8, addend: 0x0, symName: __ZNSt3__110shared_ptrIN8firebase9firestore4util18ThreadSafeMemoizerINS2_4core6TargetEEEED2B8ue170006Ev, symObjAddr: 0x688, symBinAddr: 0x8CE0, symSize: 0x58 }
  - { offsetInCU: 0x219F2, offset: 0x2FB7F, size: 0x8, addend: 0x0, symName: __ZNSt3__110shared_ptrIN8firebase9firestore4util18ThreadSafeMemoizerINS_6vectorINS2_4core7OrderByENS_9allocatorIS7_EEEEEEED2B8ue170006Ev, symObjAddr: 0x6E0, symBinAddr: 0x8D38, symSize: 0x58 }
  - { offsetInCU: 0x21A84, offset: 0x2FC11, size: 0x8, addend: 0x0, symName: __ZNSt3__110shared_ptrIN8firebase9firestore6nanopb7MessageINS2_31_google_firestore_v1_ArrayValueEEEED2B8ue170006Ev, symObjAddr: 0x738, symBinAddr: 0x8D90, symSize: 0x58 }
  - { offsetInCU: 0x21B16, offset: 0x2FCA3, size: 0x8, addend: 0x0, symName: __ZNSt3__16vectorIN8firebase9firestore4core7OrderByENS_9allocatorIS4_EEE16__destroy_vectorclB8ue170006Ev, symObjAddr: 0x790, symBinAddr: 0x8DE8, symSize: 0x70 }
  - { offsetInCU: 0x21D99, offset: 0x2FF26, size: 0x8, addend: 0x0, symName: __ZNSt3__16vectorIN8firebase9firestore4core6FilterENS_9allocatorIS4_EEE16__destroy_vectorclB8ue170006Ev, symObjAddr: 0x800, symBinAddr: 0x8E58, symSize: 0x70 }
  - { offsetInCU: 0x21F59, offset: 0x300E6, size: 0x8, addend: 0x0, symName: __ZNSt3__110shared_ptrIKNS_12basic_stringIcNS_11char_traitsIcEENS_9allocatorIcEEEEED2B8ue170006Ev, symObjAddr: 0x8C8, symBinAddr: 0x8F20, symSize: 0x58 }
  - { offsetInCU: 0x2226D, offset: 0x303FA, size: 0x8, addend: 0x0, symName: __ZNSt3__110shared_ptrIKN8firebase9firestore4core6Filter3RepEED2B8ue170006Ev, symObjAddr: 0x870, symBinAddr: 0x8EC8, symSize: 0x58 }
  - { offsetInCU: 0x22440, offset: 0x305CD, size: 0x8, addend: 0x0, symName: '__ZNSt3__110__function6__funcIZN8firebase9firestore3api14AggregateQuery3GetEONS_8functionIFvRKNS3_4util8StatusOrIxEEEEEE3$_0NS_9allocatorISF_EEFvRKNS8_INS3_5model11ObjectValueEEEEED1Ev', symObjAddr: 0xB90, symBinAddr: 0x91E8, symSize: 0x5C }
  - { offsetInCU: 0x225F5, offset: 0x30782, size: 0x8, addend: 0x0, symName: '__ZNSt3__110__function6__funcIZN8firebase9firestore3api14AggregateQuery3GetEONS_8functionIFvRKNS3_4util8StatusOrIxEEEEEE3$_0NS_9allocatorISF_EEFvRKNS8_INS3_5model11ObjectValueEEEEED0Ev', symObjAddr: 0xBEC, symBinAddr: 0x9244, symSize: 0x5C }
  - { offsetInCU: 0x22B16, offset: 0x30CA3, size: 0x8, addend: 0x0, symName: '__ZNKSt3__110__function6__funcIZN8firebase9firestore3api14AggregateQuery3GetEONS_8functionIFvRKNS3_4util8StatusOrIxEEEEEE3$_0NS_9allocatorISF_EEFvRKNS8_INS3_5model11ObjectValueEEEEE7__cloneEv', symObjAddr: 0xC48, symBinAddr: 0x92A0, symSize: 0x54 }
  - { offsetInCU: 0x22E84, offset: 0x31011, size: 0x8, addend: 0x0, symName: __ZNSt3__110__function12__value_funcIFvRKN8firebase9firestore4util8StatusOrIxEEEEC2B8ue170006ERKSA_, symObjAddr: 0xF38, symBinAddr: 0x9590, symSize: 0x64 }
  - { offsetInCU: 0x2303D, offset: 0x311CA, size: 0x8, addend: 0x0, symName: '__ZNKSt3__110__function6__funcIZN8firebase9firestore3api14AggregateQuery3GetEONS_8functionIFvRKNS3_4util8StatusOrIxEEEEEE3$_0NS_9allocatorISF_EEFvRKNS8_INS3_5model11ObjectValueEEEEE7__cloneEPNS0_6__baseISN_EE', symObjAddr: 0xC9C, symBinAddr: 0x92F4, symSize: 0x1C }
  - { offsetInCU: 0x2326D, offset: 0x313FA, size: 0x8, addend: 0x0, symName: '__ZNSt3__110__function6__funcIZN8firebase9firestore3api14AggregateQuery3GetEONS_8functionIFvRKNS3_4util8StatusOrIxEEEEEE3$_0NS_9allocatorISF_EEFvRKNS8_INS3_5model11ObjectValueEEEEE7destroyEv', symObjAddr: 0xCB8, symBinAddr: 0x9310, symSize: 0x34 }
  - { offsetInCU: 0x233D1, offset: 0x3155E, size: 0x8, addend: 0x0, symName: '__ZNSt3__110__function6__funcIZN8firebase9firestore3api14AggregateQuery3GetEONS_8functionIFvRKNS3_4util8StatusOrIxEEEEEE3$_0NS_9allocatorISF_EEFvRKNS8_INS3_5model11ObjectValueEEEEE18destroy_deallocateEv', symObjAddr: 0xCEC, symBinAddr: 0x9344, symSize: 0x50 }
  - { offsetInCU: 0x23960, offset: 0x31AED, size: 0x8, addend: 0x0, symName: '__ZNSt3__110__function6__funcIZN8firebase9firestore3api14AggregateQuery3GetEONS_8functionIFvRKNS3_4util8StatusOrIxEEEEEE3$_0NS_9allocatorISF_EEFvRKNS8_INS3_5model11ObjectValueEEEEEclESM_', symObjAddr: 0xD3C, symBinAddr: 0x9394, symSize: 0x1B4 }
  - { offsetInCU: 0x24447, offset: 0x325D4, size: 0x8, addend: 0x0, symName: __ZN8firebase9firestore4util17internal_statusor12StatusOrDataIxEC2ERKNS1_6StatusE, symObjAddr: 0xFE8, symBinAddr: 0x9640, symSize: 0x60 }
  - { offsetInCU: 0x246BC, offset: 0x32849, size: 0x8, addend: 0x0, symName: __ZNSt3__112basic_stringIcNS_11char_traitsIcEENS_9allocatorIcEEEC2B8ue170006ILi0EEEPKc, symObjAddr: 0x1230, symBinAddr: 0x9888, symSize: 0xA0 }
  - { offsetInCU: 0x24A18, offset: 0x32BA5, size: 0x8, addend: 0x0, symName: __ZNKSt9type_infoeqB8ue170006ERKS_, symObjAddr: 0x12D0, symBinAddr: 0x9928, symSize: 0x48 }
  - { offsetInCU: 0x24A31, offset: 0x32BBE, size: 0x8, addend: 0x0, symName: __ZNSt3__112basic_stringIcNS_11char_traitsIcEENS_9allocatorIcEEE25__init_copy_ctor_externalEPKcm, symObjAddr: 0x1104, symBinAddr: 0x975C, symSize: 0x7C }
  - { offsetInCU: 0x24D70, offset: 0x32EFD, size: 0x8, addend: 0x0, symName: __ZNKSt3__112basic_stringIcNS_11char_traitsIcEENS_9allocatorIcEEE20__throw_length_errorB8ue170006Ev, symObjAddr: 0x1180, symBinAddr: 0x97D8, symSize: 0x14 }
  - { offsetInCU: 0x24D82, offset: 0x32F0F, size: 0x8, addend: 0x0, symName: __ZNSt3__110unique_ptrIN8firebase9firestore4util6Status5StateENS5_7DeleterEE5resetB8ue170006EPS5_, symObjAddr: 0x1208, symBinAddr: 0x9860, symSize: 0x28 }
  - { offsetInCU: 0x24DC7, offset: 0x32F54, size: 0x8, addend: 0x0, symName: '__ZNKSt3__110__function6__funcIZN8firebase9firestore3api14AggregateQuery3GetEONS_8functionIFvRKNS3_4util8StatusOrIxEEEEEE3$_0NS_9allocatorISF_EEFvRKNS8_INS3_5model11ObjectValueEEEEE6targetERKSt9type_info', symObjAddr: 0xEF0, symBinAddr: 0x9548, symSize: 0x3C }
  - { offsetInCU: 0x24E14, offset: 0x32FA1, size: 0x8, addend: 0x0, symName: __ZNKSt9type_infoeqB8ue170006ERKS_, symObjAddr: 0x12D0, symBinAddr: 0x9928, symSize: 0x48 }
  - { offsetInCU: 0x24E9D, offset: 0x3302A, size: 0x8, addend: 0x0, symName: '__ZNKSt3__110__function6__funcIZN8firebase9firestore3api14AggregateQuery3GetEONS_8functionIFvRKNS3_4util8StatusOrIxEEEEEE3$_0NS_9allocatorISF_EEFvRKNS8_INS3_5model11ObjectValueEEEEE11target_typeEv', symObjAddr: 0xF2C, symBinAddr: 0x9584, symSize: 0xC }
  - { offsetInCU: 0x24F1A, offset: 0x330A7, size: 0x8, addend: 0x0, symName: __ZNSt3__117bad_function_callD1Ev, symObjAddr: 0xFD0, symBinAddr: 0x9628, symSize: 0x4 }
  - { offsetInCU: 0x24F3C, offset: 0x330C9, size: 0x8, addend: 0x0, symName: __ZNSt3__117bad_function_callD1Ev, symObjAddr: 0xFD0, symBinAddr: 0x9628, symSize: 0x4 }
  - { offsetInCU: 0x24F6F, offset: 0x330FC, size: 0x8, addend: 0x0, symName: __ZNSt3__117bad_function_callD0Ev, symObjAddr: 0xFD4, symBinAddr: 0x962C, symSize: 0x14 }
  - { offsetInCU: 0x251A9, offset: 0x33336, size: 0x8, addend: 0x0, symName: __ZN8firebase9firestore4util6Status5State7MakePtrIJRS3_EEENSt3__110unique_ptrIS3_NS3_7DeleterEEEDpOT_, symObjAddr: 0x1048, symBinAddr: 0x96A0, symSize: 0xBC }
  - { offsetInCU: 0x258ED, offset: 0x33A7A, size: 0x8, addend: 0x0, symName: __ZNKSt3__112basic_stringIcNS_11char_traitsIcEENS_9allocatorIcEEE20__throw_length_errorB8ue170006Ev, symObjAddr: 0x1180, symBinAddr: 0x97D8, symSize: 0x14 }
  - { offsetInCU: 0x25915, offset: 0x33AA2, size: 0x8, addend: 0x0, symName: __ZNSt3__120__throw_length_errorB8ue170006EPKc, symObjAddr: 0x1194, symBinAddr: 0x97EC, symSize: 0x50 }
  - { offsetInCU: 0x25920, offset: 0x33AAD, size: 0x8, addend: 0x0, symName: __ZNSt12length_errorC1B8ue170006EPKc, symObjAddr: 0x11E4, symBinAddr: 0x983C, symSize: 0x24 }
  - { offsetInCU: 0x26, offset: 0x33C10, size: 0x8, addend: 0x0, symName: __ZNK8firebase9firestore38_google_firestore_v1_AggregationResult8ToStringEi, symObjAddr: 0x0, symBinAddr: 0x9970, symSize: 0x224 }
  - { offsetInCU: 0x4A, offset: 0x33C34, size: 0x8, addend: 0x0, symName: __ZN8firebase9firestore44google_firestore_v1_AggregationResult_fieldsE, symObjAddr: 0xE70, symBinAddr: 0x22CC20, symSize: 0x0 }
  - { offsetInCU: 0x64, offset: 0x33C4E, size: 0x8, addend: 0x0, symName: __ZN8firebase9firestore65google_firestore_v1_AggregationResult_AggregateFieldsEntry_fieldsE, symObjAddr: 0xE10, symBinAddr: 0x22CBC0, symSize: 0x0 }
  - { offsetInCU: 0xCA, offset: 0x33CB4, size: 0x8, addend: 0x0, symName: __ZN8firebase9firestore6nanopb17PrintMessageFieldINS0_59_google_firestore_v1_AggregationResult_AggregateFieldsEntryEEENSt3__112basic_stringIcNS4_11char_traitsIcEENS4_9allocatorIcEEEEN4absl12lts_2022062311string_viewERKT_ib, symObjAddr: 0x224, symBinAddr: 0x9B94, symSize: 0x274 }
  - { offsetInCU: 0x1040, offset: 0x34C2A, size: 0x8, addend: 0x0, symName: __ZN8firebase9firestore6nanopb19PrintPrimitiveFieldIP16pb_bytes_array_sEENSt3__112basic_stringIcNS5_11char_traitsIcEENS5_9allocatorIcEEEEN4absl12lts_2022062311string_viewET_ib, symObjAddr: 0x770, symBinAddr: 0xA0E0, symSize: 0x18C }
  - { offsetInCU: 0x18D7, offset: 0x354C1, size: 0x8, addend: 0x0, symName: __ZN8firebase9firestore6nanopb17PrintMessageFieldINS0_26_google_firestore_v1_ValueEEENSt3__112basic_stringIcNS4_11char_traitsIcEENS4_9allocatorIcEEEEN4absl12lts_2022062311string_viewERKT_ib, symObjAddr: 0x8FC, symBinAddr: 0xA26C, symSize: 0x274 }
  - { offsetInCU: 0x53E5, offset: 0x38FCF, size: 0x8, addend: 0x0, symName: __ZNSt3__1plB8ue170006IcNS_11char_traitsIcEENS_9allocatorIcEEEENS_12basic_stringIT_T0_T1_EERKS9_SB_, symObjAddr: 0x498, symBinAddr: 0x9E08, symSize: 0xC8 }
  - { offsetInCU: 0x7E64, offset: 0x3BA4E, size: 0x8, addend: 0x0, symName: __ZNK8firebase9firestore38_google_firestore_v1_AggregationResult8ToStringEi, symObjAddr: 0x0, symBinAddr: 0x9970, symSize: 0x224 }
  - { offsetInCU: 0x8F1C, offset: 0x3CB06, size: 0x8, addend: 0x0, symName: __ZNK8firebase9firestore59_google_firestore_v1_AggregationResult_AggregateFieldsEntry8ToStringEi, symObjAddr: 0x560, symBinAddr: 0x9ED0, symSize: 0x210 }
  - { offsetInCU: 0x9E3C, offset: 0x3DA26, size: 0x8, addend: 0x0, symName: __ZNSt3__112basic_stringIcNS_11char_traitsIcEENS_9allocatorIcEEEC2B8ue170006ENS_24__uninitialized_size_tagEmRKS4_, symObjAddr: 0xB70, symBinAddr: 0xA4E0, symSize: 0x74 }
  - { offsetInCU: 0x26, offset: 0x3DDBD, size: 0x8, addend: 0x0, symName: __ZNK8firebase9firestore20_google_protobuf_Any8ToStringEi, symObjAddr: 0x0, symBinAddr: 0xA554, symSize: 0x244 }
  - { offsetInCU: 0x4A, offset: 0x3DDE1, size: 0x8, addend: 0x0, symName: __ZN8firebase9firestore26google_protobuf_Any_fieldsE, symObjAddr: 0x6A0, symBinAddr: 0x182080, symSize: 0x0 }
  - { offsetInCU: 0x50C3, offset: 0x42E5A, size: 0x8, addend: 0x0, symName: __ZNK8firebase9firestore20_google_protobuf_Any8ToStringEi, symObjAddr: 0x0, symBinAddr: 0xA554, symSize: 0x244 }
  - { offsetInCU: 0x59A5, offset: 0x49E29, size: 0x8, addend: 0x0, symName: __ZNSt3__115allocate_sharedB8ue170006IN8firebase9firestore4core22ArrayContainsAnyFilter3RepENS_9allocatorIS5_EEJRKNS2_5model9FieldPathENS2_6nanopb13SharedMessageINS2_26_google_firestore_v1_ValueEEEEvEENS_10shared_ptrIT_EERKT0_DpOT1_, symObjAddr: 0x4B4, symBinAddr: 0xAB4C, symSize: 0x60 }
  - { offsetInCU: 0x6133, offset: 0x4A5B7, size: 0x8, addend: 0x0, symName: __ZNSt3__135__uninitialized_allocator_copy_implB8ue170006INS_9allocatorINS_12basic_stringIcNS_11char_traitsIcEENS1_IcEEEEEEPS6_S8_S8_EET2_RT_T0_T1_S9_, symObjAddr: 0x834, symBinAddr: 0xAE58, symSize: 0xBC }
  - { offsetInCU: 0x6382, offset: 0x4A806, size: 0x8, addend: 0x0, symName: __ZNSt3__119__allocate_at_leastB8ue170006INS_9allocatorINS_12basic_stringIcNS_11char_traitsIcEENS1_IcEEEEEEEENS_19__allocation_resultINS_16allocator_traitsIT_E7pointerEEERSA_m, symObjAddr: 0x77C, symBinAddr: 0xAE14, symSize: 0x44 }
  - { offsetInCU: 0x67F3, offset: 0x4AC77, size: 0x8, addend: 0x0, symName: __ZSt28__throw_bad_array_new_lengthB8ue170006v, symObjAddr: 0x514, symBinAddr: 0xABAC, symSize: 0x28 }
  - { offsetInCU: 0x8B64, offset: 0x4CFE8, size: 0x8, addend: 0x0, symName: __ZN8firebase9firestore4core22ArrayContainsAnyFilterC2ERKNS0_5model9FieldPathENS0_6nanopb13SharedMessageINS0_26_google_firestore_v1_ValueEEE, symObjAddr: 0x0, symBinAddr: 0xA798, symSize: 0xD8 }
  - { offsetInCU: 0x8E46, offset: 0x4D2CA, size: 0x8, addend: 0x0, symName: __ZNSt3__110shared_ptrIN8firebase9firestore4core22ArrayContainsAnyFilter3RepEED2B8ue170006Ev, symObjAddr: 0xB4C, symBinAddr: 0xB0E0, symSize: 0x58 }
  - { offsetInCU: 0x8ED0, offset: 0x4D354, size: 0x8, addend: 0x0, symName: __ZN8firebase9firestore4core22ArrayContainsAnyFilterC1ERKNS0_5model9FieldPathENS0_6nanopb13SharedMessageINS0_26_google_firestore_v1_ValueEEE, symObjAddr: 0xD8, symBinAddr: 0xA870, symSize: 0x4 }
  - { offsetInCU: 0x8F18, offset: 0x4D39C, size: 0x8, addend: 0x0, symName: __ZN8firebase9firestore4core22ArrayContainsAnyFilterC1ERKNS0_5model9FieldPathENS0_6nanopb13SharedMessageINS0_26_google_firestore_v1_ValueEEE, symObjAddr: 0xD8, symBinAddr: 0xA870, symSize: 0x4 }
  - { offsetInCU: 0x9016, offset: 0x4D49A, size: 0x8, addend: 0x0, symName: __ZNK8firebase9firestore4core22ArrayContainsAnyFilter3Rep7MatchesERKNS0_5model8DocumentE, symObjAddr: 0xDC, symBinAddr: 0xA874, symSize: 0xB4 }
  - { offsetInCU: 0x9367, offset: 0x4D7EB, size: 0x8, addend: 0x0, symName: __ZN8firebase9firestore4core22ArrayContainsAnyFilter3RepD1Ev, symObjAddr: 0x190, symBinAddr: 0xA928, symSize: 0x68 }
  - { offsetInCU: 0x9556, offset: 0x4D9DA, size: 0x8, addend: 0x0, symName: __ZNSt3__110shared_ptrIN8firebase9firestore6nanopb7MessageINS2_26_google_firestore_v1_ValueEEEED2B8ue170006Ev, symObjAddr: 0x2EC, symBinAddr: 0xAA84, symSize: 0x58 }
  - { offsetInCU: 0x966C, offset: 0x4DAF0, size: 0x8, addend: 0x0, symName: __ZNSt3__110shared_ptrIN8firebase9firestore4util18ThreadSafeMemoizerINS_6vectorINS2_4core11FieldFilterENS_9allocatorIS7_EEEEEEED2B8ue170006Ev, symObjAddr: 0x404, symBinAddr: 0xAAF4, symSize: 0x58 }
  - { offsetInCU: 0x9719, offset: 0x4DB9D, size: 0x8, addend: 0x0, symName: __ZN8firebase9firestore4core22ArrayContainsAnyFilter3RepD0Ev, symObjAddr: 0x1F8, symBinAddr: 0xA990, symSize: 0x6C }
  - { offsetInCU: 0x992E, offset: 0x4DDB2, size: 0x8, addend: 0x0, symName: __ZNK8firebase9firestore4core22ArrayContainsAnyFilter3Rep4typeEv, symObjAddr: 0x264, symBinAddr: 0xA9FC, symSize: 0x8 }
  - { offsetInCU: 0x9953, offset: 0x4DDD7, size: 0x8, addend: 0x0, symName: __ZNK8firebase9firestore4core11FieldFilter3Rep14IsAFieldFilterEv, symObjAddr: 0x26C, symBinAddr: 0xAA04, symSize: 0x8 }
  - { offsetInCU: 0x9978, offset: 0x4DDFC, size: 0x8, addend: 0x0, symName: __ZNK8firebase9firestore4core6Filter3Rep18IsACompositeFilterEv, symObjAddr: 0x274, symBinAddr: 0xAA0C, symSize: 0x8 }
  - { offsetInCU: 0x999D, offset: 0x4DE21, size: 0x8, addend: 0x0, symName: __ZNK8firebase9firestore4core11FieldFilter3Rep7IsEmptyEv, symObjAddr: 0x27C, symBinAddr: 0xAA14, symSize: 0x8 }
  - { offsetInCU: 0x99C2, offset: 0x4DE46, size: 0x8, addend: 0x0, symName: __ZN8firebase9firestore4core11FieldFilter3RepD2Ev, symObjAddr: 0x284, symBinAddr: 0xAA1C, symSize: 0x68 }
  - { offsetInCU: 0x9DF4, offset: 0x4E278, size: 0x8, addend: 0x0, symName: __ZN8firebase9firestore4core6Filter3RepD1Ev, symObjAddr: 0x3E4, symBinAddr: 0x17B374, symSize: 0x4 }
  - { offsetInCU: 0x9E1C, offset: 0x4E2A0, size: 0x8, addend: 0x0, symName: __ZN8firebase9firestore4core6Filter3RepD0Ev, symObjAddr: 0x3E8, symBinAddr: 0x17B378, symSize: 0x4 }
  - { offsetInCU: 0x9E44, offset: 0x4E2C8, size: 0x8, addend: 0x0, symName: __ZNK8firebase9firestore4core6Filter3Rep4typeEv, symObjAddr: 0x3EC, symBinAddr: 0xAADC, symSize: 0x8 }
  - { offsetInCU: 0x9E69, offset: 0x4E2ED, size: 0x8, addend: 0x0, symName: __ZNK8firebase9firestore4core6Filter3Rep14IsAFieldFilterEv, symObjAddr: 0x3F4, symBinAddr: 0xAAE4, symSize: 0x8 }
  - { offsetInCU: 0x9E8E, offset: 0x4E312, size: 0x8, addend: 0x0, symName: __ZNK8firebase9firestore4core6Filter3Rep12IsInequalityEv, symObjAddr: 0x3FC, symBinAddr: 0xAAEC, symSize: 0x8 }
  - { offsetInCU: 0xA0EF, offset: 0x4E573, size: 0x8, addend: 0x0, symName: __ZNSt3__120__shared_ptr_emplaceIN8firebase9firestore4core22ArrayContainsAnyFilter3RepENS_9allocatorIS5_EEEC2B8ue170006IJRKNS2_5model9FieldPathENS2_6nanopb13SharedMessageINS2_26_google_firestore_v1_ValueEEEEEES7_DpOT_, symObjAddr: 0x53C, symBinAddr: 0xABD4, symSize: 0x110 }
  - { offsetInCU: 0xA8A2, offset: 0x4ED26, size: 0x8, addend: 0x0, symName: __ZNSt3__16vectorINS_12basic_stringIcNS_11char_traitsIcEENS_9allocatorIcEEEENS4_IS6_EEE16__init_with_sizeB8ue170006IPS6_SA_EEvT_T0_m, symObjAddr: 0x694, symBinAddr: 0xAD2C, symSize: 0x84 }
  - { offsetInCU: 0xAB1A, offset: 0x4EF9E, size: 0x8, addend: 0x0, symName: __ZN8firebase9firestore4core22ArrayContainsAnyFilter3RepC2ENS0_5model9FieldPathENS0_6nanopb13SharedMessageINS0_26_google_firestore_v1_ValueEEE, symObjAddr: 0xA00, symBinAddr: 0xAF94, symSize: 0x14C }
  - { offsetInCU: 0xB291, offset: 0x4F715, size: 0x8, addend: 0x0, symName: __ZNSt3__120__shared_ptr_emplaceIN8firebase9firestore4core22ArrayContainsAnyFilter3RepENS_9allocatorIS5_EEED1Ev, symObjAddr: 0x64C, symBinAddr: 0xACE4, symSize: 0x14 }
  - { offsetInCU: 0xB2B3, offset: 0x4F737, size: 0x8, addend: 0x0, symName: __ZNSt3__120__shared_ptr_emplaceIN8firebase9firestore4core22ArrayContainsAnyFilter3RepENS_9allocatorIS5_EEED1Ev, symObjAddr: 0x64C, symBinAddr: 0xACE4, symSize: 0x14 }
  - { offsetInCU: 0xB2EA, offset: 0x4F76E, size: 0x8, addend: 0x0, symName: __ZNSt3__120__shared_ptr_emplaceIN8firebase9firestore4core22ArrayContainsAnyFilter3RepENS_9allocatorIS5_EEED0Ev, symObjAddr: 0x660, symBinAddr: 0xACF8, symSize: 0x24 }
  - { offsetInCU: 0xB34F, offset: 0x4F7D3, size: 0x8, addend: 0x0, symName: __ZNSt3__120__shared_ptr_emplaceIN8firebase9firestore4core22ArrayContainsAnyFilter3RepENS_9allocatorIS5_EEE16__on_zero_sharedEv, symObjAddr: 0x684, symBinAddr: 0xAD1C, symSize: 0xC }
  - { offsetInCU: 0xB380, offset: 0x4F804, size: 0x8, addend: 0x0, symName: __ZNSt3__120__shared_ptr_emplaceIN8firebase9firestore4core22ArrayContainsAnyFilter3RepENS_9allocatorIS5_EEE21__on_zero_shared_weakEv, symObjAddr: 0x690, symBinAddr: 0xAD28, symSize: 0x4 }
  - { offsetInCU: 0xB3B1, offset: 0x4F835, size: 0x8, addend: 0x0, symName: __ZNSt3__120__shared_ptr_emplaceIN8firebase9firestore4core22ArrayContainsAnyFilter3RepENS_9allocatorIS5_EEE21__on_zero_shared_weakEv, symObjAddr: 0x690, symBinAddr: 0xAD28, symSize: 0x4 }
  - { offsetInCU: 0xB3D4, offset: 0x4F858, size: 0x8, addend: 0x0, symName: __ZNSt3__120__shared_ptr_emplaceIN8firebase9firestore4core22ArrayContainsAnyFilter3RepENS_9allocatorIS5_EEE21__on_zero_shared_weakEv, symObjAddr: 0x690, symBinAddr: 0xAD28, symSize: 0x4 }
  - { offsetInCU: 0xB3F7, offset: 0x4F87B, size: 0x8, addend: 0x0, symName: __ZNSt3__120__shared_ptr_emplaceIN8firebase9firestore4core22ArrayContainsAnyFilter3RepENS_9allocatorIS5_EEE21__on_zero_shared_weakEv, symObjAddr: 0x690, symBinAddr: 0xAD28, symSize: 0x4 }
  - { offsetInCU: 0xB424, offset: 0x4F8A8, size: 0x8, addend: 0x0, symName: __ZNSt3__120__shared_ptr_emplaceIN8firebase9firestore4core22ArrayContainsAnyFilter3RepENS_9allocatorIS5_EEE21__on_zero_shared_weakEv, symObjAddr: 0x690, symBinAddr: 0xAD28, symSize: 0x4 }
  - { offsetInCU: 0xB44B, offset: 0x4F8CF, size: 0x8, addend: 0x0, symName: __ZNSt3__120__shared_ptr_emplaceIN8firebase9firestore4core22ArrayContainsAnyFilter3RepENS_9allocatorIS5_EEE21__on_zero_shared_weakEv, symObjAddr: 0x690, symBinAddr: 0xAD28, symSize: 0x4 }
  - { offsetInCU: 0xB62D, offset: 0x4FAB1, size: 0x8, addend: 0x0, symName: __ZNSt3__16vectorINS_12basic_stringIcNS_11char_traitsIcEENS_9allocatorIcEEEENS4_IS6_EEE11__vallocateB8ue170006Em, symObjAddr: 0x718, symBinAddr: 0xADB0, symSize: 0x50 }
  - { offsetInCU: 0xB6A5, offset: 0x4FB29, size: 0x8, addend: 0x0, symName: __ZNKSt3__16vectorINS_12basic_stringIcNS_11char_traitsIcEENS_9allocatorIcEEEENS4_IS6_EEE20__throw_length_errorB8ue170006Ev, symObjAddr: 0x768, symBinAddr: 0xAE00, symSize: 0x14 }
  - { offsetInCU: 0xB6B7, offset: 0x4FB3B, size: 0x8, addend: 0x0, symName: __ZNKSt3__16vectorINS_12basic_stringIcNS_11char_traitsIcEENS_9allocatorIcEEEENS4_IS6_EEE20__throw_length_errorB8ue170006Ev, symObjAddr: 0x768, symBinAddr: 0xAE00, symSize: 0x14 }
  - { offsetInCU: 0xB6DF, offset: 0x4FB63, size: 0x8, addend: 0x0, symName: __ZNSt3__119__allocate_at_leastB8ue170006INS_9allocatorINS_12basic_stringIcNS_11char_traitsIcEENS1_IcEEEEEEEENS_19__allocation_resultINS_16allocator_traitsIT_E7pointerEEERSA_m, symObjAddr: 0x77C, symBinAddr: 0xAE14, symSize: 0x44 }
  - { offsetInCU: 0xBAA9, offset: 0x4FF2D, size: 0x8, addend: 0x0, symName: __ZNSt3__128__exception_guard_exceptionsINS_29_AllocatorDestroyRangeReverseINS_9allocatorINS_12basic_stringIcNS_11char_traitsIcEENS2_IcEEEEEEPS7_EEED2B8ue170006Ev, symObjAddr: 0x980, symBinAddr: 0xAF14, symSize: 0x34 }
  - { offsetInCU: 0xBC1C, offset: 0x500A0, size: 0x8, addend: 0x0, symName: __ZNSt3__128__exception_guard_exceptionsINS_29_AllocatorDestroyRangeReverseINS_9allocatorINS_12basic_stringIcNS_11char_traitsIcEENS2_IcEEEEEEPS7_EEED2B8ue170006Ev, symObjAddr: 0x980, symBinAddr: 0xAF14, symSize: 0x34 }
  - { offsetInCU: 0xBC27, offset: 0x500AB, size: 0x8, addend: 0x0, symName: __ZNKSt3__129_AllocatorDestroyRangeReverseINS_9allocatorINS_12basic_stringIcNS_11char_traitsIcEENS1_IcEEEEEEPS6_EclB8ue170006Ev, symObjAddr: 0x9B4, symBinAddr: 0xAF48, symSize: 0x4C }
  - { offsetInCU: 0x53A2, offset: 0x5586D, size: 0x8, addend: 0x0, symName: __ZNSt3__115allocate_sharedB8ue170006IKN8firebase9firestore4core19ArrayContainsFilter3RepENS_9allocatorIS6_EEJRKNS2_5model9FieldPathENS2_6nanopb13SharedMessageINS2_26_google_firestore_v1_ValueEEEEvEENS_10shared_ptrIT_EERKT0_DpOT1_, symObjAddr: 0x418, symBinAddr: 0xB370, symSize: 0x60 }
  - { offsetInCU: 0x83CF, offset: 0x5889A, size: 0x8, addend: 0x0, symName: __ZN8firebase9firestore4core19ArrayContainsFilterC2ERKNS0_5model9FieldPathENS0_6nanopb13SharedMessageINS0_26_google_firestore_v1_ValueEEE, symObjAddr: 0x0, symBinAddr: 0xB138, symSize: 0xD8 }
  - { offsetInCU: 0x86B1, offset: 0x58B7C, size: 0x8, addend: 0x0, symName: __ZNSt3__110shared_ptrIKN8firebase9firestore4core19ArrayContainsFilter3RepEED2B8ue170006Ev, symObjAddr: 0xA38, symBinAddr: 0xB5FC, symSize: 0x58 }
  - { offsetInCU: 0x873B, offset: 0x58C06, size: 0x8, addend: 0x0, symName: __ZN8firebase9firestore4core19ArrayContainsFilterC1ERKNS0_5model9FieldPathENS0_6nanopb13SharedMessageINS0_26_google_firestore_v1_ValueEEE, symObjAddr: 0xD8, symBinAddr: 0xB210, symSize: 0x4 }
  - { offsetInCU: 0x8783, offset: 0x58C4E, size: 0x8, addend: 0x0, symName: __ZN8firebase9firestore4core19ArrayContainsFilterC1ERKNS0_5model9FieldPathENS0_6nanopb13SharedMessageINS0_26_google_firestore_v1_ValueEEE, symObjAddr: 0xD8, symBinAddr: 0xB210, symSize: 0x4 }
  - { offsetInCU: 0x8881, offset: 0x58D4C, size: 0x8, addend: 0x0, symName: __ZNK8firebase9firestore4core19ArrayContainsFilter3Rep7MatchesERKNS0_5model8DocumentE, symObjAddr: 0xDC, symBinAddr: 0xB214, symSize: 0x80 }
  - { offsetInCU: 0x8BB6, offset: 0x59081, size: 0x8, addend: 0x0, symName: __ZN8firebase9firestore4core19ArrayContainsFilter3RepD1Ev, symObjAddr: 0x15C, symBinAddr: 0xB294, symSize: 0x68 }
  - { offsetInCU: 0x8EF4, offset: 0x593BF, size: 0x8, addend: 0x0, symName: __ZN8firebase9firestore4core19ArrayContainsFilter3RepD0Ev, symObjAddr: 0x1C4, symBinAddr: 0xB2FC, symSize: 0x6C }
  - { offsetInCU: 0x9109, offset: 0x595D4, size: 0x8, addend: 0x0, symName: __ZNK8firebase9firestore4core19ArrayContainsFilter3Rep4typeEv, symObjAddr: 0x230, symBinAddr: 0xB368, symSize: 0x8 }
  - { offsetInCU: 0x95E5, offset: 0x59AB0, size: 0x8, addend: 0x0, symName: __ZNSt3__120__shared_ptr_emplaceIKN8firebase9firestore4core19ArrayContainsFilter3RepENS_9allocatorIS6_EEEC2B8ue170006IJRKNS2_5model9FieldPathENS2_6nanopb13SharedMessageINS2_26_google_firestore_v1_ValueEEEEEES8_DpOT_, symObjAddr: 0x4A0, symBinAddr: 0xB3D0, symSize: 0x110 }
  - { offsetInCU: 0x9F27, offset: 0x5A3F2, size: 0x8, addend: 0x0, symName: __ZN8firebase9firestore4core19ArrayContainsFilter3RepC2ENS0_5model9FieldPathENS0_6nanopb13SharedMessageINS0_26_google_firestore_v1_ValueEEE, symObjAddr: 0x964, symBinAddr: 0xB528, symSize: 0xD4 }
  - { offsetInCU: 0xA409, offset: 0x5A8D4, size: 0x8, addend: 0x0, symName: __ZNSt3__120__shared_ptr_emplaceIKN8firebase9firestore4core19ArrayContainsFilter3RepENS_9allocatorIS6_EEED1Ev, symObjAddr: 0x5B0, symBinAddr: 0xB4E0, symSize: 0x14 }
  - { offsetInCU: 0xA42B, offset: 0x5A8F6, size: 0x8, addend: 0x0, symName: __ZNSt3__120__shared_ptr_emplaceIKN8firebase9firestore4core19ArrayContainsFilter3RepENS_9allocatorIS6_EEED1Ev, symObjAddr: 0x5B0, symBinAddr: 0xB4E0, symSize: 0x14 }
  - { offsetInCU: 0xA462, offset: 0x5A92D, size: 0x8, addend: 0x0, symName: __ZNSt3__120__shared_ptr_emplaceIKN8firebase9firestore4core19ArrayContainsFilter3RepENS_9allocatorIS6_EEED0Ev, symObjAddr: 0x5C4, symBinAddr: 0xB4F4, symSize: 0x24 }
  - { offsetInCU: 0xA4C7, offset: 0x5A992, size: 0x8, addend: 0x0, symName: __ZNSt3__120__shared_ptr_emplaceIKN8firebase9firestore4core19ArrayContainsFilter3RepENS_9allocatorIS6_EEE16__on_zero_sharedEv, symObjAddr: 0x5E8, symBinAddr: 0xB518, symSize: 0xC }
  - { offsetInCU: 0xA4F8, offset: 0x5A9C3, size: 0x8, addend: 0x0, symName: __ZNSt3__120__shared_ptr_emplaceIKN8firebase9firestore4core19ArrayContainsFilter3RepENS_9allocatorIS6_EEE21__on_zero_shared_weakEv, symObjAddr: 0x5F4, symBinAddr: 0xB524, symSize: 0x4 }
  - { offsetInCU: 0xA529, offset: 0x5A9F4, size: 0x8, addend: 0x0, symName: __ZNSt3__120__shared_ptr_emplaceIKN8firebase9firestore4core19ArrayContainsFilter3RepENS_9allocatorIS6_EEE21__on_zero_shared_weakEv, symObjAddr: 0x5F4, symBinAddr: 0xB524, symSize: 0x4 }
  - { offsetInCU: 0xA54C, offset: 0x5AA17, size: 0x8, addend: 0x0, symName: __ZNSt3__120__shared_ptr_emplaceIKN8firebase9firestore4core19ArrayContainsFilter3RepENS_9allocatorIS6_EEE21__on_zero_shared_weakEv, symObjAddr: 0x5F4, symBinAddr: 0xB524, symSize: 0x4 }
  - { offsetInCU: 0xA56F, offset: 0x5AA3A, size: 0x8, addend: 0x0, symName: __ZNSt3__120__shared_ptr_emplaceIKN8firebase9firestore4core19ArrayContainsFilter3RepENS_9allocatorIS6_EEE21__on_zero_shared_weakEv, symObjAddr: 0x5F4, symBinAddr: 0xB524, symSize: 0x4 }
  - { offsetInCU: 0xA59C, offset: 0x5AA67, size: 0x8, addend: 0x0, symName: __ZNSt3__120__shared_ptr_emplaceIKN8firebase9firestore4core19ArrayContainsFilter3RepENS_9allocatorIS6_EEE21__on_zero_shared_weakEv, symObjAddr: 0x5F4, symBinAddr: 0xB524, symSize: 0x4 }
  - { offsetInCU: 0xA5C3, offset: 0x5AA8E, size: 0x8, addend: 0x0, symName: __ZNSt3__120__shared_ptr_emplaceIKN8firebase9firestore4core19ArrayContainsFilter3RepENS_9allocatorIS6_EEE21__on_zero_shared_weakEv, symObjAddr: 0x5F4, symBinAddr: 0xB524, symSize: 0x4 }
  - { offsetInCU: 0x8140, offset: 0x6358F, size: 0x8, addend: 0x0, symName: __ZNSt3__119__allocate_at_leastB8ue170006INS_9allocatorIN8firebase9firestore4util7TimerIdEEEEENS_19__allocation_resultINS_16allocator_traitsIT_E7pointerEEERS9_m, symObjAddr: 0x16F0, symBinAddr: 0xCC08, symSize: 0x34 }
  - { offsetInCU: 0x81DF, offset: 0x6362E, size: 0x8, addend: 0x0, symName: __ZN4absl12lts_202206238AlphaNumC2Ei.cold.1, symObjAddr: 0x1724, symBinAddr: 0x17B37C, symSize: 0x28 }
  - { offsetInCU: 0x9B4D, offset: 0x64F9C, size: 0x8, addend: 0x0, symName: __ZN8firebase9firestore4util12StringFormatIJNSt3__112basic_stringIcNS3_11char_traitsIcEENS3_9allocatorIcEEEES9_EEES9_PKcDpRKT_, symObjAddr: 0x314, symBinAddr: 0xB95C, symSize: 0x88 }
  - { offsetInCU: 0x9F15, offset: 0x65364, size: 0x8, addend: 0x0, symName: __ZN8firebase9firestore4util12StringFormatIJNS1_7TimerIdEEEENSt3__112basic_stringIcNS4_11char_traitsIcEENS4_9allocatorIcEEEEPKcDpRKT_, symObjAddr: 0x15A8, symBinAddr: 0xCB34, symSize: 0x7C }
  - { offsetInCU: 0xA8D3, offset: 0x65D22, size: 0x8, addend: 0x0, symName: __ZNSt3__110shared_ptrIN8firebase9firestore4util10AsyncQueueEE18__enable_weak_thisB8ue170006IS4_S4_vEEvPKNS_23enable_shared_from_thisIT_EEPT0_, symObjAddr: 0xFDC, symBinAddr: 0xC624, symSize: 0xB0 }
  - { offsetInCU: 0xABEA, offset: 0x66039, size: 0x8, addend: 0x0, symName: __ZN8firebase9firestore4util10AsyncQueue4WrapERKNSt3__18functionIFvvEEE, symObjAddr: 0x8F8, symBinAddr: 0xBF40, symSize: 0x154 }
  - { offsetInCU: 0xB453, offset: 0x668A2, size: 0x8, addend: 0x0, symName: __ZN8firebase9firestore4util10AsyncQueue27RunScheduledOperationsUntilENS1_7TimerIdE, symObjAddr: 0xD18, symBinAddr: 0xC360, symSize: 0x150 }
  - { offsetInCU: 0xDB44, offset: 0x68F93, size: 0x8, addend: 0x0, symName: __ZN8firebase9firestore4util10AsyncQueue6CreateENSt3__110unique_ptrINS1_8ExecutorENS3_14default_deleteIS5_EEEE, symObjAddr: 0x0, symBinAddr: 0xB654, symSize: 0x6C }
  - { offsetInCU: 0xDDEC, offset: 0x6923B, size: 0x8, addend: 0x0, symName: __ZNSt3__110shared_ptrIN8firebase9firestore4util10AsyncQueueEEC2B8ue170006IS4_vEEPT_, symObjAddr: 0xF68, symBinAddr: 0xC5B0, symSize: 0x74 }
  - { offsetInCU: 0xDF76, offset: 0x693C5, size: 0x8, addend: 0x0, symName: __ZN8firebase9firestore4util10AsyncQueueC1ENSt3__110unique_ptrINS1_8ExecutorENS3_14default_deleteIS5_EEEE, symObjAddr: 0x6C, symBinAddr: 0xB6C0, symSize: 0x40 }
  - { offsetInCU: 0xDFA0, offset: 0x693EF, size: 0x8, addend: 0x0, symName: __ZN8firebase9firestore4util10AsyncQueueC1ENSt3__110unique_ptrINS1_8ExecutorENS3_14default_deleteIS5_EEEE, symObjAddr: 0x6C, symBinAddr: 0xB6C0, symSize: 0x40 }
  - { offsetInCU: 0xDFC3, offset: 0x69412, size: 0x8, addend: 0x0, symName: __ZN8firebase9firestore4util10AsyncQueueC1ENSt3__110unique_ptrINS1_8ExecutorENS3_14default_deleteIS5_EEEE, symObjAddr: 0x6C, symBinAddr: 0xB6C0, symSize: 0x40 }
  - { offsetInCU: 0xDFDF, offset: 0x6942E, size: 0x8, addend: 0x0, symName: __ZN8firebase9firestore4util10AsyncQueueC1ENSt3__110unique_ptrINS1_8ExecutorENS3_14default_deleteIS5_EEEE, symObjAddr: 0x6C, symBinAddr: 0xB6C0, symSize: 0x40 }
  - { offsetInCU: 0xDFFB, offset: 0x6944A, size: 0x8, addend: 0x0, symName: __ZN8firebase9firestore4util10AsyncQueueC1ENSt3__110unique_ptrINS1_8ExecutorENS3_14default_deleteIS5_EEEE, symObjAddr: 0x6C, symBinAddr: 0xB6C0, symSize: 0x40 }
  - { offsetInCU: 0xE199, offset: 0x695E8, size: 0x8, addend: 0x0, symName: __ZN8firebase9firestore4util10AsyncQueueC2ENSt3__110unique_ptrINS1_8ExecutorENS3_14default_deleteIS5_EEEE, symObjAddr: 0xAC, symBinAddr: 0xB700, symSize: 0x40 }
  - { offsetInCU: 0xE1C3, offset: 0x69612, size: 0x8, addend: 0x0, symName: __ZN8firebase9firestore4util10AsyncQueueC2ENSt3__110unique_ptrINS1_8ExecutorENS3_14default_deleteIS5_EEEE, symObjAddr: 0xAC, symBinAddr: 0xB700, symSize: 0x40 }
  - { offsetInCU: 0xE1DF, offset: 0x6962E, size: 0x8, addend: 0x0, symName: __ZN8firebase9firestore4util10AsyncQueueC2ENSt3__110unique_ptrINS1_8ExecutorENS3_14default_deleteIS5_EEEE, symObjAddr: 0xAC, symBinAddr: 0xB700, symSize: 0x40 }
  - { offsetInCU: 0xE1FB, offset: 0x6964A, size: 0x8, addend: 0x0, symName: __ZN8firebase9firestore4util10AsyncQueueC2ENSt3__110unique_ptrINS1_8ExecutorENS3_14default_deleteIS5_EEEE, symObjAddr: 0xAC, symBinAddr: 0xB700, symSize: 0x40 }
  - { offsetInCU: 0xE624, offset: 0x69A73, size: 0x8, addend: 0x0, symName: __ZN8firebase9firestore4util10AsyncQueueD2Ev, symObjAddr: 0xEC, symBinAddr: 0xB740, symSize: 0x8C }
  - { offsetInCU: 0xE93B, offset: 0x69D8A, size: 0x8, addend: 0x0, symName: __ZN8firebase9firestore4util10AsyncQueue7DisposeEv, symObjAddr: 0x178, symBinAddr: 0xB7CC, symSize: 0x44 }
  - { offsetInCU: 0xE9FF, offset: 0x69E4E, size: 0x8, addend: 0x0, symName: __ZN8firebase9firestore4util10AsyncQueueD1Ev, symObjAddr: 0x1C8, symBinAddr: 0xB810, symSize: 0x4 }
  - { offsetInCU: 0xEA22, offset: 0x69E71, size: 0x8, addend: 0x0, symName: __ZN8firebase9firestore4util10AsyncQueueD1Ev, symObjAddr: 0x1C8, symBinAddr: 0xB810, symSize: 0x4 }
  - { offsetInCU: 0xEA35, offset: 0x69E84, size: 0x8, addend: 0x0, symName: __ZN8firebase9firestore4util10AsyncQueue19EnterRestrictedModeEv, symObjAddr: 0x1CC, symBinAddr: 0xB814, symSize: 0x40 }
  - { offsetInCU: 0xEB8A, offset: 0x69FD9, size: 0x8, addend: 0x0, symName: __ZNK8firebase9firestore4util10AsyncQueue23VerifyIsCurrentExecutorEv, symObjAddr: 0x20C, symBinAddr: 0xB854, symSize: 0x108 }
  - { offsetInCU: 0xF282, offset: 0x6A6D1, size: 0x8, addend: 0x0, symName: __ZNK8firebase9firestore4util10AsyncQueue20VerifyIsCurrentQueueEv, symObjAddr: 0x39C, symBinAddr: 0xB9E4, symSize: 0x104 }
  - { offsetInCU: 0xF873, offset: 0x6ACC2, size: 0x8, addend: 0x0, symName: __ZN8firebase9firestore4util10AsyncQueue15ExecuteBlockingERKNSt3__18functionIFvvEEE, symObjAddr: 0x4A0, symBinAddr: 0xBAE8, symSize: 0xBC }
  - { offsetInCU: 0xFBC7, offset: 0x6B016, size: 0x8, addend: 0x0, symName: __ZN8firebase9firestore4util10AsyncQueue7EnqueueERKNSt3__18functionIFvvEEE, symObjAddr: 0x55C, symBinAddr: 0xBBA4, symSize: 0x2C }
  - { offsetInCU: 0xFC2D, offset: 0x6B07C, size: 0x8, addend: 0x0, symName: __ZNK8firebase9firestore4util10AsyncQueue21VerifySequentialOrderEv, symObjAddr: 0x588, symBinAddr: 0xBBD0, symSize: 0x114 }
  - { offsetInCU: 0x101F5, offset: 0x6B644, size: 0x8, addend: 0x0, symName: __ZN8firebase9firestore4util10AsyncQueue14EnqueueRelaxedERKNSt3__18functionIFvvEEE, symObjAddr: 0x69C, symBinAddr: 0xBCE4, symSize: 0x12C }
  - { offsetInCU: 0x1049B, offset: 0x6B8EA, size: 0x8, addend: 0x0, symName: __ZN8firebase9firestore4util10AsyncQueue26EnqueueEvenWhileRestrictedERKNSt3__18functionIFvvEEE, symObjAddr: 0x7C8, symBinAddr: 0xBE10, symSize: 0x130 }
  - { offsetInCU: 0x10C90, offset: 0x6C0DF, size: 0x8, addend: 0x0, symName: __ZNSt3__110__function12__value_funcIFvvEEC2B8ue170006ERKS3_, symObjAddr: 0x119C, symBinAddr: 0xC750, symSize: 0x64 }
  - { offsetInCU: 0x10CDA, offset: 0x6C129, size: 0x8, addend: 0x0, symName: __ZNK8firebase9firestore4util10AsyncQueue10is_runningEv, symObjAddr: 0xA4C, symBinAddr: 0xC094, symSize: 0x40 }
  - { offsetInCU: 0x10D92, offset: 0x6C1E1, size: 0x8, addend: 0x0, symName: __ZN8firebase9firestore4util10AsyncQueue17EnqueueAfterDelayENSt3__16chrono8durationIxNS3_5ratioILl1ELl1000EEEEENS1_7TimerIdERKNS3_8functionIFvvEEE, symObjAddr: 0xA8C, symBinAddr: 0xC0D4, symSize: 0x18C }
  - { offsetInCU: 0x110F6, offset: 0x6C545, size: 0x8, addend: 0x0, symName: __ZN8firebase9firestore4util10AsyncQueue15EnqueueBlockingERKNSt3__18functionIFvvEEE, symObjAddr: 0xC18, symBinAddr: 0xC260, symSize: 0xF0 }
  - { offsetInCU: 0x112A6, offset: 0x6C6F5, size: 0x8, addend: 0x0, symName: __ZNK8firebase9firestore4util10AsyncQueue11IsScheduledENS1_7TimerIdE, symObjAddr: 0xD08, symBinAddr: 0xC350, symSize: 0x10 }
  - { offsetInCU: 0x112D1, offset: 0x6C720, size: 0x8, addend: 0x0, symName: __ZNK8firebase9firestore4util10AsyncQueue11IsScheduledENS1_7TimerIdE, symObjAddr: 0xD08, symBinAddr: 0xC350, symSize: 0x10 }
  - { offsetInCU: 0x11928, offset: 0x6CD77, size: 0x8, addend: 0x0, symName: __ZN8firebase9firestore4util10AsyncQueue20SkipDelaysForTimerIdENS1_7TimerIdE, symObjAddr: 0xE68, symBinAddr: 0xC4B0, symSize: 0x100 }
  - { offsetInCU: 0x11D6C, offset: 0x6D1BB, size: 0x8, addend: 0x0, symName: __ZNKSt3__16vectorIN8firebase9firestore4util7TimerIdENS_9allocatorIS4_EEE20__throw_length_errorB8ue170006Ev, symObjAddr: 0x1668, symBinAddr: 0xCBF4, symSize: 0x14 }
  - { offsetInCU: 0x12272, offset: 0x6D6C1, size: 0x8, addend: 0x0, symName: __ZNSt3__120__shared_ptr_pointerIPN8firebase9firestore4util10AsyncQueueENS_10shared_ptrIS4_E27__shared_ptr_default_deleteIS4_S4_EENS_9allocatorIS4_EEED1Ev, symObjAddr: 0x108C, symBinAddr: 0xC6D4, symSize: 0x4 }
  - { offsetInCU: 0x12294, offset: 0x6D6E3, size: 0x8, addend: 0x0, symName: __ZNSt3__120__shared_ptr_pointerIPN8firebase9firestore4util10AsyncQueueENS_10shared_ptrIS4_E27__shared_ptr_default_deleteIS4_S4_EENS_9allocatorIS4_EEED1Ev, symObjAddr: 0x108C, symBinAddr: 0xC6D4, symSize: 0x4 }
  - { offsetInCU: 0x122C9, offset: 0x6D718, size: 0x8, addend: 0x0, symName: __ZNSt3__120__shared_ptr_pointerIPN8firebase9firestore4util10AsyncQueueENS_10shared_ptrIS4_E27__shared_ptr_default_deleteIS4_S4_EENS_9allocatorIS4_EEED0Ev, symObjAddr: 0x1090, symBinAddr: 0xC6D8, symSize: 0x14 }
  - { offsetInCU: 0x1232B, offset: 0x6D77A, size: 0x8, addend: 0x0, symName: __ZNSt3__120__shared_ptr_pointerIPN8firebase9firestore4util10AsyncQueueENS_10shared_ptrIS4_E27__shared_ptr_default_deleteIS4_S4_EENS_9allocatorIS4_EEE16__on_zero_sharedEv, symObjAddr: 0x10A4, symBinAddr: 0xC6EC, symSize: 0x24 }
  - { offsetInCU: 0x1239A, offset: 0x6D7E9, size: 0x8, addend: 0x0, symName: __ZNKSt3__120__shared_ptr_pointerIPN8firebase9firestore4util10AsyncQueueENS_10shared_ptrIS4_E27__shared_ptr_default_deleteIS4_S4_EENS_9allocatorIS4_EEE13__get_deleterERKSt9type_info, symObjAddr: 0x10C8, symBinAddr: 0xC710, symSize: 0x3C }
  - { offsetInCU: 0x12480, offset: 0x6D8CF, size: 0x8, addend: 0x0, symName: __ZNSt3__120__shared_ptr_pointerIPN8firebase9firestore4util10AsyncQueueENS_10shared_ptrIS4_E27__shared_ptr_default_deleteIS4_S4_EENS_9allocatorIS4_EEE21__on_zero_shared_weakEv, symObjAddr: 0x1104, symBinAddr: 0xC74C, symSize: 0x4 }
  - { offsetInCU: 0x124B5, offset: 0x6D904, size: 0x8, addend: 0x0, symName: __ZNSt3__120__shared_ptr_pointerIPN8firebase9firestore4util10AsyncQueueENS_10shared_ptrIS4_E27__shared_ptr_default_deleteIS4_S4_EENS_9allocatorIS4_EEE21__on_zero_shared_weakEv, symObjAddr: 0x1104, symBinAddr: 0xC74C, symSize: 0x4 }
  - { offsetInCU: 0x124D7, offset: 0x6D926, size: 0x8, addend: 0x0, symName: __ZNSt3__120__shared_ptr_pointerIPN8firebase9firestore4util10AsyncQueueENS_10shared_ptrIS4_E27__shared_ptr_default_deleteIS4_S4_EENS_9allocatorIS4_EEE21__on_zero_shared_weakEv, symObjAddr: 0x1104, symBinAddr: 0xC74C, symSize: 0x4 }
  - { offsetInCU: 0x12504, offset: 0x6D953, size: 0x8, addend: 0x0, symName: __ZNSt3__120__shared_ptr_pointerIPN8firebase9firestore4util10AsyncQueueENS_10shared_ptrIS4_E27__shared_ptr_default_deleteIS4_S4_EENS_9allocatorIS4_EEE21__on_zero_shared_weakEv, symObjAddr: 0x1104, symBinAddr: 0xC74C, symSize: 0x4 }
  - { offsetInCU: 0x1252A, offset: 0x6D979, size: 0x8, addend: 0x0, symName: __ZNSt3__120__shared_ptr_pointerIPN8firebase9firestore4util10AsyncQueueENS_10shared_ptrIS4_E27__shared_ptr_default_deleteIS4_S4_EENS_9allocatorIS4_EEE21__on_zero_shared_weakEv, symObjAddr: 0x1104, symBinAddr: 0xC74C, symSize: 0x4 }
  - { offsetInCU: 0x12667, offset: 0x6DAB6, size: 0x8, addend: 0x0, symName: '__ZNSt3__110__function6__funcIZN8firebase9firestore4util10AsyncQueue4WrapERKNS_8functionIFvvEEEE3$_0NS_9allocatorISB_EES7_ED1Ev', symObjAddr: 0x1228, symBinAddr: 0xC7B4, symSize: 0x5C }
  - { offsetInCU: 0x1281C, offset: 0x6DC6B, size: 0x8, addend: 0x0, symName: '__ZNSt3__110__function6__funcIZN8firebase9firestore4util10AsyncQueue4WrapERKNS_8functionIFvvEEEE3$_0NS_9allocatorISB_EES7_ED0Ev', symObjAddr: 0x1284, symBinAddr: 0xC810, symSize: 0x5C }
  - { offsetInCU: 0x12C51, offset: 0x6E0A0, size: 0x8, addend: 0x0, symName: '__ZNKSt3__110__function6__funcIZN8firebase9firestore4util10AsyncQueue4WrapERKNS_8functionIFvvEEEE3$_0NS_9allocatorISB_EES7_E7__cloneEv', symObjAddr: 0x12E0, symBinAddr: 0xC86C, symSize: 0x58 }
  - { offsetInCU: 0x13108, offset: 0x6E557, size: 0x8, addend: 0x0, symName: '__ZNKSt3__110__function6__funcIZN8firebase9firestore4util10AsyncQueue4WrapERKNS_8functionIFvvEEEE3$_0NS_9allocatorISB_EES7_E7__cloneEPNS0_6__baseIS7_EE', symObjAddr: 0x1338, symBinAddr: 0xC8C4, symSize: 0x20 }
  - { offsetInCU: 0x13143, offset: 0x6E592, size: 0x8, addend: 0x0, symName: '__ZNKSt3__110__function6__funcIZN8firebase9firestore4util10AsyncQueue4WrapERKNS_8functionIFvvEEEE3$_0NS_9allocatorISB_EES7_E7__cloneEPNS0_6__baseIS7_EE', symObjAddr: 0x1338, symBinAddr: 0xC8C4, symSize: 0x20 }
  - { offsetInCU: 0x13173, offset: 0x6E5C2, size: 0x8, addend: 0x0, symName: '__ZNKSt3__110__function6__funcIZN8firebase9firestore4util10AsyncQueue4WrapERKNS_8functionIFvvEEEE3$_0NS_9allocatorISB_EES7_E7__cloneEPNS0_6__baseIS7_EE', symObjAddr: 0x1338, symBinAddr: 0xC8C4, symSize: 0x20 }
  - { offsetInCU: 0x1332D, offset: 0x6E77C, size: 0x8, addend: 0x0, symName: '__ZNSt3__110__function6__funcIZN8firebase9firestore4util10AsyncQueue4WrapERKNS_8functionIFvvEEEE3$_0NS_9allocatorISB_EES7_E7destroyEv', symObjAddr: 0x1358, symBinAddr: 0xC8E4, symSize: 0x34 }
  - { offsetInCU: 0x13358, offset: 0x6E7A7, size: 0x8, addend: 0x0, symName: '__ZNSt3__110__function6__funcIZN8firebase9firestore4util10AsyncQueue4WrapERKNS_8functionIFvvEEEE3$_0NS_9allocatorISB_EES7_E7destroyEv', symObjAddr: 0x1358, symBinAddr: 0xC8E4, symSize: 0x34 }
  - { offsetInCU: 0x13375, offset: 0x6E7C4, size: 0x8, addend: 0x0, symName: '__ZNSt3__110__function6__funcIZN8firebase9firestore4util10AsyncQueue4WrapERKNS_8functionIFvvEEEE3$_0NS_9allocatorISB_EES7_E7destroyEv', symObjAddr: 0x1358, symBinAddr: 0xC8E4, symSize: 0x34 }
  - { offsetInCU: 0x13392, offset: 0x6E7E1, size: 0x8, addend: 0x0, symName: '__ZNSt3__110__function6__funcIZN8firebase9firestore4util10AsyncQueue4WrapERKNS_8functionIFvvEEEE3$_0NS_9allocatorISB_EES7_E7destroyEv', symObjAddr: 0x1358, symBinAddr: 0xC8E4, symSize: 0x34 }
  - { offsetInCU: 0x133AF, offset: 0x6E7FE, size: 0x8, addend: 0x0, symName: '__ZNSt3__110__function6__funcIZN8firebase9firestore4util10AsyncQueue4WrapERKNS_8functionIFvvEEEE3$_0NS_9allocatorISB_EES7_E7destroyEv', symObjAddr: 0x1358, symBinAddr: 0xC8E4, symSize: 0x34 }
  - { offsetInCU: 0x133CC, offset: 0x6E81B, size: 0x8, addend: 0x0, symName: '__ZNSt3__110__function6__funcIZN8firebase9firestore4util10AsyncQueue4WrapERKNS_8functionIFvvEEEE3$_0NS_9allocatorISB_EES7_E7destroyEv', symObjAddr: 0x1358, symBinAddr: 0xC8E4, symSize: 0x34 }
  - { offsetInCU: 0x133E9, offset: 0x6E838, size: 0x8, addend: 0x0, symName: '__ZNSt3__110__function6__funcIZN8firebase9firestore4util10AsyncQueue4WrapERKNS_8functionIFvvEEEE3$_0NS_9allocatorISB_EES7_E7destroyEv', symObjAddr: 0x1358, symBinAddr: 0xC8E4, symSize: 0x34 }
  - { offsetInCU: 0x13491, offset: 0x6E8E0, size: 0x8, addend: 0x0, symName: '__ZNSt3__110__function6__funcIZN8firebase9firestore4util10AsyncQueue4WrapERKNS_8functionIFvvEEEE3$_0NS_9allocatorISB_EES7_E18destroy_deallocateEv', symObjAddr: 0x138C, symBinAddr: 0xC918, symSize: 0x50 }
  - { offsetInCU: 0x136FC, offset: 0x6EB4B, size: 0x8, addend: 0x0, symName: '__ZNSt3__110__function6__funcIZN8firebase9firestore4util10AsyncQueue4WrapERKNS_8functionIFvvEEEE3$_0NS_9allocatorISB_EES7_EclEv', symObjAddr: 0x13DC, symBinAddr: 0xC968, symSize: 0x10 }
  - { offsetInCU: 0x137AC, offset: 0x6EBFB, size: 0x8, addend: 0x0, symName: '__ZNKSt3__110__function6__funcIZN8firebase9firestore4util10AsyncQueue4WrapERKNS_8functionIFvvEEEE3$_0NS_9allocatorISB_EES7_E6targetERKSt9type_info', symObjAddr: 0x13EC, symBinAddr: 0xC978, symSize: 0x3C }
  - { offsetInCU: 0x137F9, offset: 0x6EC48, size: 0x8, addend: 0x0, symName: '__ZNKSt3__110__function6__funcIZN8firebase9firestore4util10AsyncQueue4WrapERKNS_8functionIFvvEEEE3$_0NS_9allocatorISB_EES7_E11target_typeEv', symObjAddr: 0x1428, symBinAddr: 0xC9B4, symSize: 0xC }
  - { offsetInCU: 0x1381D, offset: 0x6EC6C, size: 0x8, addend: 0x0, symName: '__ZNSt3__110__function6__funcIZN8firebase9firestore4util10AsyncQueue27RunScheduledOperationsUntilENS4_7TimerIdEE3$_1NS_9allocatorIS7_EEFvvEED1Ev', symObjAddr: 0x1434, symBinAddr: 0xC9C0, symSize: 0x4 }
  - { offsetInCU: 0x13848, offset: 0x6EC97, size: 0x8, addend: 0x0, symName: '__ZNSt3__110__function6__funcIZN8firebase9firestore4util10AsyncQueue27RunScheduledOperationsUntilENS4_7TimerIdEE3$_1NS_9allocatorIS7_EEFvvEED0Ev', symObjAddr: 0x1438, symBinAddr: 0xC9C4, symSize: 0x4 }
  - { offsetInCU: 0x13A40, offset: 0x6EE8F, size: 0x8, addend: 0x0, symName: '__ZNKSt3__110__function6__funcIZN8firebase9firestore4util10AsyncQueue27RunScheduledOperationsUntilENS4_7TimerIdEE3$_1NS_9allocatorIS7_EEFvvEE7__cloneEv', symObjAddr: 0x143C, symBinAddr: 0xC9C8, symSize: 0x38 }
  - { offsetInCU: 0x13D5D, offset: 0x6F1AC, size: 0x8, addend: 0x0, symName: '__ZNKSt3__110__function6__funcIZN8firebase9firestore4util10AsyncQueue27RunScheduledOperationsUntilENS4_7TimerIdEE3$_1NS_9allocatorIS7_EEFvvEE7__cloneEPNS0_6__baseISA_EE', symObjAddr: 0x1474, symBinAddr: 0xCA00, symSize: 0x18 }
  - { offsetInCU: 0x13D95, offset: 0x6F1E4, size: 0x8, addend: 0x0, symName: '__ZNKSt3__110__function6__funcIZN8firebase9firestore4util10AsyncQueue27RunScheduledOperationsUntilENS4_7TimerIdEE3$_1NS_9allocatorIS7_EEFvvEE7__cloneEPNS0_6__baseISA_EE', symObjAddr: 0x1474, symBinAddr: 0xCA00, symSize: 0x18 }
  - { offsetInCU: 0x13DC3, offset: 0x6F212, size: 0x8, addend: 0x0, symName: '__ZNKSt3__110__function6__funcIZN8firebase9firestore4util10AsyncQueue27RunScheduledOperationsUntilENS4_7TimerIdEE3$_1NS_9allocatorIS7_EEFvvEE7__cloneEPNS0_6__baseISA_EE', symObjAddr: 0x1474, symBinAddr: 0xCA00, symSize: 0x18 }
  - { offsetInCU: 0x13ED8, offset: 0x6F327, size: 0x8, addend: 0x0, symName: '__ZNSt3__110__function6__funcIZN8firebase9firestore4util10AsyncQueue27RunScheduledOperationsUntilENS4_7TimerIdEE3$_1NS_9allocatorIS7_EEFvvEE7destroyEv', symObjAddr: 0x148C, symBinAddr: 0xCA18, symSize: 0x4 }
  - { offsetInCU: 0x13F26, offset: 0x6F375, size: 0x8, addend: 0x0, symName: '__ZNSt3__110__function6__funcIZN8firebase9firestore4util10AsyncQueue27RunScheduledOperationsUntilENS4_7TimerIdEE3$_1NS_9allocatorIS7_EEFvvEE18destroy_deallocateEv', symObjAddr: 0x1490, symBinAddr: 0xCA1C, symSize: 0x4 }
  - { offsetInCU: 0x13F5B, offset: 0x6F3AA, size: 0x8, addend: 0x0, symName: '__ZNSt3__110__function6__funcIZN8firebase9firestore4util10AsyncQueue27RunScheduledOperationsUntilENS4_7TimerIdEE3$_1NS_9allocatorIS7_EEFvvEE18destroy_deallocateEv', symObjAddr: 0x1490, symBinAddr: 0xCA1C, symSize: 0x4 }
  - { offsetInCU: 0x13F7D, offset: 0x6F3CC, size: 0x8, addend: 0x0, symName: '__ZNSt3__110__function6__funcIZN8firebase9firestore4util10AsyncQueue27RunScheduledOperationsUntilENS4_7TimerIdEE3$_1NS_9allocatorIS7_EEFvvEE18destroy_deallocateEv', symObjAddr: 0x1490, symBinAddr: 0xCA1C, symSize: 0x4 }
  - { offsetInCU: 0x13FAA, offset: 0x6F3F9, size: 0x8, addend: 0x0, symName: '__ZNSt3__110__function6__funcIZN8firebase9firestore4util10AsyncQueue27RunScheduledOperationsUntilENS4_7TimerIdEE3$_1NS_9allocatorIS7_EEFvvEE18destroy_deallocateEv', symObjAddr: 0x1490, symBinAddr: 0xCA1C, symSize: 0x4 }
  - { offsetInCU: 0x13FD0, offset: 0x6F41F, size: 0x8, addend: 0x0, symName: '__ZNSt3__110__function6__funcIZN8firebase9firestore4util10AsyncQueue27RunScheduledOperationsUntilENS4_7TimerIdEE3$_1NS_9allocatorIS7_EEFvvEE18destroy_deallocateEv', symObjAddr: 0x1490, symBinAddr: 0xCA1C, symSize: 0x4 }
  - { offsetInCU: 0x140AE, offset: 0x6F4FD, size: 0x8, addend: 0x0, symName: '__ZNSt3__110__function6__funcIZN8firebase9firestore4util10AsyncQueue27RunScheduledOperationsUntilENS4_7TimerIdEE3$_1NS_9allocatorIS7_EEFvvEEclEv', symObjAddr: 0x1494, symBinAddr: 0xCA20, symSize: 0xCC }
  - { offsetInCU: 0x14330, offset: 0x6F77F, size: 0x8, addend: 0x0, symName: '__ZNKSt3__110__function6__funcIZN8firebase9firestore4util10AsyncQueue27RunScheduledOperationsUntilENS4_7TimerIdEE3$_1NS_9allocatorIS7_EEFvvEE6targetERKSt9type_info', symObjAddr: 0x1560, symBinAddr: 0xCAEC, symSize: 0x3C }
  - { offsetInCU: 0x1437D, offset: 0x6F7CC, size: 0x8, addend: 0x0, symName: '__ZNKSt3__110__function6__funcIZN8firebase9firestore4util10AsyncQueue27RunScheduledOperationsUntilENS4_7TimerIdEE3$_1NS_9allocatorIS7_EEFvvEE11target_typeEv', symObjAddr: 0x159C, symBinAddr: 0xCB28, symSize: 0xC }
  - { offsetInCU: 0x1447F, offset: 0x6F8CE, size: 0x8, addend: 0x0, symName: __ZN4absl12lts_202206238AlphaNumC2Ei, symObjAddr: 0x1624, symBinAddr: 0xCBB0, symSize: 0x44 }
  - { offsetInCU: 0x14537, offset: 0x6F986, size: 0x8, addend: 0x0, symName: __ZNKSt3__16vectorIN8firebase9firestore4util7TimerIdENS_9allocatorIS4_EEE20__throw_length_errorB8ue170006Ev, symObjAddr: 0x1668, symBinAddr: 0xCBF4, symSize: 0x14 }
  - { offsetInCU: 0x145F5, offset: 0x6FA44, size: 0x8, addend: 0x0, symName: __ZN4absl12lts_202206238AlphaNumC2Ei.cold.1, symObjAddr: 0x1724, symBinAddr: 0x17B37C, symSize: 0x28 }
  - { offsetInCU: 0x26, offset: 0x6FBF1, size: 0x8, addend: 0x0, symName: __ZN8firebase9firestore11credentials9AuthTokenC2Ev, symObjAddr: 0x0, symBinAddr: 0xCC3C, symSize: 0x7C }
  - { offsetInCU: 0x28F3, offset: 0x724BE, size: 0x8, addend: 0x0, symName: __ZN8firebase9firestore11credentials9AuthToken15UnauthenticatedEv, symObjAddr: 0x17C, symBinAddr: 0xCDB8, symSize: 0x74 }
  - { offsetInCU: 0x2915, offset: 0x724E0, size: 0x8, addend: 0x0, symName: __ZZN8firebase9firestore11credentials9AuthToken15UnauthenticatedEvE21kUnauthenticatedToken, symObjAddr: 0x14D30, symBinAddr: 0x242C30, symSize: 0x0 }
  - { offsetInCU: 0x4921, offset: 0x744EC, size: 0x8, addend: 0x0, symName: __ZN8firebase9firestore11credentials9AuthTokenC2Ev, symObjAddr: 0x0, symBinAddr: 0xCC3C, symSize: 0x7C }
  - { offsetInCU: 0x4D70, offset: 0x7493B, size: 0x8, addend: 0x0, symName: __ZN8firebase9firestore11credentials9AuthTokenC1Ev, symObjAddr: 0x7C, symBinAddr: 0xCCB8, symSize: 0x4 }
  - { offsetInCU: 0x4D93, offset: 0x7495E, size: 0x8, addend: 0x0, symName: __ZN8firebase9firestore11credentials9AuthTokenC1Ev, symObjAddr: 0x7C, symBinAddr: 0xCCB8, symSize: 0x4 }
  - { offsetInCU: 0x4DEF, offset: 0x749BA, size: 0x8, addend: 0x0, symName: __ZN8firebase9firestore11credentials9AuthTokenC2ENSt3__112basic_stringIcNS3_11char_traitsIcEENS3_9allocatorIcEEEENS1_4UserE, symObjAddr: 0x80, symBinAddr: 0xCCBC, symSize: 0x84 }
  - { offsetInCU: 0x5081, offset: 0x74C4C, size: 0x8, addend: 0x0, symName: __ZN8firebase9firestore11credentials9AuthTokenC1ENSt3__112basic_stringIcNS3_11char_traitsIcEENS3_9allocatorIcEEEENS1_4UserE, symObjAddr: 0x104, symBinAddr: 0xCD40, symSize: 0x4 }
  - { offsetInCU: 0x50CA, offset: 0x74C95, size: 0x8, addend: 0x0, symName: __ZN8firebase9firestore11credentials9AuthTokenC1ENSt3__112basic_stringIcNS3_11char_traitsIcEENS3_9allocatorIcEEEENS1_4UserE, symObjAddr: 0x104, symBinAddr: 0xCD40, symSize: 0x4 }
  - { offsetInCU: 0x5104, offset: 0x74CCF, size: 0x8, addend: 0x0, symName: __ZNK8firebase9firestore11credentials9AuthToken5tokenEv, symObjAddr: 0x108, symBinAddr: 0xCD44, symSize: 0x74 }
  - { offsetInCU: 0x26, offset: 0x75101, size: 0x8, addend: 0x0, symName: __ZN8firebase9firestore4util12CreateAutoIdEv, symObjAddr: 0x0, symBinAddr: 0xCE2C, symSize: 0xA8 }
  - { offsetInCU: 0xD7, offset: 0x751B2, size: 0x8, addend: 0x0, symName: __ZN8firebase9firestore4util12CreateAutoIdEv, symObjAddr: 0x0, symBinAddr: 0xCE2C, symSize: 0xA8 }
  - { offsetInCU: 0x2895, offset: 0x77970, size: 0x8, addend: 0x0, symName: __ZNSt3__124uniform_int_distributionIiEclIN8firebase9firestore4util12SecureRandomEEEiRT_RKNS1_10param_typeE, symObjAddr: 0xA8, symBinAddr: 0xCED4, symSize: 0xA8 }
  - { offsetInCU: 0x2973, offset: 0x7C53D, size: 0x8, addend: 0x0, symName: __ZN8firebase9firestore4util15BackgroundQueue7ExecuteEONSt3__18functionIFvvEEE, symObjAddr: 0x80, symBinAddr: 0xCFFC, symSize: 0x1A8 }
  - { offsetInCU: 0x507A, offset: 0x7EC44, size: 0x8, addend: 0x0, symName: __ZN8firebase9firestore4util15BackgroundQueueC2EPNS1_8ExecutorE, symObjAddr: 0x0, symBinAddr: 0xCF7C, symSize: 0x40 }
  - { offsetInCU: 0x5141, offset: 0x7ED0B, size: 0x8, addend: 0x0, symName: __ZN8firebase9firestore4util15BackgroundQueueC1EPNS1_8ExecutorE, symObjAddr: 0x40, symBinAddr: 0xCFBC, symSize: 0x40 }
  - { offsetInCU: 0x517A, offset: 0x7ED44, size: 0x8, addend: 0x0, symName: __ZN8firebase9firestore4util15BackgroundQueueC1EPNS1_8ExecutorE, symObjAddr: 0x40, symBinAddr: 0xCFBC, symSize: 0x40 }
  - { offsetInCU: 0x5880, offset: 0x7F44A, size: 0x8, addend: 0x0, symName: __ZNSt3__110__function12__value_funcIFvvEEC2B8ue170006EOS3_, symObjAddr: 0x55C, symBinAddr: 0xD468, symSize: 0x64 }
  - { offsetInCU: 0x5919, offset: 0x7F4E3, size: 0x8, addend: 0x0, symName: __ZN8firebase9firestore4util15BackgroundQueue8AwaitAllEv, symObjAddr: 0x228, symBinAddr: 0xD1A4, symSize: 0x68 }
  - { offsetInCU: 0x5B61, offset: 0x7F72B, size: 0x8, addend: 0x0, symName: '__ZNSt3__110__function6__funcIZN8firebase9firestore4util15BackgroundQueue7ExecuteEONS_8functionIFvvEEEE3$_0NS_9allocatorISA_EES7_ED1Ev', symObjAddr: 0x300, symBinAddr: 0xD20C, symSize: 0x5C }
  - { offsetInCU: 0x5D16, offset: 0x7F8E0, size: 0x8, addend: 0x0, symName: '__ZNSt3__110__function6__funcIZN8firebase9firestore4util15BackgroundQueue7ExecuteEONS_8functionIFvvEEEE3$_0NS_9allocatorISA_EES7_ED0Ev', symObjAddr: 0x35C, symBinAddr: 0xD268, symSize: 0x5C }
  - { offsetInCU: 0x61C4, offset: 0x7FD8E, size: 0x8, addend: 0x0, symName: '__ZNKSt3__110__function6__funcIZN8firebase9firestore4util15BackgroundQueue7ExecuteEONS_8functionIFvvEEEE3$_0NS_9allocatorISA_EES7_E7__cloneEv', symObjAddr: 0x3B8, symBinAddr: 0xD2C4, symSize: 0x58 }
  - { offsetInCU: 0x667B, offset: 0x80245, size: 0x8, addend: 0x0, symName: '__ZNKSt3__110__function6__funcIZN8firebase9firestore4util15BackgroundQueue7ExecuteEONS_8functionIFvvEEEE3$_0NS_9allocatorISA_EES7_E7__cloneEPNS0_6__baseIS7_EE', symObjAddr: 0x410, symBinAddr: 0xD31C, symSize: 0x20 }
  - { offsetInCU: 0x66B6, offset: 0x80280, size: 0x8, addend: 0x0, symName: '__ZNKSt3__110__function6__funcIZN8firebase9firestore4util15BackgroundQueue7ExecuteEONS_8functionIFvvEEEE3$_0NS_9allocatorISA_EES7_E7__cloneEPNS0_6__baseIS7_EE', symObjAddr: 0x410, symBinAddr: 0xD31C, symSize: 0x20 }
  - { offsetInCU: 0x66E6, offset: 0x802B0, size: 0x8, addend: 0x0, symName: '__ZNKSt3__110__function6__funcIZN8firebase9firestore4util15BackgroundQueue7ExecuteEONS_8functionIFvvEEEE3$_0NS_9allocatorISA_EES7_E7__cloneEPNS0_6__baseIS7_EE', symObjAddr: 0x410, symBinAddr: 0xD31C, symSize: 0x20 }
  - { offsetInCU: 0x68A0, offset: 0x8046A, size: 0x8, addend: 0x0, symName: '__ZNSt3__110__function6__funcIZN8firebase9firestore4util15BackgroundQueue7ExecuteEONS_8functionIFvvEEEE3$_0NS_9allocatorISA_EES7_E7destroyEv', symObjAddr: 0x430, symBinAddr: 0xD33C, symSize: 0x34 }
  - { offsetInCU: 0x68CB, offset: 0x80495, size: 0x8, addend: 0x0, symName: '__ZNSt3__110__function6__funcIZN8firebase9firestore4util15BackgroundQueue7ExecuteEONS_8functionIFvvEEEE3$_0NS_9allocatorISA_EES7_E7destroyEv', symObjAddr: 0x430, symBinAddr: 0xD33C, symSize: 0x34 }
  - { offsetInCU: 0x68E8, offset: 0x804B2, size: 0x8, addend: 0x0, symName: '__ZNSt3__110__function6__funcIZN8firebase9firestore4util15BackgroundQueue7ExecuteEONS_8functionIFvvEEEE3$_0NS_9allocatorISA_EES7_E7destroyEv', symObjAddr: 0x430, symBinAddr: 0xD33C, symSize: 0x34 }
  - { offsetInCU: 0x6905, offset: 0x804CF, size: 0x8, addend: 0x0, symName: '__ZNSt3__110__function6__funcIZN8firebase9firestore4util15BackgroundQueue7ExecuteEONS_8functionIFvvEEEE3$_0NS_9allocatorISA_EES7_E7destroyEv', symObjAddr: 0x430, symBinAddr: 0xD33C, symSize: 0x34 }
  - { offsetInCU: 0x6922, offset: 0x804EC, size: 0x8, addend: 0x0, symName: '__ZNSt3__110__function6__funcIZN8firebase9firestore4util15BackgroundQueue7ExecuteEONS_8functionIFvvEEEE3$_0NS_9allocatorISA_EES7_E7destroyEv', symObjAddr: 0x430, symBinAddr: 0xD33C, symSize: 0x34 }
  - { offsetInCU: 0x693F, offset: 0x80509, size: 0x8, addend: 0x0, symName: '__ZNSt3__110__function6__funcIZN8firebase9firestore4util15BackgroundQueue7ExecuteEONS_8functionIFvvEEEE3$_0NS_9allocatorISA_EES7_E7destroyEv', symObjAddr: 0x430, symBinAddr: 0xD33C, symSize: 0x34 }
  - { offsetInCU: 0x695C, offset: 0x80526, size: 0x8, addend: 0x0, symName: '__ZNSt3__110__function6__funcIZN8firebase9firestore4util15BackgroundQueue7ExecuteEONS_8functionIFvvEEEE3$_0NS_9allocatorISA_EES7_E7destroyEv', symObjAddr: 0x430, symBinAddr: 0xD33C, symSize: 0x34 }
  - { offsetInCU: 0x6A04, offset: 0x805CE, size: 0x8, addend: 0x0, symName: '__ZNSt3__110__function6__funcIZN8firebase9firestore4util15BackgroundQueue7ExecuteEONS_8functionIFvvEEEE3$_0NS_9allocatorISA_EES7_E18destroy_deallocateEv', symObjAddr: 0x464, symBinAddr: 0xD370, symSize: 0x50 }
  - { offsetInCU: 0x6CAF, offset: 0x80879, size: 0x8, addend: 0x0, symName: '__ZNSt3__110__function6__funcIZN8firebase9firestore4util15BackgroundQueue7ExecuteEONS_8functionIFvvEEEE3$_0NS_9allocatorISA_EES7_EclEv', symObjAddr: 0x4B4, symBinAddr: 0xD3C0, symSize: 0x60 }
  - { offsetInCU: 0x6DF9, offset: 0x809C3, size: 0x8, addend: 0x0, symName: '__ZNKSt3__110__function6__funcIZN8firebase9firestore4util15BackgroundQueue7ExecuteEONS_8functionIFvvEEEE3$_0NS_9allocatorISA_EES7_E6targetERKSt9type_info', symObjAddr: 0x514, symBinAddr: 0xD420, symSize: 0x3C }
  - { offsetInCU: 0x6E04, offset: 0x809CE, size: 0x8, addend: 0x0, symName: '__ZNKSt3__110__function6__funcIZN8firebase9firestore4util15BackgroundQueue7ExecuteEONS_8functionIFvvEEEE3$_0NS_9allocatorISA_EES7_E6targetERKSt9type_info', symObjAddr: 0x514, symBinAddr: 0xD420, symSize: 0x3C }
  - { offsetInCU: 0x6E9A, offset: 0x80A64, size: 0x8, addend: 0x0, symName: '__ZNKSt3__110__function6__funcIZN8firebase9firestore4util15BackgroundQueue7ExecuteEONS_8functionIFvvEEEE3$_0NS_9allocatorISA_EES7_E11target_typeEv', symObjAddr: 0x550, symBinAddr: 0xD45C, symSize: 0xC }
  - { offsetInCU: 0x26, offset: 0x80B23, size: 0x8, addend: 0x0, symName: __ZN8firebase9firestore4util4Bits18Log2Floor_PortableEj, symObjAddr: 0x0, symBinAddr: 0xD4CC, symSize: 0xB0 }
  - { offsetInCU: 0x4285, offset: 0x84D82, size: 0x8, addend: 0x0, symName: __ZN8firebase9firestore4util4Bits18Log2Floor_PortableEj, symObjAddr: 0x0, symBinAddr: 0xD4CC, symSize: 0xB0 }
  - { offsetInCU: 0x9AA, offset: 0x8598E, size: 0x8, addend: 0x0, symName: __ZN8firebase9firestore6remoteeqERKNS1_11BloomFilterES4_, symObjAddr: 0x710, symBinAddr: 0xDC8C, symSize: 0xE0 }
  - { offsetInCU: 0x53BB, offset: 0x8A39F, size: 0x8, addend: 0x0, symName: __ZNK8firebase9firestore6remote11BloomFilter13Md5HashDigestEN4absl12lts_2022062311string_viewE, symObjAddr: 0x0, symBinAddr: 0xD57C, symSize: 0xC }
  - { offsetInCU: 0x549A, offset: 0x8A47E, size: 0x8, addend: 0x0, symName: __ZNK8firebase9firestore6remote11BloomFilter11GetBitIndexERKNS2_4HashEi, symObjAddr: 0xC, symBinAddr: 0xD588, symSize: 0xC4 }
  - { offsetInCU: 0x566C, offset: 0x8A650, size: 0x8, addend: 0x0, symName: __ZNK8firebase9firestore6remote11BloomFilter8IsBitSetEi, symObjAddr: 0xD0, symBinAddr: 0xD64C, symSize: 0x44 }
  - { offsetInCU: 0x56BF, offset: 0x8A6A3, size: 0x8, addend: 0x0, symName: __ZN8firebase9firestore6remote11BloomFilterC2ENS0_6nanopb10ByteStringEii, symObjAddr: 0x114, symBinAddr: 0xD690, symSize: 0x1C8 }
  - { offsetInCU: 0x5A97, offset: 0x8AA7B, size: 0x8, addend: 0x0, symName: __ZN8firebase9firestore6remote11BloomFilterC1ENS0_6nanopb10ByteStringEii, symObjAddr: 0x2DC, symBinAddr: 0xD858, symSize: 0x4 }
  - { offsetInCU: 0x5AD0, offset: 0x8AAB4, size: 0x8, addend: 0x0, symName: __ZN8firebase9firestore6remote11BloomFilterC1ENS0_6nanopb10ByteStringEii, symObjAddr: 0x2DC, symBinAddr: 0xD858, symSize: 0x4 }
  - { offsetInCU: 0x5ECE, offset: 0x8AEB2, size: 0x8, addend: 0x0, symName: __ZN8firebase9firestore6remote11BloomFilter6CreateENS0_6nanopb10ByteStringEii, symObjAddr: 0x2E0, symBinAddr: 0xD85C, symSize: 0x370 }
  - { offsetInCU: 0x6E37, offset: 0x8BE1B, size: 0x8, addend: 0x0, symName: __ZN8firebase9firestore4util17internal_statusor12StatusOrDataINS0_6remote11BloomFilterEEC2EONS1_6StatusE, symObjAddr: 0x824, symBinAddr: 0xDD6C, symSize: 0x60 }
  - { offsetInCU: 0x7139, offset: 0x8C11D, size: 0x8, addend: 0x0, symName: __ZNK8firebase9firestore6remote11BloomFilter12MightContainEN4absl12lts_2022062311string_viewE, symObjAddr: 0x650, symBinAddr: 0xDBCC, symSize: 0xC0 }
  - { offsetInCU: 0x26, offset: 0x8C43B, size: 0x8, addend: 0x0, symName: __ZNK8firebase9firestore32_google_firestore_v1_BitSequence8ToStringEi, symObjAddr: 0x0, symBinAddr: 0xDDCC, symSize: 0x244 }
  - { offsetInCU: 0x4A, offset: 0x8C45F, size: 0x8, addend: 0x0, symName: __ZN8firebase9firestore38google_firestore_v1_BitSequence_fieldsE, symObjAddr: 0xD48, symBinAddr: 0x182608, symSize: 0x0 }
  - { offsetInCU: 0x64, offset: 0x8C479, size: 0x8, addend: 0x0, symName: __ZN8firebase9firestore38google_firestore_v1_BloomFilter_fieldsE, symObjAddr: 0xDA8, symBinAddr: 0x22D0B0, symSize: 0x0 }
  - { offsetInCU: 0x599, offset: 0x8C9AE, size: 0x8, addend: 0x0, symName: __ZN8firebase9firestore6nanopb19PrintPrimitiveFieldIiEENSt3__112basic_stringIcNS3_11char_traitsIcEENS3_9allocatorIcEEEEN4absl12lts_2022062311string_viewET_ib, symObjAddr: 0x3D0, symBinAddr: 0xE010, symSize: 0x18C }
  - { offsetInCU: 0xEB3, offset: 0x8D2C8, size: 0x8, addend: 0x0, symName: __ZN8firebase9firestore6nanopb17PrintMessageFieldINS0_32_google_firestore_v1_BitSequenceEEENSt3__112basic_stringIcNS4_11char_traitsIcEENS4_9allocatorIcEEEEN4absl12lts_2022062311string_viewERKT_ib, symObjAddr: 0x844, symBinAddr: 0xE3BC, symSize: 0x274 }
  - { offsetInCU: 0x6730, offset: 0x92B45, size: 0x8, addend: 0x0, symName: __ZNK8firebase9firestore32_google_firestore_v1_BitSequence8ToStringEi, symObjAddr: 0x0, symBinAddr: 0xDDCC, symSize: 0x244 }
  - { offsetInCU: 0x7BAD, offset: 0x93FC2, size: 0x8, addend: 0x0, symName: __ZNK8firebase9firestore32_google_firestore_v1_BloomFilter8ToStringEi, symObjAddr: 0x624, symBinAddr: 0xE19C, symSize: 0x220 }
  - { offsetInCU: 0x1A3, offset: 0x9514B, size: 0x8, addend: 0x0, symName: __ZN8firebase9firestore4util16CompareContainerINSt3__16vectorINS3_12basic_stringIcNS3_11char_traitsIcEENS3_9allocatorIcEEEENS8_ISA_EEEEEENS1_16ComparisonResultERKT_SG_, symObjAddr: 0xCE0, symBinAddr: 0xF19C, symSize: 0x7C }
  - { offsetInCU: 0x373, offset: 0x9531B, size: 0x8, addend: 0x0, symName: __ZN8firebase9firestore4util12StringFormatIJNSt3__112basic_stringIcNS3_11char_traitsIcEENS3_9allocatorIcEEEEEEES9_PKcDpRKT_, symObjAddr: 0x36C, symBinAddr: 0xE99C, symSize: 0x6C }
  - { offsetInCU: 0xF03, offset: 0x95EAB, size: 0x8, addend: 0x0, symName: __ZN8firebase9firestore4corelsERNSt3__113basic_ostreamIcNS2_11char_traitsIcEEEERKNS1_5BoundE, symObjAddr: 0x634, symBinAddr: 0xEBDC, symSize: 0x88 }
  - { offsetInCU: 0x1238, offset: 0x961E0, size: 0x8, addend: 0x0, symName: __ZN8firebase9firestore4coreeqERKNS1_5BoundES4_, symObjAddr: 0x6BC, symBinAddr: 0xEC64, symSize: 0x13C }
  - { offsetInCU: 0x4833, offset: 0x997DB, size: 0x8, addend: 0x0, symName: __ZNSt3__124__put_character_sequenceB8ue170006IcNS_11char_traitsIcEEEERNS_13basic_ostreamIT_T0_EES7_PKS4_m, symObjAddr: 0x920, symBinAddr: 0xEE64, symSize: 0x164 }
  - { offsetInCU: 0x732B, offset: 0x9C2D3, size: 0x8, addend: 0x0, symName: __ZNSt3__116__pad_and_outputB8ue170006IcNS_11char_traitsIcEEEENS_19ostreambuf_iteratorIT_T0_EES6_PKS4_S8_S8_RNS_8ios_baseES4_, symObjAddr: 0xA84, symBinAddr: 0xEFC8, symSize: 0x13C }
  - { offsetInCU: 0x9DA1, offset: 0x9ED49, size: 0x8, addend: 0x0, symName: __ZN8firebase9firestore4core5Bound9FromValueENS0_6nanopb13SharedMessageINS0_31_google_firestore_v1_ArrayValueEEEb, symObjAddr: 0x0, symBinAddr: 0xE630, symSize: 0x50 }
  - { offsetInCU: 0x9F75, offset: 0x9EF1D, size: 0x8, addend: 0x0, symName: __ZNK8firebase9firestore4core5Bound19SortsBeforeDocumentERKNSt3__16vectorINS1_7OrderByENS3_9allocatorIS5_EEEERKNS0_5model8DocumentE, symObjAddr: 0x50, symBinAddr: 0xE680, symSize: 0x3C }
  - { offsetInCU: 0x9FEC, offset: 0x9EF94, size: 0x8, addend: 0x0, symName: __ZNK8firebase9firestore4core5Bound17CompareToDocumentERKNSt3__16vectorINS1_7OrderByENS3_9allocatorIS5_EEEERKNS0_5model8DocumentE, symObjAddr: 0x8C, symBinAddr: 0xE6BC, symSize: 0x2A4 }
  - { offsetInCU: 0xA9CA, offset: 0x9F972, size: 0x8, addend: 0x0, symName: __ZNSt3__110shared_ptrIKN8firebase9firestore5model12ResourcePathEED2B8ue170006Ev, symObjAddr: 0x8BC, symBinAddr: 0xEE0C, symSize: 0x58 }
  - { offsetInCU: 0xAA54, offset: 0x9F9FC, size: 0x8, addend: 0x0, symName: __ZNK8firebase9firestore4core5Bound18SortsAfterDocumentERKNSt3__16vectorINS1_7OrderByENS3_9allocatorIS5_EEEERKNS0_5model8DocumentE, symObjAddr: 0x330, symBinAddr: 0xE960, symSize: 0x3C }
  - { offsetInCU: 0xAC5D, offset: 0x9FC05, size: 0x8, addend: 0x0, symName: __ZNK8firebase9firestore4core5Bound14PositionStringEv, symObjAddr: 0x3D8, symBinAddr: 0xEA08, symSize: 0xF8 }
  - { offsetInCU: 0xB38C, offset: 0xA0334, size: 0x8, addend: 0x0, symName: __ZNK8firebase9firestore4core5Bound8ToStringEv, symObjAddr: 0x4D0, symBinAddr: 0xEB00, symSize: 0xDC }
  - { offsetInCU: 0xBA77, offset: 0xA0A1F, size: 0x8, addend: 0x0, symName: __ZNSt3__112basic_stringIcNS_11char_traitsIcEENS_9allocatorIcEEE16__init_with_sizeB8ue170006IPKcS8_EEvT_T0_m, symObjAddr: 0xD5C, symBinAddr: 0xF218, symSize: 0x94 }
  - { offsetInCU: 0xBE0D, offset: 0xA0DB5, size: 0x8, addend: 0x0, symName: __ZNK8firebase9firestore4core5Bound4HashEv, symObjAddr: 0x7F8, symBinAddr: 0xEDA0, symSize: 0x6C }
  - { offsetInCU: 0xC3AB, offset: 0xA1353, size: 0x8, addend: 0x0, symName: __ZNSt3__112basic_stringIcNS_11char_traitsIcEENS_9allocatorIcEEEC2B8ue170006Emc, symObjAddr: 0xBC0, symBinAddr: 0xF104, symSize: 0x98 }
  - { offsetInCU: 0x26, offset: 0xA1F4E, size: 0x8, addend: 0x0, symName: __ZN8firebase9firestore12EnumToStringENS0_33_firestore_BundledQuery_LimitTypeE, symObjAddr: 0x0, symBinAddr: 0xF2AC, symSize: 0x2C }
  - { offsetInCU: 0x4A, offset: 0xA1F72, size: 0x8, addend: 0x0, symName: __ZN8firebase9firestore29firestore_BundledQuery_fieldsE, symObjAddr: 0x2D18, symBinAddr: 0x22D110, symSize: 0x0 }
  - { offsetInCU: 0x64, offset: 0xA1F8C, size: 0x8, addend: 0x0, symName: __ZN8firebase9firestore27firestore_NamedQuery_fieldsE, symObjAddr: 0x2D98, symBinAddr: 0x22D190, symSize: 0x0 }
  - { offsetInCU: 0x7E, offset: 0xA1FA6, size: 0x8, addend: 0x0, symName: __ZN8firebase9firestore40firestore_BundledDocumentMetadata_fieldsE, symObjAddr: 0x2E18, symBinAddr: 0x22D210, symSize: 0x0 }
  - { offsetInCU: 0x98, offset: 0xA1FC0, size: 0x8, addend: 0x0, symName: __ZN8firebase9firestore31firestore_BundleMetadata_fieldsE, symObjAddr: 0x2EB8, symBinAddr: 0x22D2B0, symSize: 0x0 }
  - { offsetInCU: 0xB2, offset: 0xA1FDA, size: 0x8, addend: 0x0, symName: __ZN8firebase9firestore30firestore_BundleElement_fieldsE, symObjAddr: 0x2F78, symBinAddr: 0x22D370, symSize: 0x0 }
  - { offsetInCU: 0x6D5, offset: 0xA25FD, size: 0x8, addend: 0x0, symName: __ZN8firebase9firestore6nanopb17PrintMessageFieldINS0_36_google_firestore_v1_StructuredQueryEEENSt3__112basic_stringIcNS4_11char_traitsIcEENS4_9allocatorIcEEEEN4absl12lts_2022062311string_viewERKT_ib, symObjAddr: 0x464, symBinAddr: 0xF584, symSize: 0x274 }
  - { offsetInCU: 0x1359, offset: 0xA3281, size: 0x8, addend: 0x0, symName: __ZN8firebase9firestore6nanopb14PrintEnumFieldINS0_33_firestore_BundledQuery_LimitTypeEEENSt3__112basic_stringIcNS4_11char_traitsIcEENS4_9allocatorIcEEEEN4absl12lts_2022062311string_viewET_ib, symObjAddr: 0x6D8, symBinAddr: 0xF7F8, symSize: 0x16C }
  - { offsetInCU: 0x19A9, offset: 0xA38D1, size: 0x8, addend: 0x0, symName: __ZN8firebase9firestore6nanopb17PrintMessageFieldINS0_23_firestore_BundledQueryEEENSt3__112basic_stringIcNS4_11char_traitsIcEENS4_9allocatorIcEEEEN4absl12lts_2022062311string_viewERKT_ib, symObjAddr: 0xB78, symBinAddr: 0xFBD0, symSize: 0x274 }
  - { offsetInCU: 0x264F, offset: 0xA4577, size: 0x8, addend: 0x0, symName: __ZN8firebase9firestore6nanopb17PrintMessageFieldINS0_26_google_protobuf_TimestampEEENSt3__112basic_stringIcNS4_11char_traitsIcEENS4_9allocatorIcEEEEN4absl12lts_2022062311string_viewERKT_ib, symObjAddr: 0xDEC, symBinAddr: 0xFE44, symSize: 0x274 }
  - { offsetInCU: 0x32D3, offset: 0xA51FB, size: 0x8, addend: 0x0, symName: __ZN8firebase9firestore6nanopb19PrintPrimitiveFieldIbEENSt3__112basic_stringIcNS3_11char_traitsIcEENS3_9allocatorIcEEEEN4absl12lts_2022062311string_viewET_ib, symObjAddr: 0x1354, symBinAddr: 0x103AC, symSize: 0x18C }
  - { offsetInCU: 0x3B6A, offset: 0xA5A92, size: 0x8, addend: 0x0, symName: __ZN8firebase9firestore6nanopb19PrintPrimitiveFieldIjEENSt3__112basic_stringIcNS3_11char_traitsIcEENS3_9allocatorIcEEEEN4absl12lts_2022062311string_viewET_ib, symObjAddr: 0x1804, symBinAddr: 0x1085C, symSize: 0x18C }
  - { offsetInCU: 0x4415, offset: 0xA633D, size: 0x8, addend: 0x0, symName: __ZN8firebase9firestore6nanopb19PrintPrimitiveFieldIyEENSt3__112basic_stringIcNS3_11char_traitsIcEENS3_9allocatorIcEEEEN4absl12lts_2022062311string_viewET_ib, symObjAddr: 0x1990, symBinAddr: 0x109E8, symSize: 0x18C }
  - { offsetInCU: 0x4CC0, offset: 0xA6BE8, size: 0x8, addend: 0x0, symName: __ZN8firebase9firestore6nanopb17PrintMessageFieldINS0_25_firestore_BundleMetadataEEENSt3__112basic_stringIcNS4_11char_traitsIcEENS4_9allocatorIcEEEEN4absl12lts_2022062311string_viewERKT_ib, symObjAddr: 0x1E10, symBinAddr: 0x10E68, symSize: 0x274 }
  - { offsetInCU: 0x5BEC, offset: 0xA7B14, size: 0x8, addend: 0x0, symName: __ZN8firebase9firestore6nanopb17PrintMessageFieldINS0_21_firestore_NamedQueryEEENSt3__112basic_stringIcNS4_11char_traitsIcEENS4_9allocatorIcEEEEN4absl12lts_2022062311string_viewERKT_ib, symObjAddr: 0x2084, symBinAddr: 0x110DC, symSize: 0x274 }
  - { offsetInCU: 0x6B18, offset: 0xA8A40, size: 0x8, addend: 0x0, symName: __ZN8firebase9firestore6nanopb17PrintMessageFieldINS0_34_firestore_BundledDocumentMetadataEEENSt3__112basic_stringIcNS4_11char_traitsIcEENS4_9allocatorIcEEEEN4absl12lts_2022062311string_viewERKT_ib, symObjAddr: 0x22F8, symBinAddr: 0x11350, symSize: 0x274 }
  - { offsetInCU: 0x7A44, offset: 0xA996C, size: 0x8, addend: 0x0, symName: __ZN8firebase9firestore6nanopb17PrintMessageFieldINS0_29_google_firestore_v1_DocumentEEENSt3__112basic_stringIcNS4_11char_traitsIcEENS4_9allocatorIcEEEEN4absl12lts_2022062311string_viewERKT_ib, symObjAddr: 0x256C, symBinAddr: 0x115C4, symSize: 0x274 }
  - { offsetInCU: 0x86D7, offset: 0xAA5FF, size: 0x8, addend: 0x0, symName: __ZN8firebase9firestore12EnumToStringENS0_33_firestore_BundledQuery_LimitTypeE, symObjAddr: 0x0, symBinAddr: 0xF2AC, symSize: 0x2C }
  - { offsetInCU: 0xD986, offset: 0xAF8AE, size: 0x8, addend: 0x0, symName: __ZNK8firebase9firestore23_firestore_BundledQuery8ToStringEi, symObjAddr: 0x2C, symBinAddr: 0xF2D8, symSize: 0x2AC }
  - { offsetInCU: 0xF053, offset: 0xB0F7B, size: 0x8, addend: 0x0, symName: __ZNK8firebase9firestore21_firestore_NamedQuery8ToStringEi, symObjAddr: 0x90C, symBinAddr: 0xF964, symSize: 0x26C }
  - { offsetInCU: 0x10073, offset: 0xB1F9B, size: 0x8, addend: 0x0, symName: __ZNK8firebase9firestore34_firestore_BundledDocumentMetadata8ToStringEi, symObjAddr: 0x1060, symBinAddr: 0x100B8, symSize: 0x2F4 }
  - { offsetInCU: 0x1129E, offset: 0xB31C6, size: 0x8, addend: 0x0, symName: __ZNK8firebase9firestore25_firestore_BundleMetadata8ToStringEi, symObjAddr: 0x14E0, symBinAddr: 0x10538, symSize: 0x324 }
  - { offsetInCU: 0x126BD, offset: 0xB45E5, size: 0x8, addend: 0x0, symName: __ZNK8firebase9firestore24_firestore_BundleElement8ToStringEi, symObjAddr: 0x1B1C, symBinAddr: 0x10B74, symSize: 0x2F4 }
  - { offsetInCU: 0x9939, offset: 0xBEF29, size: 0x8, addend: 0x0, symName: __ZNSt3__1L19piecewise_constructE, symObjAddr: 0x8CB4, symBinAddr: 0x1829BF, symSize: 0x0 }
  - { offsetInCU: 0x18FAB, offset: 0xCE59B, size: 0x8, addend: 0x0, symName: __ZNSt3__119__allocate_at_leastB8ue170006INS_9allocatorIN8firebase9firestore6bundle10NamedQueryEEEEENS_19__allocation_resultINS_16allocator_traitsIT_E7pointerEEERS9_m, symObjAddr: 0x1F9C, symBinAddr: 0x13138, symSize: 0x44 }
  - { offsetInCU: 0x19049, offset: 0xCE639, size: 0x8, addend: 0x0, symName: __ZNSt3__19allocatorIN8firebase9firestore6bundle10NamedQueryEE9constructB8ue170006IS4_JS4_EEEvPT_DpOT0_, symObjAddr: 0x1FE0, symBinAddr: 0x1317C, symSize: 0x11C }
  - { offsetInCU: 0x199B3, offset: 0xCEFA3, size: 0x8, addend: 0x0, symName: __ZNSt3__119__allocate_at_leastB8ue170006INS_9allocatorIN8firebase9firestore4core6FilterEEEEENS_19__allocation_resultINS_16allocator_traitsIT_E7pointerEEERS9_m, symObjAddr: 0x19CC, symBinAddr: 0x12D50, symSize: 0x34 }
  - { offsetInCU: 0x19BAD, offset: 0xCF19D, size: 0x8, addend: 0x0, symName: __ZNSt3__135__uninitialized_allocator_copy_implB8ue170006INS_9allocatorIN8firebase9firestore4core7OrderByEEEPS5_S7_S7_EET2_RT_T0_T1_S8_, symObjAddr: 0x1BD4, symBinAddr: 0x12E90, symSize: 0xC4 }
  - { offsetInCU: 0x19E8D, offset: 0xCF47D, size: 0x8, addend: 0x0, symName: __ZNSt3__119__allocate_at_leastB8ue170006INS_9allocatorIN8firebase9firestore4core7OrderByEEEEENS_19__allocation_resultINS_16allocator_traitsIT_E7pointerEEERS9_m, symObjAddr: 0x1BA0, symBinAddr: 0x12E5C, symSize: 0x34 }
  - { offsetInCU: 0x19F2B, offset: 0xCF51B, size: 0x8, addend: 0x0, symName: __ZNSt3__135__uninitialized_allocator_copy_implB8ue170006INS_9allocatorIN8firebase9firestore4core7OrderByEEEPS5_S7_S7_EET2_RT_T0_T1_S8_, symObjAddr: 0x1BD4, symBinAddr: 0x12E90, symSize: 0xC4 }
  - { offsetInCU: 0x1A4B4, offset: 0xCFAA4, size: 0x8, addend: 0x0, symName: __ZNSt3__113__lower_boundB8ue170006INS_17_ClassicAlgPolicyEPKNS_4pairIN8firebase9firestore5model11DocumentKeyENS5_15MutableDocumentEEESA_S6_NS_10__identityEZNKS4_9immutable4impl14ArraySortedMapIS6_S7_NS4_4util10ComparatorIS6_EEE11lower_boundERKS6_EUlRS9_SK_E_EET0_SN_T1_RKT2_RT4_RT3_, symObjAddr: 0x46B4, symBinAddr: 0x15808, symSize: 0x90 }
  - { offsetInCU: 0x1A6FE, offset: 0xCFCEE, size: 0x8, addend: 0x0, symName: __ZNSt3__115allocate_sharedB8ue170006IN8firebase9firestore9immutable4impl10FixedArrayINS_4pairINS2_5model11DocumentKeyENS7_15MutableDocumentEEEEENS_9allocatorISB_EEJPKSA_RSF_EvEENS_10shared_ptrIT_EERKT0_DpOT1_, symObjAddr: 0x4744, symBinAddr: 0x15898, symSize: 0x60 }
  - { offsetInCU: 0x1A9CD, offset: 0xCFFBD, size: 0x8, addend: 0x0, symName: __ZNSt3__115allocate_sharedB8ue170006IN8firebase9firestore5model11ObjectValueENS_9allocatorIS4_EEJEvEENS_10shared_ptrIT_EERKT0_DpOT1_, symObjAddr: 0x30B8, symBinAddr: 0x14254, symSize: 0x48 }
  - { offsetInCU: 0x1B822, offset: 0xD0E12, size: 0x8, addend: 0x0, symName: __ZNSt3__115allocate_sharedB8ue170006IN8firebase9firestore9immutable4impl8LlrbNodeINS2_5model11DocumentKeyENS6_15MutableDocumentEE3RepENS_9allocatorISA_EEJSA_EvEENS_10shared_ptrIT_EERKT0_DpOT1_, symObjAddr: 0x3BA4, symBinAddr: 0x14CF8, symSize: 0x58 }
  - { offsetInCU: 0x1BF5D, offset: 0xD154D, size: 0x8, addend: 0x0, symName: __ZNSt3__121__unwrap_and_dispatchB8ue170006INS_10__overloadINS_11__copy_loopINS_17_ClassicAlgPolicyEEENS_14__copy_trivialEEEPKNS_4pairIN8firebase9firestore5model11DocumentKeyENSA_15MutableDocumentEEESF_PSD_Li0EEENS7_IT0_T2_EESH_T1_SI_, symObjAddr: 0x4A98, symBinAddr: 0x15BEC, symSize: 0x5C }
  - { offsetInCU: 0x1D289, offset: 0xD2879, size: 0x8, addend: 0x0, symName: __ZNSt3__113__lower_boundB8ue170006INS_17_ClassicAlgPolicyEPKNS_4pairIN8firebase9firestore5model11DocumentKeyENS4_4util5EmptyEEESB_S6_NS_10__identityEZNKS4_9immutable4impl14ArraySortedMapIS6_S8_NS7_10ComparatorIS6_EEE11lower_boundERKS6_EUlRSA_SK_E_EET0_SN_T1_RKT2_RT4_RT3_, symObjAddr: 0x7348, symBinAddr: 0x17F04, symSize: 0x90 }
  - { offsetInCU: 0x1D4D3, offset: 0xD2AC3, size: 0x8, addend: 0x0, symName: __ZNSt3__115allocate_sharedB8ue170006IN8firebase9firestore9immutable4impl10FixedArrayINS_4pairINS2_5model11DocumentKeyENS2_4util5EmptyEEEEENS_9allocatorISC_EEJPKSB_RSG_EvEENS_10shared_ptrIT_EERKT0_DpOT1_, symObjAddr: 0x73D8, symBinAddr: 0x17F94, symSize: 0x60 }
  - { offsetInCU: 0x1E577, offset: 0xD3B67, size: 0x8, addend: 0x0, symName: __ZNSt3__121__unwrap_and_dispatchB8ue170006INS_10__overloadINS_11__copy_loopINS_17_ClassicAlgPolicyEEENS_14__copy_trivialEEEPKNS_4pairIN8firebase9firestore5model11DocumentKeyENS9_4util5EmptyEEESG_PSE_Li0EEENS7_IT0_T2_EESI_T1_SJ_, symObjAddr: 0x7598, symBinAddr: 0x18154, symSize: 0x5C }
  - { offsetInCU: 0x1F3B7, offset: 0xD49A7, size: 0x8, addend: 0x0, symName: __ZN8firebase9firestore9immutable4impl8LlrbNodeINS0_5model11DocumentKeyENS4_15MutableDocumentEE8EmptyRepEv, symObjAddr: 0x2DF8, symBinAddr: 0x13F94, symSize: 0x7C }
  - { offsetInCU: 0x1F3D7, offset: 0xD49C7, size: 0x8, addend: 0x0, symName: __ZZN8firebase9firestore9immutable4impl8LlrbNodeINS0_5model11DocumentKeyENS4_15MutableDocumentEE8EmptyRepEvE9empty_rep, symObjAddr: 0x91B0, symBinAddr: 0x2426D8, symSize: 0x0 }
  - { offsetInCU: 0x1F4FA, offset: 0xD4AEA, size: 0x8, addend: 0x0, symName: __ZN8firebase9firestore9immutable4impl14ArraySortedMapINS0_5model11DocumentKeyENS0_4util5EmptyENS6_10ComparatorIS5_EEE10EmptyArrayEv, symObjAddr: 0x5AC0, symBinAddr: 0x1667C, symSize: 0xA0 }
  - { offsetInCU: 0x1F51B, offset: 0xD4B0B, size: 0x8, addend: 0x0, symName: __ZZN8firebase9firestore9immutable4impl14ArraySortedMapINS0_5model11DocumentKeyENS0_4util5EmptyENS6_10ComparatorIS5_EEE10EmptyArrayEvE11kEmptyArray, symObjAddr: 0x91C0, symBinAddr: 0x2426E8, symSize: 0x0 }
  - { offsetInCU: 0x1F655, offset: 0xD4C45, size: 0x8, addend: 0x0, symName: __ZN8firebase9firestore9immutable4impl8LlrbNodeINS0_5model11DocumentKeyENS0_4util5EmptyEE8EmptyRepEv, symObjAddr: 0x6614, symBinAddr: 0x171D0, symSize: 0x7C }
  - { offsetInCU: 0x1F675, offset: 0xD4C65, size: 0x8, addend: 0x0, symName: __ZZN8firebase9firestore9immutable4impl8LlrbNodeINS0_5model11DocumentKeyENS0_4util5EmptyEE8EmptyRepEvE9empty_rep, symObjAddr: 0x91D0, symBinAddr: 0x2426F8, symSize: 0x0 }
  - { offsetInCU: 0x1FEF2, offset: 0xD54E2, size: 0x8, addend: 0x0, symName: __ZNSt3__16vectorIN8firebase9firestore6bundle10NamedQueryENS_9allocatorIS4_EEE26__swap_out_circular_bufferERNS_14__split_bufferIS4_RS6_EE, symObjAddr: 0x1EEC, symBinAddr: 0x13088, symSize: 0x9C }
  - { offsetInCU: 0x2358C, offset: 0xD8B7C, size: 0x8, addend: 0x0, symName: __ZN8firebase9firestore6bundle12BundleLoader18AddElementInternalERKNS1_13BundleElementE, symObjAddr: 0x0, symBinAddr: 0x11838, symSize: 0x368 }
  - { offsetInCU: 0x242F8, offset: 0xD98E8, size: 0x8, addend: 0x0, symName: __ZNSt3__19allocatorIN8firebase9firestore6bundle10NamedQueryEE9constructB8ue170006IS4_JRKS4_EEEvPT_DpOT0_, symObjAddr: 0x11DC, symBinAddr: 0x12988, symSize: 0xA0 }
  - { offsetInCU: 0x2459F, offset: 0xD9B8F, size: 0x8, addend: 0x0, symName: __ZN4absl12lts_2022062317optional_internal18optional_data_baseIN8firebase9firestore5model11DocumentKeyEE6assignIRKS6_EEvOT_, symObjAddr: 0x214C, symBinAddr: 0x132E8, symSize: 0x40 }
  - { offsetInCU: 0x246F7, offset: 0xD9CE7, size: 0x8, addend: 0x0, symName: __ZNSt3__112__hash_tableINS_17__hash_value_typeIN8firebase9firestore5model11DocumentKeyENS3_6bundle23BundledDocumentMetadataEEENS_22__unordered_map_hasherIS5_S8_NS4_15DocumentKeyHashENS_8equal_toIS5_EELb1EEENS_21__unordered_map_equalIS5_S8_SC_SA_Lb1EEENS_9allocatorIS8_EEE25__emplace_unique_key_argsIS5_JRKS5_RKS7_EEENS_4pairINS_15__hash_iteratorIPNS_11__hash_nodeIS8_PvEEEEbEERKT_DpOT0_, symObjAddr: 0x2204, symBinAddr: 0x133A0, symSize: 0x27C }
  - { offsetInCU: 0x24C5E, offset: 0xDA24E, size: 0x8, addend: 0x0, symName: __ZNK8firebase9firestore9immutable9SortedMapINS0_5model11DocumentKeyENS3_15MutableDocumentENS0_4util10ComparatorIS4_EEE6insertERKS4_RKS5_, symObjAddr: 0x368, symBinAddr: 0x11BA0, symSize: 0x158 }
  - { offsetInCU: 0x25296, offset: 0xDA886, size: 0x8, addend: 0x0, symName: __ZN8firebase9firestore9immutable9SortedMapINS0_5model11DocumentKeyENS3_15MutableDocumentENS0_4util10ComparatorIS4_EEEaSEOS9_, symObjAddr: 0x4C0, symBinAddr: 0x11CF8, symSize: 0xA8 }
  - { offsetInCU: 0x25569, offset: 0xDAB59, size: 0x8, addend: 0x0, symName: __ZN8firebase9firestore9immutable9SortedMapINS0_5model11DocumentKeyENS3_15MutableDocumentENS0_4util10ComparatorIS4_EEED2Ev, symObjAddr: 0xFE8, symBinAddr: 0x12794, symSize: 0x44 }
  - { offsetInCU: 0x258F0, offset: 0xDAEE0, size: 0x8, addend: 0x0, symName: __ZN8firebase9firestore4util17internal_statusor12StatusOrDataIN4absl12lts_202206238optionalINS0_3api22LoadBundleTaskProgressEEEEC2EONS1_6StatusE, symObjAddr: 0x4C50, symBinAddr: 0x15D04, symSize: 0x60 }
  - { offsetInCU: 0x25907, offset: 0xDAEF7, size: 0x8, addend: 0x0, symName: __ZNSt3__16vectorIN8firebase9firestore6bundle10NamedQueryENS_9allocatorIS4_EEE21__push_back_slow_pathIRKS4_EEvOT_, symObjAddr: 0x10DC, symBinAddr: 0x12888, symSize: 0x100 }
  - { offsetInCU: 0x25BB8, offset: 0xDB1A8, size: 0x8, addend: 0x0, symName: __ZNSt3__110shared_ptrIN8firebase9firestore5model11ObjectValueEED2B8ue170006Ev, symObjAddr: 0xC50, symBinAddr: 0x12488, symSize: 0x58 }
  - { offsetInCU: 0x25F63, offset: 0xDB553, size: 0x8, addend: 0x0, symName: __ZN8firebase9firestore9immutable4impl13TreeSortedMapINS0_5model11DocumentKeyENS4_15MutableDocumentENS0_4util10ComparatorIS5_EEE6CreateINS2_14ArraySortedMapIS5_S6_S9_EEEESA_RKT_RKS9_, symObjAddr: 0x296C, symBinAddr: 0x13B08, symSize: 0x148 }
  - { offsetInCU: 0x265E8, offset: 0xDBBD8, size: 0x8, addend: 0x0, symName: __ZNK8firebase9firestore9immutable4impl13TreeSortedMapINS0_5model11DocumentKeyENS4_15MutableDocumentENS0_4util10ComparatorIS5_EEE6insertERKS5_RKS6_, symObjAddr: 0x2AB4, symBinAddr: 0x13C50, symSize: 0x50 }
  - { offsetInCU: 0x267D5, offset: 0xDBDC5, size: 0x8, addend: 0x0, symName: __ZNK8firebase9firestore9immutable4impl14ArraySortedMapINS0_5model11DocumentKeyENS4_15MutableDocumentENS0_4util10ComparatorIS5_EEE6insertERKS5_RKS6_, symObjAddr: 0x2B04, symBinAddr: 0x13CA0, symSize: 0x2F4 }
  - { offsetInCU: 0x273DF, offset: 0xDC9CF, size: 0x8, addend: 0x0, symName: __ZNSt3__110shared_ptrIN8firebase9firestore9immutable4impl8LlrbNodeINS2_5model11DocumentKeyENS6_15MutableDocumentEE3RepEED2B8ue170006Ev, symObjAddr: 0x1084, symBinAddr: 0x12830, symSize: 0x58 }
  - { offsetInCU: 0x27514, offset: 0xDCB04, size: 0x8, addend: 0x0, symName: __ZNSt3__110shared_ptrIKN8firebase9firestore9immutable4impl10FixedArrayINS_4pairINS2_5model11DocumentKeyENS7_15MutableDocumentEEEEEEaSB8ue170006EOSD_, symObjAddr: 0x4B4C, symBinAddr: 0x15CA0, symSize: 0x64 }
  - { offsetInCU: 0x2766F, offset: 0xDCC5F, size: 0x8, addend: 0x0, symName: __ZNSt3__110shared_ptrIN8firebase9firestore9immutable4impl8LlrbNodeINS2_5model11DocumentKeyENS6_15MutableDocumentEE3RepEEaSB8ue170006EOSB_, symObjAddr: 0x4514, symBinAddr: 0x15668, symSize: 0x64 }
  - { offsetInCU: 0x27C60, offset: 0xDD250, size: 0x8, addend: 0x0, symName: __ZN8firebase9firestore6bundle12BundleLoader10AddElementENSt3__110unique_ptrINS1_13BundleElementENS3_14default_deleteIS5_EEEEy, symObjAddr: 0x568, symBinAddr: 0x11DA0, symSize: 0x1CC }
  - { offsetInCU: 0x28885, offset: 0xDDE75, size: 0x8, addend: 0x0, symName: __ZNK8firebase9firestore9immutable9SortedMapINS0_5model11DocumentKeyENS3_15MutableDocumentENS0_4util10ComparatorIS4_EEE4sizeEv, symObjAddr: 0x734, symBinAddr: 0x11F6C, symSize: 0x3C }
  - { offsetInCU: 0x2895C, offset: 0xDDF4C, size: 0x8, addend: 0x0, symName: __ZN8firebase9firestore4util17internal_statusor12StatusOrDataIN4absl12lts_202206238optionalINS0_3api22LoadBundleTaskProgressEEEEC2EONS1_6StatusE, symObjAddr: 0x4C50, symBinAddr: 0x15D04, symSize: 0x60 }
  - { offsetInCU: 0x28BBE, offset: 0xDE1AE, size: 0x8, addend: 0x0, symName: __ZN4absl12lts_2022062317optional_internal23optional_data_dtor_baseIN8firebase9firestore3api22LoadBundleTaskProgressELb0EEC2IJS6_EEENS0_10in_place_tEDpOT_, symObjAddr: 0xD0C, symBinAddr: 0x124E0, symSize: 0x50 }
  - { offsetInCU: 0x28D62, offset: 0xDE352, size: 0x8, addend: 0x0, symName: __ZN4absl12lts_2022062317optional_internal18optional_data_baseIN8firebase9firestore3api22LoadBundleTaskProgressEE9constructIJS6_EEEvDpOT_, symObjAddr: 0x4CB0, symBinAddr: 0x15D64, symSize: 0x4C }
  - { offsetInCU: 0x292E2, offset: 0xDE8D2, size: 0x8, addend: 0x0, symName: __ZN8firebase9firestore6bundle12BundleLoader12ApplyChangesEv, symObjAddr: 0x770, symBinAddr: 0x11FA8, symSize: 0x28C }
  - { offsetInCU: 0x29E7E, offset: 0xDF46E, size: 0x8, addend: 0x0, symName: __ZN8firebase9firestore4util17internal_statusor12StatusOrDataINS0_9immutable9SortedMapINS0_5model11DocumentKeyENS6_8DocumentENS1_10ComparatorIS7_EEEEEC2EONS1_6StatusE, symObjAddr: 0x4CFC, symBinAddr: 0x15DB0, symSize: 0x60 }
  - { offsetInCU: 0x2A0E0, offset: 0xDF6D0, size: 0x8, addend: 0x0, symName: __ZN8firebase9firestore6bundle12BundleLoader23GetQueryDocumentMappingEv, symObjAddr: 0x9FC, symBinAddr: 0x12234, symSize: 0x198 }
  - { offsetInCU: 0x2A8FC, offset: 0xDFEEC, size: 0x8, addend: 0x0, symName: __ZNSt3__112__hash_tableINS_17__hash_value_typeINS_12basic_stringIcNS_11char_traitsIcEENS_9allocatorIcEEEEN8firebase9firestore9immutable9SortedSetINS9_5model11DocumentKeyENS9_4util10ComparatorISD_EEEEEENS_22__unordered_map_hasherIS7_SI_NS_4hashIS7_EENS_8equal_toIS7_EELb1EEENS_21__unordered_map_equalIS7_SI_SN_SL_Lb1EEENS5_ISI_EEE25__emplace_unique_key_argsIS7_JRKNS_21piecewise_construct_tENS_5tupleIJRKS7_EEENSX_IJEEEEEENS_4pairINS_15__hash_iteratorIPNS_11__hash_nodeISI_PvEEEEbEERKT_DpOT0_, symObjAddr: 0x4F10, symBinAddr: 0x15FC4, symSize: 0x294 }
  - { offsetInCU: 0x2AE6E, offset: 0xE045E, size: 0x8, addend: 0x0, symName: __ZNSt3__112__hash_tableINS_17__hash_value_typeINS_12basic_stringIcNS_11char_traitsIcEENS_9allocatorIcEEEEN8firebase9firestore9immutable9SortedSetINS9_5model11DocumentKeyENS9_4util10ComparatorISD_EEEEEENS_22__unordered_map_hasherIS7_SI_NS_4hashIS7_EENS_8equal_toIS7_EELb1EEENS_21__unordered_map_equalIS7_SI_SN_SL_Lb1EEENS5_ISI_EEED2Ev, symObjAddr: 0x4E50, symBinAddr: 0x15F04, symSize: 0x38 }
  - { offsetInCU: 0x2AFE5, offset: 0xE05D5, size: 0x8, addend: 0x0, symName: __ZN8firebase9firestore9immutable9SortedMapINS0_5model11DocumentKeyENS3_8DocumentENS0_4util10ComparatorIS4_EEED2Ev, symObjAddr: 0x4D5C, symBinAddr: 0x15E10, symSize: 0x44 }
  - { offsetInCU: 0x2B59F, offset: 0xE0B8F, size: 0x8, addend: 0x0, symName: __ZNSt3__112__hash_tableINS_17__hash_value_typeINS_12basic_stringIcNS_11char_traitsIcEENS_9allocatorIcEEEEN8firebase9firestore9immutable9SortedSetINS9_5model11DocumentKeyENS9_4util10ComparatorISD_EEEEEENS_22__unordered_map_hasherIS7_SI_NS_4hashIS7_EENS_8equal_toIS7_EELb1EEENS_21__unordered_map_equalIS7_SI_SN_SL_Lb1EEENS5_ISI_EEE25__emplace_unique_key_argsIS7_JRKS7_SH_EEENS_4pairINS_15__hash_iteratorIPNS_11__hash_nodeISI_PvEEEEbEERKT_DpOT0_, symObjAddr: 0x5D8C, symBinAddr: 0x16948, symSize: 0x284 }
  - { offsetInCU: 0x2BAF6, offset: 0xE10E6, size: 0x8, addend: 0x0, symName: __ZN8firebase9firestore9immutable9SortedMapINS0_5model11DocumentKeyENS0_4util5EmptyENS5_10ComparatorIS4_EEED2Ev, symObjAddr: 0xD84, symBinAddr: 0x12530, symSize: 0x44 }
  - { offsetInCU: 0x2BC2C, offset: 0xE121C, size: 0x8, addend: 0x0, symName: __ZNK8firebase9firestore9immutable9SortedSetINS0_5model11DocumentKeyENS0_4util10ComparatorIS4_EEE6insertERKS4_, symObjAddr: 0xB94, symBinAddr: 0x123CC, symSize: 0xBC }
  - { offsetInCU: 0x2BEB5, offset: 0xE14A5, size: 0x8, addend: 0x0, symName: __ZN8firebase9firestore9immutable9SortedMapINS0_5model11DocumentKeyENS0_4util5EmptyENS5_10ComparatorIS4_EEEaSEOS9_, symObjAddr: 0xE78, symBinAddr: 0x12624, symSize: 0xA8 }
  - { offsetInCU: 0x2C2F6, offset: 0xE18E6, size: 0x8, addend: 0x0, symName: __ZNK8firebase9firestore9immutable9SortedMapINS0_5model11DocumentKeyENS0_4util5EmptyENS5_10ComparatorIS4_EEE6insertERKS4_RKS6_, symObjAddr: 0x6138, symBinAddr: 0x16CF4, symSize: 0x158 }
  - { offsetInCU: 0x2CBAF, offset: 0xE219F, size: 0x8, addend: 0x0, symName: __ZNSt3__110shared_ptrIKN8firebase9firestore9immutable4impl10FixedArrayINS_4pairINS2_5model11DocumentKeyENS2_4util5EmptyEEEEEED2B8ue170006Ev, symObjAddr: 0xDC8, symBinAddr: 0x12574, symSize: 0x58 }
  - { offsetInCU: 0x2CC39, offset: 0xE2229, size: 0x8, addend: 0x0, symName: __ZNSt3__110shared_ptrIN8firebase9firestore9immutable4impl8LlrbNodeINS2_5model11DocumentKeyENS2_4util5EmptyEE3RepEED2B8ue170006Ev, symObjAddr: 0xE20, symBinAddr: 0x125CC, symSize: 0x58 }
  - { offsetInCU: 0x2CD26, offset: 0xE2316, size: 0x8, addend: 0x0, symName: __ZNSt3__110shared_ptrIKN8firebase9firestore9immutable4impl10FixedArrayINS_4pairINS2_5model11DocumentKeyENS2_4util5EmptyEEEEEEaSB8ue170006EOSE_, symObjAddr: 0xF20, symBinAddr: 0x126CC, symSize: 0x64 }
  - { offsetInCU: 0x2CE81, offset: 0xE2471, size: 0x8, addend: 0x0, symName: __ZNSt3__110shared_ptrIN8firebase9firestore9immutable4impl8LlrbNodeINS2_5model11DocumentKeyENS2_4util5EmptyEE3RepEEaSB8ue170006EOSC_, symObjAddr: 0xF84, symBinAddr: 0x12730, symSize: 0x64 }
  - { offsetInCU: 0x2D0A2, offset: 0xE2692, size: 0x8, addend: 0x0, symName: __ZNSt3__110shared_ptrIKN8firebase9firestore9immutable4impl10FixedArrayINS_4pairINS2_5model11DocumentKeyENS7_15MutableDocumentEEEEEED2B8ue170006Ev, symObjAddr: 0x102C, symBinAddr: 0x127D8, symSize: 0x58 }
  - { offsetInCU: 0x2D2F6, offset: 0xE28E6, size: 0x8, addend: 0x0, symName: __ZNSt3__114__split_bufferIN8firebase9firestore6bundle10NamedQueryERNS_9allocatorIS4_EEED2Ev, symObjAddr: 0x20FC, symBinAddr: 0x13298, symSize: 0x50 }
  - { offsetInCU: 0x2D46C, offset: 0xE2A5C, size: 0x8, addend: 0x0, symName: __ZNKSt3__16vectorIN8firebase9firestore6bundle10NamedQueryENS_9allocatorIS4_EEE20__throw_length_errorB8ue170006Ev, symObjAddr: 0x1F88, symBinAddr: 0x13124, symSize: 0x14 }
  - { offsetInCU: 0x2D494, offset: 0xE2A84, size: 0x8, addend: 0x0, symName: __ZNSt3__119__allocate_at_leastB8ue170006INS_9allocatorIN8firebase9firestore6bundle10NamedQueryEEEEENS_19__allocation_resultINS_16allocator_traitsIT_E7pointerEEERS9_m, symObjAddr: 0x1F9C, symBinAddr: 0x13138, symSize: 0x44 }
  - { offsetInCU: 0x2D790, offset: 0xE2D80, size: 0x8, addend: 0x0, symName: __ZN8firebase9firestore4core6TargetC2ERKS2_, symObjAddr: 0x13C8, symBinAddr: 0x12A48, symSize: 0x214 }
  - { offsetInCU: 0x2E3C6, offset: 0xE39B6, size: 0x8, addend: 0x0, symName: __ZN8firebase9firestore6bundle10NamedQueryD1Ev, symObjAddr: 0x127C, symBinAddr: 0x12A28, symSize: 0x4 }
  - { offsetInCU: 0x2E3E9, offset: 0xE39D9, size: 0x8, addend: 0x0, symName: __ZN8firebase9firestore6bundle10NamedQueryD1Ev, symObjAddr: 0x127C, symBinAddr: 0x12A28, symSize: 0x4 }
  - { offsetInCU: 0x2E3FC, offset: 0xE39EC, size: 0x8, addend: 0x0, symName: __ZN8firebase9firestore6bundle10NamedQueryD2Ev, symObjAddr: 0x1E34, symBinAddr: 0x12FD0, symSize: 0xB8 }
  - { offsetInCU: 0x2EBC8, offset: 0xE41B8, size: 0x8, addend: 0x0, symName: __ZN8firebase9firestore6bundle10NamedQueryD0Ev, symObjAddr: 0x1280, symBinAddr: 0x12A2C, symSize: 0x14 }
  - { offsetInCU: 0x2EC23, offset: 0xE4213, size: 0x8, addend: 0x0, symName: __ZNK8firebase9firestore6bundle10NamedQuery12element_typeEv, symObjAddr: 0x1294, symBinAddr: 0x12A40, symSize: 0x8 }
  - { offsetInCU: 0x2F62F, offset: 0xE4C1F, size: 0x8, addend: 0x0, symName: __ZNSt3__16vectorIN8firebase9firestore4core6FilterENS_9allocatorIS4_EEE16__init_with_sizeB8ue170006IPS4_S9_EEvT_T0_m, symObjAddr: 0x18D8, symBinAddr: 0x12C5C, symSize: 0xA0 }
  - { offsetInCU: 0x2F9AC, offset: 0xE4F9C, size: 0x8, addend: 0x0, symName: __ZNSt3__16vectorIN8firebase9firestore4core7OrderByENS_9allocatorIS4_EEE16__init_with_sizeB8ue170006IPS4_S9_EEvT_T0_m, symObjAddr: 0x1AC8, symBinAddr: 0x12D84, symSize: 0x84 }
  - { offsetInCU: 0x30949, offset: 0xE5F39, size: 0x8, addend: 0x0, symName: __ZNSt3__16vectorIN8firebase9firestore4core6FilterENS_9allocatorIS4_EEE11__vallocateB8ue170006Em, symObjAddr: 0x1978, symBinAddr: 0x12CFC, symSize: 0x40 }
  - { offsetInCU: 0x309C2, offset: 0xE5FB2, size: 0x8, addend: 0x0, symName: __ZNKSt3__16vectorIN8firebase9firestore4core6FilterENS_9allocatorIS4_EEE20__throw_length_errorB8ue170006Ev, symObjAddr: 0x19B8, symBinAddr: 0x12D3C, symSize: 0x14 }
  - { offsetInCU: 0x309E7, offset: 0xE5FD7, size: 0x8, addend: 0x0, symName: __ZNKSt3__16vectorIN8firebase9firestore4core6FilterENS_9allocatorIS4_EEE20__throw_length_errorB8ue170006Ev, symObjAddr: 0x19B8, symBinAddr: 0x12D3C, symSize: 0x14 }
  - { offsetInCU: 0x30A0F, offset: 0xE5FFF, size: 0x8, addend: 0x0, symName: __ZNSt3__119__allocate_at_leastB8ue170006INS_9allocatorIN8firebase9firestore4core6FilterEEEEENS_19__allocation_resultINS_16allocator_traitsIT_E7pointerEEERS9_m, symObjAddr: 0x19CC, symBinAddr: 0x12D50, symSize: 0x34 }
  - { offsetInCU: 0x30D75, offset: 0xE6365, size: 0x8, addend: 0x0, symName: __ZNSt3__16vectorIN8firebase9firestore4core7OrderByENS_9allocatorIS4_EEE11__vallocateB8ue170006Em, symObjAddr: 0x1B4C, symBinAddr: 0x12E08, symSize: 0x40 }
  - { offsetInCU: 0x30DEE, offset: 0xE63DE, size: 0x8, addend: 0x0, symName: __ZNKSt3__16vectorIN8firebase9firestore4core7OrderByENS_9allocatorIS4_EEE20__throw_length_errorB8ue170006Ev, symObjAddr: 0x1B8C, symBinAddr: 0x12E48, symSize: 0x14 }
  - { offsetInCU: 0x30DFF, offset: 0xE63EF, size: 0x8, addend: 0x0, symName: __ZNKSt3__16vectorIN8firebase9firestore4core7OrderByENS_9allocatorIS4_EEE20__throw_length_errorB8ue170006Ev, symObjAddr: 0x1B8C, symBinAddr: 0x12E48, symSize: 0x14 }
  - { offsetInCU: 0x30E27, offset: 0xE6417, size: 0x8, addend: 0x0, symName: __ZNSt3__119__allocate_at_leastB8ue170006INS_9allocatorIN8firebase9firestore4core7OrderByEEEEENS_19__allocation_resultINS_16allocator_traitsIT_E7pointerEEERS9_m, symObjAddr: 0x1BA0, symBinAddr: 0x12E5C, symSize: 0x34 }
  - { offsetInCU: 0x30FF9, offset: 0xE65E9, size: 0x8, addend: 0x0, symName: __ZNSt3__128__exception_guard_exceptionsINS_29_AllocatorDestroyRangeReverseINS_9allocatorIN8firebase9firestore4core7OrderByEEEPS6_EEED2B8ue170006Ev, symObjAddr: 0x1C98, symBinAddr: 0x12F54, symSize: 0x34 }
  - { offsetInCU: 0x31037, offset: 0xE6627, size: 0x8, addend: 0x0, symName: __ZNKSt3__129_AllocatorDestroyRangeReverseINS_9allocatorIN8firebase9firestore4core7OrderByEEEPS5_EclB8ue170006Ev, symObjAddr: 0x1CCC, symBinAddr: 0x12F88, symSize: 0x48 }
  - { offsetInCU: 0x314F5, offset: 0xE6AE5, size: 0x8, addend: 0x0, symName: __ZNSt3__19allocatorIN8firebase9firestore6bundle10NamedQueryEE9constructB8ue170006IS4_JS4_EEEvPT_DpOT0_, symObjAddr: 0x1FE0, symBinAddr: 0x1317C, symSize: 0x11C }
  - { offsetInCU: 0x31535, offset: 0xE6B25, size: 0x8, addend: 0x0, symName: __ZNSt3__19allocatorIN8firebase9firestore6bundle10NamedQueryEE9constructB8ue170006IS4_JS4_EEEvPT_DpOT0_, symObjAddr: 0x1FE0, symBinAddr: 0x1317C, symSize: 0x11C }
  - { offsetInCU: 0x31557, offset: 0xE6B47, size: 0x8, addend: 0x0, symName: __ZNSt3__19allocatorIN8firebase9firestore6bundle10NamedQueryEE9constructB8ue170006IS4_JS4_EEEvPT_DpOT0_, symObjAddr: 0x1FE0, symBinAddr: 0x1317C, symSize: 0x11C }
  - { offsetInCU: 0x321F1, offset: 0xE77E1, size: 0x8, addend: 0x0, symName: __ZNSt3__110shared_ptrIKN8firebase9firestore5model12ResourcePathEEaSB8ue170006ERKS6_, symObjAddr: 0x218C, symBinAddr: 0x13328, symSize: 0x78 }
  - { offsetInCU: 0x325BA, offset: 0xE7BAA, size: 0x8, addend: 0x0, symName: __ZNSt3__112__hash_tableINS_17__hash_value_typeIN8firebase9firestore5model11DocumentKeyENS3_6bundle23BundledDocumentMetadataEEENS_22__unordered_map_hasherIS5_S8_NS4_15DocumentKeyHashENS_8equal_toIS5_EELb1EEENS_21__unordered_map_equalIS5_S8_SC_SA_Lb1EEENS_9allocatorIS8_EEE21__construct_node_hashIRKS5_JRKS7_EEENS_10unique_ptrINS_11__hash_nodeIS8_PvEENS_22__hash_node_destructorINSG_ISR_EEEEEEmOT_DpOT0_, symObjAddr: 0x2480, symBinAddr: 0x1361C, symSize: 0x98 }
  - { offsetInCU: 0x328BE, offset: 0xE7EAE, size: 0x8, addend: 0x0, symName: __ZNSt3__112__hash_tableINS_17__hash_value_typeIN8firebase9firestore5model11DocumentKeyENS3_6bundle23BundledDocumentMetadataEEENS_22__unordered_map_hasherIS5_S8_NS4_15DocumentKeyHashENS_8equal_toIS5_EELb1EEENS_21__unordered_map_equalIS5_S8_SC_SA_Lb1EEENS_9allocatorIS8_EEE8__rehashILb1EEEvm, symObjAddr: 0x26A0, symBinAddr: 0x1383C, symSize: 0xDC }
  - { offsetInCU: 0x329A3, offset: 0xE7F93, size: 0x8, addend: 0x0, symName: __ZNSt3__122__hash_node_destructorINS_9allocatorINS_11__hash_nodeINS_17__hash_value_typeIN8firebase9firestore5model11DocumentKeyENS5_6bundle23BundledDocumentMetadataEEEPvEEEEEclB8ue170006EPSC_, symObjAddr: 0x28D4, symBinAddr: 0x13A70, symSize: 0x44 }
  - { offsetInCU: 0x32D42, offset: 0xE8332, size: 0x8, addend: 0x0, symName: __ZNSt3__14pairIKN8firebase9firestore5model11DocumentKeyENS2_6bundle23BundledDocumentMetadataEEC2B8ue170006ILb1ELPv0EEERS5_RKS7_, symObjAddr: 0x2518, symBinAddr: 0x136B4, symSize: 0xD4 }
  - { offsetInCU: 0x33117, offset: 0xE8707, size: 0x8, addend: 0x0, symName: __ZN8firebase9firestore6bundle23BundledDocumentMetadataD1Ev, symObjAddr: 0x25EC, symBinAddr: 0x13788, symSize: 0x54 }
  - { offsetInCU: 0x33271, offset: 0xE8861, size: 0x8, addend: 0x0, symName: __ZN8firebase9firestore6bundle23BundledDocumentMetadataD0Ev, symObjAddr: 0x2640, symBinAddr: 0x137DC, symSize: 0x58 }
  - { offsetInCU: 0x333D6, offset: 0xE89C6, size: 0x8, addend: 0x0, symName: __ZNK8firebase9firestore6bundle23BundledDocumentMetadata12element_typeEv, symObjAddr: 0x2698, symBinAddr: 0x13834, symSize: 0x8 }
  - { offsetInCU: 0x333FB, offset: 0xE89EB, size: 0x8, addend: 0x0, symName: __ZNSt3__112__hash_tableINS_17__hash_value_typeIN8firebase9firestore5model11DocumentKeyENS3_6bundle23BundledDocumentMetadataEEENS_22__unordered_map_hasherIS5_S8_NS4_15DocumentKeyHashENS_8equal_toIS5_EELb1EEENS_21__unordered_map_equalIS5_S8_SC_SA_Lb1EEENS_9allocatorIS8_EEE11__do_rehashILb1EEEvm, symObjAddr: 0x277C, symBinAddr: 0x13918, symSize: 0x158 }
  - { offsetInCU: 0x33881, offset: 0xE8E71, size: 0x8, addend: 0x0, symName: __ZNSt3__122__hash_node_destructorINS_9allocatorINS_11__hash_nodeINS_17__hash_value_typeIN8firebase9firestore5model11DocumentKeyENS5_6bundle23BundledDocumentMetadataEEEPvEEEEEclB8ue170006EPSC_, symObjAddr: 0x28D4, symBinAddr: 0x13A70, symSize: 0x44 }
  - { offsetInCU: 0x339E2, offset: 0xE8FD2, size: 0x8, addend: 0x0, symName: __ZNSt3__116allocator_traitsINS_9allocatorINS_11__hash_nodeINS_17__hash_value_typeIN8firebase9firestore5model11DocumentKeyENS5_6bundle23BundledDocumentMetadataEEEPvEEEEE7destroyB8ue170006INS_4pairIKS7_S9_EEvvEEvRSD_PT_, symObjAddr: 0x2918, symBinAddr: 0x13AB4, symSize: 0x54 }
  - { offsetInCU: 0x33E35, offset: 0xE9425, size: 0x8, addend: 0x0, symName: __ZNK8firebase9firestore9immutable4impl8LlrbNodeINS0_5model11DocumentKeyENS4_15MutableDocumentEE11InnerInsertINS0_4util10ComparatorIS5_EEEES7_RKS5_RKS6_RKT_, symObjAddr: 0x3378, symBinAddr: 0x144CC, symSize: 0x554 }
  - { offsetInCU: 0x35AD7, offset: 0xEB0C7, size: 0x8, addend: 0x0, symName: __ZN8firebase9firestore9immutable4impl10FixedArrayINSt3__14pairINS0_5model11DocumentKeyENS6_15MutableDocumentEEEE6appendEOS9_, symObjAddr: 0x4578, symBinAddr: 0x156CC, symSize: 0x90 }
  - { offsetInCU: 0x35D10, offset: 0xEB300, size: 0x8, addend: 0x0, symName: __ZN8firebase9firestore9immutable4impl10FixedArrayINSt3__14pairINS0_5model11DocumentKeyENS6_15MutableDocumentEEEE6appendIPKS9_EEvT_SE_, symObjAddr: 0x4608, symBinAddr: 0x1575C, symSize: 0xAC }
  - { offsetInCU: 0x35FF6, offset: 0xEB5E6, size: 0x8, addend: 0x0, symName: __ZNSt3__14pairIN8firebase9firestore5model11DocumentKeyENS3_15MutableDocumentEED1Ev, symObjAddr: 0x2F58, symBinAddr: 0x140F4, symSize: 0x34 }
  - { offsetInCU: 0x3616F, offset: 0xEB75F, size: 0x8, addend: 0x0, symName: __ZNSt3__110shared_ptrIN8firebase9firestore9immutable4impl10FixedArrayINS_4pairINS2_5model11DocumentKeyENS7_15MutableDocumentEEEEEED2B8ue170006Ev, symObjAddr: 0x4AF4, symBinAddr: 0x15C48, symSize: 0x58 }
  - { offsetInCU: 0x36203, offset: 0xEB7F3, size: 0x8, addend: 0x0, symName: __ZZN8firebase9firestore9immutable4impl8LlrbNodeINS0_5model11DocumentKeyENS4_15MutableDocumentEE8EmptyRepEvENKUlvE_clEv, symObjAddr: 0x2E74, symBinAddr: 0x14010, symSize: 0xE4 }
  - { offsetInCU: 0x367CF, offset: 0xEBDBF, size: 0x8, addend: 0x0, symName: __ZNSt3__14pairIN8firebase9firestore5model11DocumentKeyENS3_15MutableDocumentEEC2B8ue170006ILb1ELPv0EEEv, symObjAddr: 0x3004, symBinAddr: 0x141A0, symSize: 0x4C }
  - { offsetInCU: 0x3689B, offset: 0xEBE8B, size: 0x8, addend: 0x0, symName: __ZNSt3__110shared_ptrIN8firebase9firestore9immutable4impl8LlrbNodeINS2_5model11DocumentKeyENS6_15MutableDocumentEE3RepEEC2B8ue170006ISA_vEEPT_, symObjAddr: 0x31CC, symBinAddr: 0x14368, symSize: 0x70 }
  - { offsetInCU: 0x369ED, offset: 0xEBFDD, size: 0x8, addend: 0x0, symName: __ZNSt3__110shared_ptrIN8firebase9firestore9immutable4impl8LlrbNodeINS2_5model11DocumentKeyENS6_15MutableDocumentEE3RepEEaSB8ue170006ERKSB_, symObjAddr: 0x2F8C, symBinAddr: 0x14128, symSize: 0x78 }
  - { offsetInCU: 0x36BB6, offset: 0xEC1A6, size: 0x8, addend: 0x0, symName: __ZN8firebase9firestore5model15MutableDocumentC2Ev, symObjAddr: 0x3050, symBinAddr: 0x141EC, symSize: 0x68 }
  - { offsetInCU: 0x36FC7, offset: 0xEC5B7, size: 0x8, addend: 0x0, symName: __ZNSt3__120__shared_ptr_emplaceIN8firebase9firestore5model11ObjectValueENS_9allocatorIS4_EEEC2B8ue170006IJEEES6_DpOT_, symObjAddr: 0x3100, symBinAddr: 0x1429C, symSize: 0x4C }
  - { offsetInCU: 0x3709C, offset: 0xEC68C, size: 0x8, addend: 0x0, symName: __ZNSt3__120__shared_ptr_emplaceIN8firebase9firestore5model11ObjectValueENS_9allocatorIS4_EEED1Ev, symObjAddr: 0x314C, symBinAddr: 0x142E8, symSize: 0x14 }
  - { offsetInCU: 0x370BF, offset: 0xEC6AF, size: 0x8, addend: 0x0, symName: __ZNSt3__120__shared_ptr_emplaceIN8firebase9firestore5model11ObjectValueENS_9allocatorIS4_EEED1Ev, symObjAddr: 0x314C, symBinAddr: 0x142E8, symSize: 0x14 }
  - { offsetInCU: 0x370F5, offset: 0xEC6E5, size: 0x8, addend: 0x0, symName: __ZNSt3__120__shared_ptr_emplaceIN8firebase9firestore5model11ObjectValueENS_9allocatorIS4_EEED0Ev, symObjAddr: 0x3160, symBinAddr: 0x142FC, symSize: 0x24 }
  - { offsetInCU: 0x371AE, offset: 0xEC79E, size: 0x8, addend: 0x0, symName: __ZNSt3__120__shared_ptr_emplaceIN8firebase9firestore5model11ObjectValueENS_9allocatorIS4_EEE16__on_zero_sharedEv, symObjAddr: 0x3184, symBinAddr: 0x14320, symSize: 0x8 }
  - { offsetInCU: 0x371D6, offset: 0xEC7C6, size: 0x8, addend: 0x0, symName: __ZNSt3__120__shared_ptr_emplaceIN8firebase9firestore5model11ObjectValueENS_9allocatorIS4_EEE16__on_zero_sharedEv, symObjAddr: 0x3184, symBinAddr: 0x14320, symSize: 0x8 }
  - { offsetInCU: 0x37252, offset: 0xEC842, size: 0x8, addend: 0x0, symName: __ZN8firebase9firestore6nanopb7MessageINS0_26_google_firestore_v1_ValueEED2Ev, symObjAddr: 0x3190, symBinAddr: 0x1432C, symSize: 0x3C }
  - { offsetInCU: 0x372AC, offset: 0xEC89C, size: 0x8, addend: 0x0, symName: __ZNSt3__120__shared_ptr_emplaceIN8firebase9firestore5model11ObjectValueENS_9allocatorIS4_EEE21__on_zero_shared_weakEv, symObjAddr: 0x318C, symBinAddr: 0x14328, symSize: 0x4 }
  - { offsetInCU: 0x372DE, offset: 0xEC8CE, size: 0x8, addend: 0x0, symName: __ZNSt3__120__shared_ptr_emplaceIN8firebase9firestore5model11ObjectValueENS_9allocatorIS4_EEE21__on_zero_shared_weakEv, symObjAddr: 0x318C, symBinAddr: 0x14328, symSize: 0x4 }
  - { offsetInCU: 0x37301, offset: 0xEC8F1, size: 0x8, addend: 0x0, symName: __ZNSt3__120__shared_ptr_emplaceIN8firebase9firestore5model11ObjectValueENS_9allocatorIS4_EEE21__on_zero_shared_weakEv, symObjAddr: 0x318C, symBinAddr: 0x14328, symSize: 0x4 }
  - { offsetInCU: 0x37324, offset: 0xEC914, size: 0x8, addend: 0x0, symName: __ZNSt3__120__shared_ptr_emplaceIN8firebase9firestore5model11ObjectValueENS_9allocatorIS4_EEE21__on_zero_shared_weakEv, symObjAddr: 0x318C, symBinAddr: 0x14328, symSize: 0x4 }
  - { offsetInCU: 0x37351, offset: 0xEC941, size: 0x8, addend: 0x0, symName: __ZNSt3__120__shared_ptr_emplaceIN8firebase9firestore5model11ObjectValueENS_9allocatorIS4_EEE21__on_zero_shared_weakEv, symObjAddr: 0x318C, symBinAddr: 0x14328, symSize: 0x4 }
  - { offsetInCU: 0x37378, offset: 0xEC968, size: 0x8, addend: 0x0, symName: __ZNSt3__120__shared_ptr_emplaceIN8firebase9firestore5model11ObjectValueENS_9allocatorIS4_EEE21__on_zero_shared_weakEv, symObjAddr: 0x318C, symBinAddr: 0x14328, symSize: 0x4 }
  - { offsetInCU: 0x375AF, offset: 0xECB9F, size: 0x8, addend: 0x0, symName: __ZNKSt3__114default_deleteIN8firebase9firestore9immutable4impl8LlrbNodeINS2_5model11DocumentKeyENS6_15MutableDocumentEE3RepEEclB8ue170006EPSA_, symObjAddr: 0x329C, symBinAddr: 0x14438, symSize: 0x50 }
  - { offsetInCU: 0x37872, offset: 0xECE62, size: 0x8, addend: 0x0, symName: __ZNSt3__120__shared_ptr_pointerIPN8firebase9firestore9immutable4impl8LlrbNodeINS2_5model11DocumentKeyENS6_15MutableDocumentEE3RepENS_10shared_ptrISA_E27__shared_ptr_default_deleteISA_SA_EENS_9allocatorISA_EEED1Ev, symObjAddr: 0x323C, symBinAddr: 0x143D8, symSize: 0x4 }
  - { offsetInCU: 0x37895, offset: 0xECE85, size: 0x8, addend: 0x0, symName: __ZNSt3__120__shared_ptr_pointerIPN8firebase9firestore9immutable4impl8LlrbNodeINS2_5model11DocumentKeyENS6_15MutableDocumentEE3RepENS_10shared_ptrISA_E27__shared_ptr_default_deleteISA_SA_EENS_9allocatorISA_EEED1Ev, symObjAddr: 0x323C, symBinAddr: 0x143D8, symSize: 0x4 }
  - { offsetInCU: 0x378C9, offset: 0xECEB9, size: 0x8, addend: 0x0, symName: __ZNSt3__120__shared_ptr_pointerIPN8firebase9firestore9immutable4impl8LlrbNodeINS2_5model11DocumentKeyENS6_15MutableDocumentEE3RepENS_10shared_ptrISA_E27__shared_ptr_default_deleteISA_SA_EENS_9allocatorISA_EEED0Ev, symObjAddr: 0x3240, symBinAddr: 0x143DC, symSize: 0x14 }
  - { offsetInCU: 0x3792B, offset: 0xECF1B, size: 0x8, addend: 0x0, symName: __ZNSt3__120__shared_ptr_pointerIPN8firebase9firestore9immutable4impl8LlrbNodeINS2_5model11DocumentKeyENS6_15MutableDocumentEE3RepENS_10shared_ptrISA_E27__shared_ptr_default_deleteISA_SA_EENS_9allocatorISA_EEE16__on_zero_sharedEv, symObjAddr: 0x3254, symBinAddr: 0x143F0, symSize: 0x8 }
  - { offsetInCU: 0x37960, offset: 0xECF50, size: 0x8, addend: 0x0, symName: __ZNKSt3__120__shared_ptr_pointerIPN8firebase9firestore9immutable4impl8LlrbNodeINS2_5model11DocumentKeyENS6_15MutableDocumentEE3RepENS_10shared_ptrISA_E27__shared_ptr_default_deleteISA_SA_EENS_9allocatorISA_EEE13__get_deleterERKSt9type_info, symObjAddr: 0x325C, symBinAddr: 0x143F8, symSize: 0x3C }
  - { offsetInCU: 0x37A46, offset: 0xED036, size: 0x8, addend: 0x0, symName: __ZNSt3__120__shared_ptr_pointerIPN8firebase9firestore9immutable4impl8LlrbNodeINS2_5model11DocumentKeyENS6_15MutableDocumentEE3RepENS_10shared_ptrISA_E27__shared_ptr_default_deleteISA_SA_EENS_9allocatorISA_EEE21__on_zero_shared_weakEv, symObjAddr: 0x3298, symBinAddr: 0x14434, symSize: 0x4 }
  - { offsetInCU: 0x37A7B, offset: 0xED06B, size: 0x8, addend: 0x0, symName: __ZNSt3__120__shared_ptr_pointerIPN8firebase9firestore9immutable4impl8LlrbNodeINS2_5model11DocumentKeyENS6_15MutableDocumentEE3RepENS_10shared_ptrISA_E27__shared_ptr_default_deleteISA_SA_EENS_9allocatorISA_EEE21__on_zero_shared_weakEv, symObjAddr: 0x3298, symBinAddr: 0x14434, symSize: 0x4 }
  - { offsetInCU: 0x37A9E, offset: 0xED08E, size: 0x8, addend: 0x0, symName: __ZNSt3__120__shared_ptr_pointerIPN8firebase9firestore9immutable4impl8LlrbNodeINS2_5model11DocumentKeyENS6_15MutableDocumentEE3RepENS_10shared_ptrISA_E27__shared_ptr_default_deleteISA_SA_EENS_9allocatorISA_EEE21__on_zero_shared_weakEv, symObjAddr: 0x3298, symBinAddr: 0x14434, symSize: 0x4 }
  - { offsetInCU: 0x37ACA, offset: 0xED0BA, size: 0x8, addend: 0x0, symName: __ZNSt3__120__shared_ptr_pointerIPN8firebase9firestore9immutable4impl8LlrbNodeINS2_5model11DocumentKeyENS6_15MutableDocumentEE3RepENS_10shared_ptrISA_E27__shared_ptr_default_deleteISA_SA_EENS_9allocatorISA_EEE21__on_zero_shared_weakEv, symObjAddr: 0x3298, symBinAddr: 0x14434, symSize: 0x4 }
  - { offsetInCU: 0x37AF0, offset: 0xED0E0, size: 0x8, addend: 0x0, symName: __ZNSt3__120__shared_ptr_pointerIPN8firebase9firestore9immutable4impl8LlrbNodeINS2_5model11DocumentKeyENS6_15MutableDocumentEE3RepENS_10shared_ptrISA_E27__shared_ptr_default_deleteISA_SA_EENS_9allocatorISA_EEE21__on_zero_shared_weakEv, symObjAddr: 0x3298, symBinAddr: 0x14434, symSize: 0x4 }
  - { offsetInCU: 0x37B4F, offset: 0xED13F, size: 0x8, addend: 0x0, symName: __ZN8firebase9firestore9immutable4impl8LlrbNodeINS0_5model11DocumentKeyENS4_15MutableDocumentEE3RepD1Ev, symObjAddr: 0x32EC, symBinAddr: 0x14488, symSize: 0x44 }
  - { offsetInCU: 0x37FBB, offset: 0xED5AB, size: 0x8, addend: 0x0, symName: __ZNK8firebase9firestore9immutable4impl8LlrbNodeINS0_5model11DocumentKeyENS4_15MutableDocumentEE5CloneEv, symObjAddr: 0x38CC, symBinAddr: 0x14A20, symSize: 0x21C }
  - { offsetInCU: 0x389FF, offset: 0xEDFEF, size: 0x8, addend: 0x0, symName: __ZN8firebase9firestore9immutable4impl8LlrbNodeINS0_5model11DocumentKeyENS4_15MutableDocumentEE5FixUpEv, symObjAddr: 0x3AE8, symBinAddr: 0x14C3C, symSize: 0xBC }
  - { offsetInCU: 0x38D2A, offset: 0xEE31A, size: 0x8, addend: 0x0, symName: __ZNSt3__110shared_ptrIN8firebase9firestore5model11ObjectValueEEaSB8ue170006ERKS5_, symObjAddr: 0x449C, symBinAddr: 0x155F0, symSize: 0x78 }
  - { offsetInCU: 0x38FCD, offset: 0xEE5BD, size: 0x8, addend: 0x0, symName: __ZN8firebase9firestore9immutable4impl8LlrbNodeINS0_5model11DocumentKeyENS4_15MutableDocumentEE10RotateLeftEv, symObjAddr: 0x3D04, symBinAddr: 0x14E58, symSize: 0x304 }
  - { offsetInCU: 0x3A086, offset: 0xEF676, size: 0x8, addend: 0x0, symName: __ZN8firebase9firestore9immutable4impl8LlrbNodeINS0_5model11DocumentKeyENS4_15MutableDocumentEE11RotateRightEv, symObjAddr: 0x4008, symBinAddr: 0x1515C, symSize: 0x304 }
  - { offsetInCU: 0x3B142, offset: 0xF0732, size: 0x8, addend: 0x0, symName: __ZN8firebase9firestore9immutable4impl8LlrbNodeINS0_5model11DocumentKeyENS4_15MutableDocumentEE9FlipColorEv, symObjAddr: 0x430C, symBinAddr: 0x15460, symSize: 0x138 }
  - { offsetInCU: 0x3B92F, offset: 0xF0F1F, size: 0x8, addend: 0x0, symName: __ZNSt3__120__shared_ptr_emplaceIN8firebase9firestore9immutable4impl8LlrbNodeINS2_5model11DocumentKeyENS6_15MutableDocumentEE3RepENS_9allocatorISA_EEEC2B8ue170006IJSA_EEESC_DpOT_, symObjAddr: 0x3BFC, symBinAddr: 0x14D50, symSize: 0x7C }
  - { offsetInCU: 0x3B975, offset: 0xF0F65, size: 0x8, addend: 0x0, symName: __ZNSt3__120__shared_ptr_emplaceIN8firebase9firestore9immutable4impl8LlrbNodeINS2_5model11DocumentKeyENS6_15MutableDocumentEE3RepENS_9allocatorISA_EEEC2B8ue170006IJSA_EEESC_DpOT_, symObjAddr: 0x3BFC, symBinAddr: 0x14D50, symSize: 0x7C }
  - { offsetInCU: 0x3B997, offset: 0xF0F87, size: 0x8, addend: 0x0, symName: __ZNSt3__120__shared_ptr_emplaceIN8firebase9firestore9immutable4impl8LlrbNodeINS2_5model11DocumentKeyENS6_15MutableDocumentEE3RepENS_9allocatorISA_EEEC2B8ue170006IJSA_EEESC_DpOT_, symObjAddr: 0x3BFC, symBinAddr: 0x14D50, symSize: 0x7C }
  - { offsetInCU: 0x3BDD0, offset: 0xF13C0, size: 0x8, addend: 0x0, symName: __ZNSt3__120__shared_ptr_emplaceIN8firebase9firestore9immutable4impl8LlrbNodeINS2_5model11DocumentKeyENS6_15MutableDocumentEE3RepENS_9allocatorISA_EEED1Ev, symObjAddr: 0x3C78, symBinAddr: 0x14DCC, symSize: 0x14 }
  - { offsetInCU: 0x3BDF3, offset: 0xF13E3, size: 0x8, addend: 0x0, symName: __ZNSt3__120__shared_ptr_emplaceIN8firebase9firestore9immutable4impl8LlrbNodeINS2_5model11DocumentKeyENS6_15MutableDocumentEE3RepENS_9allocatorISA_EEED1Ev, symObjAddr: 0x3C78, symBinAddr: 0x14DCC, symSize: 0x14 }
  - { offsetInCU: 0x3BE29, offset: 0xF1419, size: 0x8, addend: 0x0, symName: __ZNSt3__120__shared_ptr_emplaceIN8firebase9firestore9immutable4impl8LlrbNodeINS2_5model11DocumentKeyENS6_15MutableDocumentEE3RepENS_9allocatorISA_EEED0Ev, symObjAddr: 0x3C8C, symBinAddr: 0x14DE0, symSize: 0x24 }
  - { offsetInCU: 0x3BE8E, offset: 0xF147E, size: 0x8, addend: 0x0, symName: __ZNSt3__120__shared_ptr_emplaceIN8firebase9firestore9immutable4impl8LlrbNodeINS2_5model11DocumentKeyENS6_15MutableDocumentEE3RepENS_9allocatorISA_EEE16__on_zero_sharedEv, symObjAddr: 0x3CB0, symBinAddr: 0x14E04, symSize: 0x50 }
  - { offsetInCU: 0x3C154, offset: 0xF1744, size: 0x8, addend: 0x0, symName: __ZNSt3__120__shared_ptr_emplaceIN8firebase9firestore9immutable4impl8LlrbNodeINS2_5model11DocumentKeyENS6_15MutableDocumentEE3RepENS_9allocatorISA_EEE21__on_zero_shared_weakEv, symObjAddr: 0x3D00, symBinAddr: 0x14E54, symSize: 0x4 }
  - { offsetInCU: 0x3C186, offset: 0xF1776, size: 0x8, addend: 0x0, symName: __ZNSt3__120__shared_ptr_emplaceIN8firebase9firestore9immutable4impl8LlrbNodeINS2_5model11DocumentKeyENS6_15MutableDocumentEE3RepENS_9allocatorISA_EEE21__on_zero_shared_weakEv, symObjAddr: 0x3D00, symBinAddr: 0x14E54, symSize: 0x4 }
  - { offsetInCU: 0x3C1A9, offset: 0xF1799, size: 0x8, addend: 0x0, symName: __ZNSt3__120__shared_ptr_emplaceIN8firebase9firestore9immutable4impl8LlrbNodeINS2_5model11DocumentKeyENS6_15MutableDocumentEE3RepENS_9allocatorISA_EEE21__on_zero_shared_weakEv, symObjAddr: 0x3D00, symBinAddr: 0x14E54, symSize: 0x4 }
  - { offsetInCU: 0x3C1CC, offset: 0xF17BC, size: 0x8, addend: 0x0, symName: __ZNSt3__120__shared_ptr_emplaceIN8firebase9firestore9immutable4impl8LlrbNodeINS2_5model11DocumentKeyENS6_15MutableDocumentEE3RepENS_9allocatorISA_EEE21__on_zero_shared_weakEv, symObjAddr: 0x3D00, symBinAddr: 0x14E54, symSize: 0x4 }
  - { offsetInCU: 0x3C1FA, offset: 0xF17EA, size: 0x8, addend: 0x0, symName: __ZNSt3__120__shared_ptr_emplaceIN8firebase9firestore9immutable4impl8LlrbNodeINS2_5model11DocumentKeyENS6_15MutableDocumentEE3RepENS_9allocatorISA_EEE21__on_zero_shared_weakEv, symObjAddr: 0x3D00, symBinAddr: 0x14E54, symSize: 0x4 }
  - { offsetInCU: 0x3C222, offset: 0xF1812, size: 0x8, addend: 0x0, symName: __ZNSt3__120__shared_ptr_emplaceIN8firebase9firestore9immutable4impl8LlrbNodeINS2_5model11DocumentKeyENS6_15MutableDocumentEE3RepENS_9allocatorISA_EEE21__on_zero_shared_weakEv, symObjAddr: 0x3D00, symBinAddr: 0x14E54, symSize: 0x4 }
  - { offsetInCU: 0x3C2A6, offset: 0xF1896, size: 0x8, addend: 0x0, symName: __ZNSt3__14pairIN8firebase9firestore5model11DocumentKeyENS3_15MutableDocumentEEaSB8ue170006ERKS6_, symObjAddr: 0x4444, symBinAddr: 0x15598, symSize: 0x58 }
  - { offsetInCU: 0x3C459, offset: 0xF1A49, size: 0x8, addend: 0x0, symName: __ZNSt3__14pairIN8firebase9firestore5model11DocumentKeyENS3_15MutableDocumentEEaSB8ue170006EOS6_, symObjAddr: 0x4978, symBinAddr: 0x15ACC, symSize: 0x58 }
  - { offsetInCU: 0x3C83E, offset: 0xF1E2E, size: 0x8, addend: 0x0, symName: __ZNSt3__120__shared_ptr_emplaceIN8firebase9firestore9immutable4impl10FixedArrayINS_4pairINS2_5model11DocumentKeyENS7_15MutableDocumentEEEEENS_9allocatorISB_EEEC2B8ue170006IJPKSA_RSH_EEESD_DpOT_, symObjAddr: 0x47A4, symBinAddr: 0x158F8, symSize: 0x54 }
  - { offsetInCU: 0x3C94B, offset: 0xF1F3B, size: 0x8, addend: 0x0, symName: __ZN8firebase9firestore9immutable4impl10FixedArrayINSt3__14pairINS0_5model11DocumentKeyENS6_15MutableDocumentEEEEC2IPKS9_EET_SE_, symObjAddr: 0x488C, symBinAddr: 0x159E0, symSize: 0x94 }
  - { offsetInCU: 0x3CA6F, offset: 0xF205F, size: 0x8, addend: 0x0, symName: __ZNSt3__120__shared_ptr_emplaceIN8firebase9firestore9immutable4impl10FixedArrayINS_4pairINS2_5model11DocumentKeyENS7_15MutableDocumentEEEEENS_9allocatorISB_EEED1Ev, symObjAddr: 0x47F8, symBinAddr: 0x1594C, symSize: 0x14 }
  - { offsetInCU: 0x3CA92, offset: 0xF2082, size: 0x8, addend: 0x0, symName: __ZNSt3__120__shared_ptr_emplaceIN8firebase9firestore9immutable4impl10FixedArrayINS_4pairINS2_5model11DocumentKeyENS7_15MutableDocumentEEEEENS_9allocatorISB_EEED1Ev, symObjAddr: 0x47F8, symBinAddr: 0x1594C, symSize: 0x14 }
  - { offsetInCU: 0x3CAC8, offset: 0xF20B8, size: 0x8, addend: 0x0, symName: __ZNSt3__120__shared_ptr_emplaceIN8firebase9firestore9immutable4impl10FixedArrayINS_4pairINS2_5model11DocumentKeyENS7_15MutableDocumentEEEEENS_9allocatorISB_EEED0Ev, symObjAddr: 0x480C, symBinAddr: 0x15960, symSize: 0x24 }
  - { offsetInCU: 0x3CB9E, offset: 0xF218E, size: 0x8, addend: 0x0, symName: __ZNSt3__120__shared_ptr_emplaceIN8firebase9firestore9immutable4impl10FixedArrayINS_4pairINS2_5model11DocumentKeyENS7_15MutableDocumentEEEEENS_9allocatorISB_EEE16__on_zero_sharedEv, symObjAddr: 0x4830, symBinAddr: 0x15984, symSize: 0x58 }
  - { offsetInCU: 0x3CE61, offset: 0xF2451, size: 0x8, addend: 0x0, symName: __ZNSt3__120__shared_ptr_emplaceIN8firebase9firestore9immutable4impl10FixedArrayINS_4pairINS2_5model11DocumentKeyENS7_15MutableDocumentEEEEENS_9allocatorISB_EEE21__on_zero_shared_weakEv, symObjAddr: 0x4888, symBinAddr: 0x159DC, symSize: 0x4 }
  - { offsetInCU: 0x3CE93, offset: 0xF2483, size: 0x8, addend: 0x0, symName: __ZNSt3__120__shared_ptr_emplaceIN8firebase9firestore9immutable4impl10FixedArrayINS_4pairINS2_5model11DocumentKeyENS7_15MutableDocumentEEEEENS_9allocatorISB_EEE21__on_zero_shared_weakEv, symObjAddr: 0x4888, symBinAddr: 0x159DC, symSize: 0x4 }
  - { offsetInCU: 0x3CEB6, offset: 0xF24A6, size: 0x8, addend: 0x0, symName: __ZNSt3__120__shared_ptr_emplaceIN8firebase9firestore9immutable4impl10FixedArrayINS_4pairINS2_5model11DocumentKeyENS7_15MutableDocumentEEEEENS_9allocatorISB_EEE21__on_zero_shared_weakEv, symObjAddr: 0x4888, symBinAddr: 0x159DC, symSize: 0x4 }
  - { offsetInCU: 0x3CED9, offset: 0xF24C9, size: 0x8, addend: 0x0, symName: __ZNSt3__120__shared_ptr_emplaceIN8firebase9firestore9immutable4impl10FixedArrayINS_4pairINS2_5model11DocumentKeyENS7_15MutableDocumentEEEEENS_9allocatorISB_EEE21__on_zero_shared_weakEv, symObjAddr: 0x4888, symBinAddr: 0x159DC, symSize: 0x4 }
  - { offsetInCU: 0x3CF07, offset: 0xF24F7, size: 0x8, addend: 0x0, symName: __ZNSt3__120__shared_ptr_emplaceIN8firebase9firestore9immutable4impl10FixedArrayINS_4pairINS2_5model11DocumentKeyENS7_15MutableDocumentEEEEENS_9allocatorISB_EEE21__on_zero_shared_weakEv, symObjAddr: 0x4888, symBinAddr: 0x159DC, symSize: 0x4 }
  - { offsetInCU: 0x3CF2F, offset: 0xF251F, size: 0x8, addend: 0x0, symName: __ZNSt3__120__shared_ptr_emplaceIN8firebase9firestore9immutable4impl10FixedArrayINS_4pairINS2_5model11DocumentKeyENS7_15MutableDocumentEEEEENS_9allocatorISB_EEE21__on_zero_shared_weakEv, symObjAddr: 0x4888, symBinAddr: 0x159DC, symSize: 0x4 }
  - { offsetInCU: 0x3CF8F, offset: 0xF257F, size: 0x8, addend: 0x0, symName: __ZNSt3__15arrayINS_4pairIN8firebase9firestore5model11DocumentKeyENS4_15MutableDocumentEEELm25EED1Ev, symObjAddr: 0x4920, symBinAddr: 0x15A74, symSize: 0x58 }
  - { offsetInCU: 0x3D21E, offset: 0xF280E, size: 0x8, addend: 0x0, symName: __ZN8firebase9firestore9immutable4impl10FixedArrayINSt3__14pairINS0_5model11DocumentKeyENS6_15MutableDocumentEEEEC2IPKS9_EET_SE_.cold.1, symObjAddr: 0x764C, symBinAddr: 0x17B3A4, symSize: 0x4C }
  - { offsetInCU: 0x3D3C7, offset: 0xF29B7, size: 0x8, addend: 0x0, symName: __ZNSt3__110shared_ptrIKN8firebase9firestore5model12ResourcePathEEaSB8ue170006EOS6_, symObjAddr: 0x49D0, symBinAddr: 0x15B24, symSize: 0x64 }
  - { offsetInCU: 0x3D522, offset: 0xF2B12, size: 0x8, addend: 0x0, symName: __ZNSt3__110shared_ptrIN8firebase9firestore5model11ObjectValueEEaSB8ue170006EOS5_, symObjAddr: 0x4A34, symBinAddr: 0x15B88, symSize: 0x64 }
  - { offsetInCU: 0x3D8A8, offset: 0xF2E98, size: 0x8, addend: 0x0, symName: __ZNSt3__110shared_ptrIKN8firebase9firestore9immutable4impl10FixedArrayINS_4pairINS2_5model11DocumentKeyENS7_8DocumentEEEEEED2B8ue170006Ev, symObjAddr: 0x4DA0, symBinAddr: 0x15E54, symSize: 0x58 }
  - { offsetInCU: 0x3D93A, offset: 0xF2F2A, size: 0x8, addend: 0x0, symName: __ZNSt3__110shared_ptrIN8firebase9firestore9immutable4impl8LlrbNodeINS2_5model11DocumentKeyENS6_8DocumentEE3RepEED2B8ue170006Ev, symObjAddr: 0x4DF8, symBinAddr: 0x15EAC, symSize: 0x58 }
  - { offsetInCU: 0x3DAAB, offset: 0xF309B, size: 0x8, addend: 0x0, symName: __ZNSt3__112__hash_tableINS_17__hash_value_typeINS_12basic_stringIcNS_11char_traitsIcEENS_9allocatorIcEEEEN8firebase9firestore9immutable9SortedSetINS9_5model11DocumentKeyENS9_4util10ComparatorISD_EEEEEENS_22__unordered_map_hasherIS7_SI_NS_4hashIS7_EENS_8equal_toIS7_EELb1EEENS_21__unordered_map_equalIS7_SI_SN_SL_Lb1EEENS5_ISI_EEE17__deallocate_nodeEPNS_16__hash_node_baseIPNS_11__hash_nodeISI_PvEEEE, symObjAddr: 0x4E88, symBinAddr: 0x15F3C, symSize: 0x4C }
  - { offsetInCU: 0x3DC58, offset: 0xF3248, size: 0x8, addend: 0x0, symName: __ZNSt3__116allocator_traitsINS_9allocatorINS_11__hash_nodeINS_17__hash_value_typeINS_12basic_stringIcNS_11char_traitsIcEENS1_IcEEEEN8firebase9firestore9immutable9SortedSetINSA_5model11DocumentKeyENSA_4util10ComparatorISE_EEEEEEPvEEEEE7destroyB8ue170006INS_4pairIKS8_SI_EEvvEEvRSM_PT_, symObjAddr: 0x4ED4, symBinAddr: 0x15F88, symSize: 0x3C }
  - { offsetInCU: 0x3E091, offset: 0xF3681, size: 0x8, addend: 0x0, symName: __ZNKSt3__18equal_toINS_12basic_stringIcNS_11char_traitsIcEENS_9allocatorIcEEEEEclB8ue170006ERKS6_S9_, symObjAddr: 0x5724, symBinAddr: 0x162E0, symSize: 0xA0 }
  - { offsetInCU: 0x3E1EB, offset: 0xF37DB, size: 0x8, addend: 0x0, symName: __ZNSt3__112__hash_tableINS_17__hash_value_typeINS_12basic_stringIcNS_11char_traitsIcEENS_9allocatorIcEEEEN8firebase9firestore9immutable9SortedSetINS9_5model11DocumentKeyENS9_4util10ComparatorISD_EEEEEENS_22__unordered_map_hasherIS7_SI_NS_4hashIS7_EENS_8equal_toIS7_EELb1EEENS_21__unordered_map_equalIS7_SI_SN_SL_Lb1EEENS5_ISI_EEE21__construct_node_hashIRKNS_21piecewise_construct_tEJNS_5tupleIJRKS7_EEENSX_IJEEEEEENS_10unique_ptrINS_11__hash_nodeISI_PvEENS_22__hash_node_destructorINS5_IS15_EEEEEEmOT_DpOT0_, symObjAddr: 0x51A4, symBinAddr: 0x16258, symSize: 0x88 }
  - { offsetInCU: 0x3E4C0, offset: 0xF3AB0, size: 0x8, addend: 0x0, symName: __ZNSt3__112__hash_tableINS_17__hash_value_typeINS_12basic_stringIcNS_11char_traitsIcEENS_9allocatorIcEEEEN8firebase9firestore9immutable9SortedSetINS9_5model11DocumentKeyENS9_4util10ComparatorISD_EEEEEENS_22__unordered_map_hasherIS7_SI_NS_4hashIS7_EENS_8equal_toIS7_EELb1EEENS_21__unordered_map_equalIS7_SI_SN_SL_Lb1EEENS5_ISI_EEE8__rehashILb1EEEvm, symObjAddr: 0x5848, symBinAddr: 0x16404, symSize: 0xDC }
  - { offsetInCU: 0x3E5A5, offset: 0xF3B95, size: 0x8, addend: 0x0, symName: __ZNSt3__122__hash_node_destructorINS_9allocatorINS_11__hash_nodeINS_17__hash_value_typeINS_12basic_stringIcNS_11char_traitsIcEENS1_IcEEEEN8firebase9firestore9immutable9SortedSetINSA_5model11DocumentKeyENSA_4util10ComparatorISE_EEEEEEPvEEEEEclB8ue170006EPSL_, symObjAddr: 0x5A7C, symBinAddr: 0x16638, symSize: 0x44 }
  - { offsetInCU: 0x3E921, offset: 0xF3F11, size: 0x8, addend: 0x0, symName: __ZNSt3__14pairIKNS_12basic_stringIcNS_11char_traitsIcEENS_9allocatorIcEEEEN8firebase9firestore9immutable9SortedSetINS9_5model11DocumentKeyENS9_4util10ComparatorISD_EEEEEC1B8ue170006IJRS7_EJEEENS_21piecewise_construct_tENS_5tupleIJDpT_EEENSM_IJDpT0_EEE, symObjAddr: 0x57C4, symBinAddr: 0x16380, symSize: 0x84 }
  - { offsetInCU: 0x3F59F, offset: 0xF4B8F, size: 0x8, addend: 0x0, symName: __ZNSt3__112__hash_tableINS_17__hash_value_typeINS_12basic_stringIcNS_11char_traitsIcEENS_9allocatorIcEEEEN8firebase9firestore9immutable9SortedSetINS9_5model11DocumentKeyENS9_4util10ComparatorISD_EEEEEENS_22__unordered_map_hasherIS7_SI_NS_4hashIS7_EENS_8equal_toIS7_EELb1EEENS_21__unordered_map_equalIS7_SI_SN_SL_Lb1EEENS5_ISI_EEE11__do_rehashILb1EEEvm, symObjAddr: 0x5924, symBinAddr: 0x164E0, symSize: 0x158 }
  - { offsetInCU: 0x3FA25, offset: 0xF5015, size: 0x8, addend: 0x0, symName: __ZNSt3__122__hash_node_destructorINS_9allocatorINS_11__hash_nodeINS_17__hash_value_typeINS_12basic_stringIcNS_11char_traitsIcEENS1_IcEEEEN8firebase9firestore9immutable9SortedSetINSA_5model11DocumentKeyENSA_4util10ComparatorISE_EEEEEEPvEEEEEclB8ue170006EPSL_, symObjAddr: 0x5A7C, symBinAddr: 0x16638, symSize: 0x44 }
  - { offsetInCU: 0x3FB01, offset: 0xF50F1, size: 0x8, addend: 0x0, symName: __ZZN8firebase9firestore9immutable4impl14ArraySortedMapINS0_5model11DocumentKeyENS0_4util5EmptyENS6_10ComparatorIS5_EEE10EmptyArrayEvENKUlvE_clEv, symObjAddr: 0x5B60, symBinAddr: 0x1671C, symSize: 0x5C }
  - { offsetInCU: 0x3FBE7, offset: 0xF51D7, size: 0x8, addend: 0x0, symName: __ZN8firebase9firestore9immutable4impl10FixedArrayINSt3__14pairINS0_5model11DocumentKeyENS0_4util5EmptyEEEEC2Ev, symObjAddr: 0x5BBC, symBinAddr: 0x16778, symSize: 0x68 }
  - { offsetInCU: 0x3FD01, offset: 0xF52F1, size: 0x8, addend: 0x0, symName: __ZNSt3__110shared_ptrIKN8firebase9firestore9immutable4impl10FixedArrayINS_4pairINS2_5model11DocumentKeyENS2_4util5EmptyEEEEEEC2B8ue170006ISC_vEEPT_, symObjAddr: 0x5C24, symBinAddr: 0x167E0, symSize: 0x7C }
  - { offsetInCU: 0x4030A, offset: 0xF58FA, size: 0x8, addend: 0x0, symName: __ZNSt3__110unique_ptrIN8firebase9firestore9immutable4impl10FixedArrayINS_4pairINS2_5model11DocumentKeyENS2_4util5EmptyEEEEENS_14default_deleteISC_EEE5resetB8ue170006EPSC_, symObjAddr: 0x5D40, symBinAddr: 0x168FC, symSize: 0x4C }
  - { offsetInCU: 0x404F2, offset: 0xF5AE2, size: 0x8, addend: 0x0, symName: __ZNSt3__120__shared_ptr_pointerIPN8firebase9firestore9immutable4impl10FixedArrayINS_4pairINS2_5model11DocumentKeyENS2_4util5EmptyEEEEENS_10shared_ptrIKSC_E27__shared_ptr_default_deleteISF_SC_EENS_9allocatorISC_EEED1Ev, symObjAddr: 0x5CA0, symBinAddr: 0x1685C, symSize: 0x4 }
  - { offsetInCU: 0x40515, offset: 0xF5B05, size: 0x8, addend: 0x0, symName: __ZNSt3__120__shared_ptr_pointerIPN8firebase9firestore9immutable4impl10FixedArrayINS_4pairINS2_5model11DocumentKeyENS2_4util5EmptyEEEEENS_10shared_ptrIKSC_E27__shared_ptr_default_deleteISF_SC_EENS_9allocatorISC_EEED1Ev, symObjAddr: 0x5CA0, symBinAddr: 0x1685C, symSize: 0x4 }
  - { offsetInCU: 0x40549, offset: 0xF5B39, size: 0x8, addend: 0x0, symName: __ZNSt3__120__shared_ptr_pointerIPN8firebase9firestore9immutable4impl10FixedArrayINS_4pairINS2_5model11DocumentKeyENS2_4util5EmptyEEEEENS_10shared_ptrIKSC_E27__shared_ptr_default_deleteISF_SC_EENS_9allocatorISC_EEED0Ev, symObjAddr: 0x5CA4, symBinAddr: 0x16860, symSize: 0x14 }
  - { offsetInCU: 0x405AB, offset: 0xF5B9B, size: 0x8, addend: 0x0, symName: __ZNSt3__120__shared_ptr_pointerIPN8firebase9firestore9immutable4impl10FixedArrayINS_4pairINS2_5model11DocumentKeyENS2_4util5EmptyEEEEENS_10shared_ptrIKSC_E27__shared_ptr_default_deleteISF_SC_EENS_9allocatorISC_EEE16__on_zero_sharedEv, symObjAddr: 0x5CB8, symBinAddr: 0x16874, symSize: 0x8 }
  - { offsetInCU: 0x405E0, offset: 0xF5BD0, size: 0x8, addend: 0x0, symName: __ZNKSt3__114default_deleteIN8firebase9firestore9immutable4impl10FixedArrayINS_4pairINS2_5model11DocumentKeyENS2_4util5EmptyEEEEEEclB8ue170006EPSC_, symObjAddr: 0x5D00, symBinAddr: 0x168BC, symSize: 0x40 }
  - { offsetInCU: 0x40774, offset: 0xF5D64, size: 0x8, addend: 0x0, symName: __ZNKSt3__120__shared_ptr_pointerIPN8firebase9firestore9immutable4impl10FixedArrayINS_4pairINS2_5model11DocumentKeyENS2_4util5EmptyEEEEENS_10shared_ptrIKSC_E27__shared_ptr_default_deleteISF_SC_EENS_9allocatorISC_EEE13__get_deleterERKSt9type_info, symObjAddr: 0x5CC0, symBinAddr: 0x1687C, symSize: 0x3C }
  - { offsetInCU: 0x40811, offset: 0xF5E01, size: 0x8, addend: 0x0, symName: __ZNSt3__120__shared_ptr_pointerIPN8firebase9firestore9immutable4impl10FixedArrayINS_4pairINS2_5model11DocumentKeyENS2_4util5EmptyEEEEENS_10shared_ptrIKSC_E27__shared_ptr_default_deleteISF_SC_EENS_9allocatorISC_EEE21__on_zero_shared_weakEv, symObjAddr: 0x5CFC, symBinAddr: 0x168B8, symSize: 0x4 }
  - { offsetInCU: 0x40846, offset: 0xF5E36, size: 0x8, addend: 0x0, symName: __ZNSt3__120__shared_ptr_pointerIPN8firebase9firestore9immutable4impl10FixedArrayINS_4pairINS2_5model11DocumentKeyENS2_4util5EmptyEEEEENS_10shared_ptrIKSC_E27__shared_ptr_default_deleteISF_SC_EENS_9allocatorISC_EEE21__on_zero_shared_weakEv, symObjAddr: 0x5CFC, symBinAddr: 0x168B8, symSize: 0x4 }
  - { offsetInCU: 0x40869, offset: 0xF5E59, size: 0x8, addend: 0x0, symName: __ZNSt3__120__shared_ptr_pointerIPN8firebase9firestore9immutable4impl10FixedArrayINS_4pairINS2_5model11DocumentKeyENS2_4util5EmptyEEEEENS_10shared_ptrIKSC_E27__shared_ptr_default_deleteISF_SC_EENS_9allocatorISC_EEE21__on_zero_shared_weakEv, symObjAddr: 0x5CFC, symBinAddr: 0x168B8, symSize: 0x4 }
  - { offsetInCU: 0x40895, offset: 0xF5E85, size: 0x8, addend: 0x0, symName: __ZNSt3__120__shared_ptr_pointerIPN8firebase9firestore9immutable4impl10FixedArrayINS_4pairINS2_5model11DocumentKeyENS2_4util5EmptyEEEEENS_10shared_ptrIKSC_E27__shared_ptr_default_deleteISF_SC_EENS_9allocatorISC_EEE21__on_zero_shared_weakEv, symObjAddr: 0x5CFC, symBinAddr: 0x168B8, symSize: 0x4 }
  - { offsetInCU: 0x408BB, offset: 0xF5EAB, size: 0x8, addend: 0x0, symName: __ZNSt3__120__shared_ptr_pointerIPN8firebase9firestore9immutable4impl10FixedArrayINS_4pairINS2_5model11DocumentKeyENS2_4util5EmptyEEEEENS_10shared_ptrIKSC_E27__shared_ptr_default_deleteISF_SC_EENS_9allocatorISC_EEE21__on_zero_shared_weakEv, symObjAddr: 0x5CFC, symBinAddr: 0x168B8, symSize: 0x4 }
  - { offsetInCU: 0x40974, offset: 0xF5F64, size: 0x8, addend: 0x0, symName: __ZNSt3__112__hash_tableINS_17__hash_value_typeINS_12basic_stringIcNS_11char_traitsIcEENS_9allocatorIcEEEEN8firebase9firestore9immutable9SortedSetINS9_5model11DocumentKeyENS9_4util10ComparatorISD_EEEEEENS_22__unordered_map_hasherIS7_SI_NS_4hashIS7_EENS_8equal_toIS7_EELb1EEENS_21__unordered_map_equalIS7_SI_SN_SL_Lb1EEENS5_ISI_EEE21__construct_node_hashIRKS7_JSH_EEENS_10unique_ptrINS_11__hash_nodeISI_PvEENS_22__hash_node_destructorINS5_ISZ_EEEEEEmOT_DpOT0_, symObjAddr: 0x6010, symBinAddr: 0x16BCC, symSize: 0x98 }
  - { offsetInCU: 0x40D5F, offset: 0xF634F, size: 0x8, addend: 0x0, symName: __ZNSt3__14pairIKNS_12basic_stringIcNS_11char_traitsIcEENS_9allocatorIcEEEEN8firebase9firestore9immutable9SortedSetINS9_5model11DocumentKeyENS9_4util10ComparatorISD_EEEEEC2B8ue170006IRS7_SH_LPv0EEEOT_OT0_, symObjAddr: 0x60A8, symBinAddr: 0x16C64, symSize: 0x90 }
  - { offsetInCU: 0x4115A, offset: 0xF674A, size: 0x8, addend: 0x0, symName: __ZN8firebase9firestore9immutable4impl13TreeSortedMapINS0_5model11DocumentKeyENS0_4util5EmptyENS6_10ComparatorIS5_EEE6CreateINS2_14ArraySortedMapIS5_S7_S9_EEEESA_RKT_RKS9_, symObjAddr: 0x6290, symBinAddr: 0x16E4C, symSize: 0x148 }
  - { offsetInCU: 0x417DF, offset: 0xF6DCF, size: 0x8, addend: 0x0, symName: __ZNK8firebase9firestore9immutable4impl13TreeSortedMapINS0_5model11DocumentKeyENS0_4util5EmptyENS6_10ComparatorIS5_EEE6insertERKS5_RKS7_, symObjAddr: 0x63D8, symBinAddr: 0x16F94, symSize: 0x50 }
  - { offsetInCU: 0x419CC, offset: 0xF6FBC, size: 0x8, addend: 0x0, symName: __ZNK8firebase9firestore9immutable4impl14ArraySortedMapINS0_5model11DocumentKeyENS0_4util5EmptyENS6_10ComparatorIS5_EEE6insertERKS5_RKS7_, symObjAddr: 0x6428, symBinAddr: 0x16FE4, symSize: 0x1EC }
  - { offsetInCU: 0x424F7, offset: 0xF7AE7, size: 0x8, addend: 0x0, symName: __ZNK8firebase9firestore9immutable4impl8LlrbNodeINS0_5model11DocumentKeyENS0_4util5EmptyEE11InnerInsertINS6_10ComparatorIS5_EEEES8_RKS5_RKS7_RKT_, symObjAddr: 0x68EC, symBinAddr: 0x174A8, symSize: 0x278 }
  - { offsetInCU: 0x43882, offset: 0xF8E72, size: 0x8, addend: 0x0, symName: __ZN8firebase9firestore9immutable4impl10FixedArrayINSt3__14pairINS0_5model11DocumentKeyENS0_4util5EmptyEEEE6appendEOSA_, symObjAddr: 0x720C, symBinAddr: 0x17DC8, symSize: 0x90 }
  - { offsetInCU: 0x43B02, offset: 0xF90F2, size: 0x8, addend: 0x0, symName: __ZN8firebase9firestore9immutable4impl10FixedArrayINSt3__14pairINS0_5model11DocumentKeyENS0_4util5EmptyEEEE6appendIPKSA_EEvT_SF_, symObjAddr: 0x729C, symBinAddr: 0x17E58, symSize: 0xAC }
  - { offsetInCU: 0x43DE8, offset: 0xF93D8, size: 0x8, addend: 0x0, symName: __ZNSt3__110shared_ptrIN8firebase9firestore9immutable4impl10FixedArrayINS_4pairINS2_5model11DocumentKeyENS2_4util5EmptyEEEEEED2B8ue170006Ev, symObjAddr: 0x75F4, symBinAddr: 0x181B0, symSize: 0x58 }
  - { offsetInCU: 0x43E7C, offset: 0xF946C, size: 0x8, addend: 0x0, symName: __ZZN8firebase9firestore9immutable4impl8LlrbNodeINS0_5model11DocumentKeyENS0_4util5EmptyEE8EmptyRepEvENKUlvE_clEv, symObjAddr: 0x6690, symBinAddr: 0x1724C, symSize: 0xA8 }
  - { offsetInCU: 0x44265, offset: 0xF9855, size: 0x8, addend: 0x0, symName: __ZNSt3__110shared_ptrIN8firebase9firestore9immutable4impl8LlrbNodeINS2_5model11DocumentKeyENS2_4util5EmptyEE3RepEEC2B8ue170006ISB_vEEPT_, symObjAddr: 0x67B0, symBinAddr: 0x1736C, symSize: 0x70 }
  - { offsetInCU: 0x443B7, offset: 0xF99A7, size: 0x8, addend: 0x0, symName: __ZNSt3__110shared_ptrIN8firebase9firestore9immutable4impl8LlrbNodeINS2_5model11DocumentKeyENS2_4util5EmptyEE3RepEEaSB8ue170006ERKSC_, symObjAddr: 0x6738, symBinAddr: 0x172F4, symSize: 0x78 }
  - { offsetInCU: 0x44760, offset: 0xF9D50, size: 0x8, addend: 0x0, symName: __ZNKSt3__114default_deleteIN8firebase9firestore9immutable4impl8LlrbNodeINS2_5model11DocumentKeyENS2_4util5EmptyEE3RepEEclB8ue170006EPSB_, symObjAddr: 0x6880, symBinAddr: 0x1743C, symSize: 0x3C }
  - { offsetInCU: 0x44951, offset: 0xF9F41, size: 0x8, addend: 0x0, symName: __ZNSt3__120__shared_ptr_pointerIPN8firebase9firestore9immutable4impl8LlrbNodeINS2_5model11DocumentKeyENS2_4util5EmptyEE3RepENS_10shared_ptrISB_E27__shared_ptr_default_deleteISB_SB_EENS_9allocatorISB_EEED1Ev, symObjAddr: 0x6820, symBinAddr: 0x173DC, symSize: 0x4 }
  - { offsetInCU: 0x44974, offset: 0xF9F64, size: 0x8, addend: 0x0, symName: __ZNSt3__120__shared_ptr_pointerIPN8firebase9firestore9immutable4impl8LlrbNodeINS2_5model11DocumentKeyENS2_4util5EmptyEE3RepENS_10shared_ptrISB_E27__shared_ptr_default_deleteISB_SB_EENS_9allocatorISB_EEED1Ev, symObjAddr: 0x6820, symBinAddr: 0x173DC, symSize: 0x4 }
  - { offsetInCU: 0x449A8, offset: 0xF9F98, size: 0x8, addend: 0x0, symName: __ZNSt3__120__shared_ptr_pointerIPN8firebase9firestore9immutable4impl8LlrbNodeINS2_5model11DocumentKeyENS2_4util5EmptyEE3RepENS_10shared_ptrISB_E27__shared_ptr_default_deleteISB_SB_EENS_9allocatorISB_EEED0Ev, symObjAddr: 0x6824, symBinAddr: 0x173E0, symSize: 0x14 }
  - { offsetInCU: 0x44A0A, offset: 0xF9FFA, size: 0x8, addend: 0x0, symName: __ZNSt3__120__shared_ptr_pointerIPN8firebase9firestore9immutable4impl8LlrbNodeINS2_5model11DocumentKeyENS2_4util5EmptyEE3RepENS_10shared_ptrISB_E27__shared_ptr_default_deleteISB_SB_EENS_9allocatorISB_EEE16__on_zero_sharedEv, symObjAddr: 0x6838, symBinAddr: 0x173F4, symSize: 0x8 }
  - { offsetInCU: 0x44A3F, offset: 0xFA02F, size: 0x8, addend: 0x0, symName: __ZNKSt3__120__shared_ptr_pointerIPN8firebase9firestore9immutable4impl8LlrbNodeINS2_5model11DocumentKeyENS2_4util5EmptyEE3RepENS_10shared_ptrISB_E27__shared_ptr_default_deleteISB_SB_EENS_9allocatorISB_EEE13__get_deleterERKSt9type_info, symObjAddr: 0x6840, symBinAddr: 0x173FC, symSize: 0x3C }
  - { offsetInCU: 0x44ADC, offset: 0xFA0CC, size: 0x8, addend: 0x0, symName: __ZNSt3__120__shared_ptr_pointerIPN8firebase9firestore9immutable4impl8LlrbNodeINS2_5model11DocumentKeyENS2_4util5EmptyEE3RepENS_10shared_ptrISB_E27__shared_ptr_default_deleteISB_SB_EENS_9allocatorISB_EEE21__on_zero_shared_weakEv, symObjAddr: 0x687C, symBinAddr: 0x17438, symSize: 0x4 }
  - { offsetInCU: 0x44B11, offset: 0xFA101, size: 0x8, addend: 0x0, symName: __ZNSt3__120__shared_ptr_pointerIPN8firebase9firestore9immutable4impl8LlrbNodeINS2_5model11DocumentKeyENS2_4util5EmptyEE3RepENS_10shared_ptrISB_E27__shared_ptr_default_deleteISB_SB_EENS_9allocatorISB_EEE21__on_zero_shared_weakEv, symObjAddr: 0x687C, symBinAddr: 0x17438, symSize: 0x4 }
  - { offsetInCU: 0x44B34, offset: 0xFA124, size: 0x8, addend: 0x0, symName: __ZNSt3__120__shared_ptr_pointerIPN8firebase9firestore9immutable4impl8LlrbNodeINS2_5model11DocumentKeyENS2_4util5EmptyEE3RepENS_10shared_ptrISB_E27__shared_ptr_default_deleteISB_SB_EENS_9allocatorISB_EEE21__on_zero_shared_weakEv, symObjAddr: 0x687C, symBinAddr: 0x17438, symSize: 0x4 }
  - { offsetInCU: 0x44B60, offset: 0xFA150, size: 0x8, addend: 0x0, symName: __ZNSt3__120__shared_ptr_pointerIPN8firebase9firestore9immutable4impl8LlrbNodeINS2_5model11DocumentKeyENS2_4util5EmptyEE3RepENS_10shared_ptrISB_E27__shared_ptr_default_deleteISB_SB_EENS_9allocatorISB_EEE21__on_zero_shared_weakEv, symObjAddr: 0x687C, symBinAddr: 0x17438, symSize: 0x4 }
  - { offsetInCU: 0x44B86, offset: 0xFA176, size: 0x8, addend: 0x0, symName: __ZNSt3__120__shared_ptr_pointerIPN8firebase9firestore9immutable4impl8LlrbNodeINS2_5model11DocumentKeyENS2_4util5EmptyEE3RepENS_10shared_ptrISB_E27__shared_ptr_default_deleteISB_SB_EENS_9allocatorISB_EEE21__on_zero_shared_weakEv, symObjAddr: 0x687C, symBinAddr: 0x17438, symSize: 0x4 }
  - { offsetInCU: 0x44BE5, offset: 0xFA1D5, size: 0x8, addend: 0x0, symName: __ZN8firebase9firestore9immutable4impl8LlrbNodeINS0_5model11DocumentKeyENS0_4util5EmptyEE3RepD1Ev, symObjAddr: 0x68BC, symBinAddr: 0x17478, symSize: 0x30 }
  - { offsetInCU: 0x4511F, offset: 0xFA70F, size: 0x8, addend: 0x0, symName: __ZNK8firebase9firestore9immutable4impl8LlrbNodeINS0_5model11DocumentKeyENS0_4util5EmptyEE5CloneEv, symObjAddr: 0x6B64, symBinAddr: 0x17720, symSize: 0xF4 }
  - { offsetInCU: 0x4585C, offset: 0xFAE4C, size: 0x8, addend: 0x0, symName: __ZN8firebase9firestore9immutable4impl8LlrbNodeINS0_5model11DocumentKeyENS0_4util5EmptyEE5FixUpEv, symObjAddr: 0x6C58, symBinAddr: 0x17814, symSize: 0xBC }
  - { offsetInCU: 0x45C6C, offset: 0xFB25C, size: 0x8, addend: 0x0, symName: __ZN8firebase9firestore9immutable4impl8LlrbNodeINS0_5model11DocumentKeyENS0_4util5EmptyEE10RotateLeftEv, symObjAddr: 0x6D84, symBinAddr: 0x17940, symSize: 0x1A8 }
  - { offsetInCU: 0x46977, offset: 0xFBF67, size: 0x8, addend: 0x0, symName: __ZN8firebase9firestore9immutable4impl8LlrbNodeINS0_5model11DocumentKeyENS0_4util5EmptyEE11RotateRightEv, symObjAddr: 0x6F2C, symBinAddr: 0x17AE8, symSize: 0x1A8 }
  - { offsetInCU: 0x47689, offset: 0xFCC79, size: 0x8, addend: 0x0, symName: __ZN8firebase9firestore9immutable4impl8LlrbNodeINS0_5model11DocumentKeyENS0_4util5EmptyEE9FlipColorEv, symObjAddr: 0x70D4, symBinAddr: 0x17C90, symSize: 0x138 }
  - { offsetInCU: 0x47C65, offset: 0xFD255, size: 0x8, addend: 0x0, symName: __ZNSt3__120__shared_ptr_emplaceIN8firebase9firestore9immutable4impl8LlrbNodeINS2_5model11DocumentKeyENS2_4util5EmptyEE3RepENS_9allocatorISB_EEED1Ev, symObjAddr: 0x6D14, symBinAddr: 0x178D0, symSize: 0x14 }
  - { offsetInCU: 0x47C88, offset: 0xFD278, size: 0x8, addend: 0x0, symName: __ZNSt3__120__shared_ptr_emplaceIN8firebase9firestore9immutable4impl8LlrbNodeINS2_5model11DocumentKeyENS2_4util5EmptyEE3RepENS_9allocatorISB_EEED1Ev, symObjAddr: 0x6D14, symBinAddr: 0x178D0, symSize: 0x14 }
  - { offsetInCU: 0x47CBE, offset: 0xFD2AE, size: 0x8, addend: 0x0, symName: __ZNSt3__120__shared_ptr_emplaceIN8firebase9firestore9immutable4impl8LlrbNodeINS2_5model11DocumentKeyENS2_4util5EmptyEE3RepENS_9allocatorISB_EEED0Ev, symObjAddr: 0x6D28, symBinAddr: 0x178E4, symSize: 0x24 }
  - { offsetInCU: 0x47D37, offset: 0xFD327, size: 0x8, addend: 0x0, symName: __ZNSt3__120__shared_ptr_emplaceIN8firebase9firestore9immutable4impl8LlrbNodeINS2_5model11DocumentKeyENS2_4util5EmptyEE3RepENS_9allocatorISB_EEE16__on_zero_sharedEv, symObjAddr: 0x6D4C, symBinAddr: 0x17908, symSize: 0x34 }
  - { offsetInCU: 0x47F80, offset: 0xFD570, size: 0x8, addend: 0x0, symName: __ZNSt3__120__shared_ptr_emplaceIN8firebase9firestore9immutable4impl8LlrbNodeINS2_5model11DocumentKeyENS2_4util5EmptyEE3RepENS_9allocatorISB_EEE21__on_zero_shared_weakEv, symObjAddr: 0x6D80, symBinAddr: 0x1793C, symSize: 0x4 }
  - { offsetInCU: 0x47FB2, offset: 0xFD5A2, size: 0x8, addend: 0x0, symName: __ZNSt3__120__shared_ptr_emplaceIN8firebase9firestore9immutable4impl8LlrbNodeINS2_5model11DocumentKeyENS2_4util5EmptyEE3RepENS_9allocatorISB_EEE21__on_zero_shared_weakEv, symObjAddr: 0x6D80, symBinAddr: 0x1793C, symSize: 0x4 }
  - { offsetInCU: 0x47FD5, offset: 0xFD5C5, size: 0x8, addend: 0x0, symName: __ZNSt3__120__shared_ptr_emplaceIN8firebase9firestore9immutable4impl8LlrbNodeINS2_5model11DocumentKeyENS2_4util5EmptyEE3RepENS_9allocatorISB_EEE21__on_zero_shared_weakEv, symObjAddr: 0x6D80, symBinAddr: 0x1793C, symSize: 0x4 }
  - { offsetInCU: 0x47FF8, offset: 0xFD5E8, size: 0x8, addend: 0x0, symName: __ZNSt3__120__shared_ptr_emplaceIN8firebase9firestore9immutable4impl8LlrbNodeINS2_5model11DocumentKeyENS2_4util5EmptyEE3RepENS_9allocatorISB_EEE21__on_zero_shared_weakEv, symObjAddr: 0x6D80, symBinAddr: 0x1793C, symSize: 0x4 }
  - { offsetInCU: 0x48025, offset: 0xFD615, size: 0x8, addend: 0x0, symName: __ZNSt3__120__shared_ptr_emplaceIN8firebase9firestore9immutable4impl8LlrbNodeINS2_5model11DocumentKeyENS2_4util5EmptyEE3RepENS_9allocatorISB_EEE21__on_zero_shared_weakEv, symObjAddr: 0x6D80, symBinAddr: 0x1793C, symSize: 0x4 }
  - { offsetInCU: 0x4804C, offset: 0xFD63C, size: 0x8, addend: 0x0, symName: __ZNSt3__120__shared_ptr_emplaceIN8firebase9firestore9immutable4impl8LlrbNodeINS2_5model11DocumentKeyENS2_4util5EmptyEE3RepENS_9allocatorISB_EEE21__on_zero_shared_weakEv, symObjAddr: 0x6D80, symBinAddr: 0x1793C, symSize: 0x4 }
  - { offsetInCU: 0x48465, offset: 0xFDA55, size: 0x8, addend: 0x0, symName: __ZNSt3__120__shared_ptr_emplaceIN8firebase9firestore9immutable4impl10FixedArrayINS_4pairINS2_5model11DocumentKeyENS2_4util5EmptyEEEEENS_9allocatorISC_EEEC2B8ue170006IJPKSB_RSI_EEESE_DpOT_, symObjAddr: 0x7438, symBinAddr: 0x17FF4, symSize: 0x54 }
  - { offsetInCU: 0x48572, offset: 0xFDB62, size: 0x8, addend: 0x0, symName: __ZN8firebase9firestore9immutable4impl10FixedArrayINSt3__14pairINS0_5model11DocumentKeyENS0_4util5EmptyEEEEC2IPKSA_EET_SF_, symObjAddr: 0x74F8, symBinAddr: 0x180B4, symSize: 0xA0 }
  - { offsetInCU: 0x487FB, offset: 0xFDDEB, size: 0x8, addend: 0x0, symName: __ZNSt3__120__shared_ptr_emplaceIN8firebase9firestore9immutable4impl10FixedArrayINS_4pairINS2_5model11DocumentKeyENS2_4util5EmptyEEEEENS_9allocatorISC_EEED1Ev, symObjAddr: 0x748C, symBinAddr: 0x18048, symSize: 0x14 }
  - { offsetInCU: 0x4881E, offset: 0xFDE0E, size: 0x8, addend: 0x0, symName: __ZNSt3__120__shared_ptr_emplaceIN8firebase9firestore9immutable4impl10FixedArrayINS_4pairINS2_5model11DocumentKeyENS2_4util5EmptyEEEEENS_9allocatorISC_EEED1Ev, symObjAddr: 0x748C, symBinAddr: 0x18048, symSize: 0x14 }
  - { offsetInCU: 0x48854, offset: 0xFDE44, size: 0x8, addend: 0x0, symName: __ZNSt3__120__shared_ptr_emplaceIN8firebase9firestore9immutable4impl10FixedArrayINS_4pairINS2_5model11DocumentKeyENS2_4util5EmptyEEEEENS_9allocatorISC_EEED0Ev, symObjAddr: 0x74A0, symBinAddr: 0x1805C, symSize: 0x24 }
  - { offsetInCU: 0x488B9, offset: 0xFDEA9, size: 0x8, addend: 0x0, symName: __ZNSt3__120__shared_ptr_emplaceIN8firebase9firestore9immutable4impl10FixedArrayINS_4pairINS2_5model11DocumentKeyENS2_4util5EmptyEEEEENS_9allocatorISC_EEE16__on_zero_sharedEv, symObjAddr: 0x74C4, symBinAddr: 0x18080, symSize: 0x30 }
  - { offsetInCU: 0x48A50, offset: 0xFE040, size: 0x8, addend: 0x0, symName: __ZNSt3__120__shared_ptr_emplaceIN8firebase9firestore9immutable4impl10FixedArrayINS_4pairINS2_5model11DocumentKeyENS2_4util5EmptyEEEEENS_9allocatorISC_EEE21__on_zero_shared_weakEv, symObjAddr: 0x74F4, symBinAddr: 0x180B0, symSize: 0x4 }
  - { offsetInCU: 0x48A82, offset: 0xFE072, size: 0x8, addend: 0x0, symName: __ZNSt3__120__shared_ptr_emplaceIN8firebase9firestore9immutable4impl10FixedArrayINS_4pairINS2_5model11DocumentKeyENS2_4util5EmptyEEEEENS_9allocatorISC_EEE21__on_zero_shared_weakEv, symObjAddr: 0x74F4, symBinAddr: 0x180B0, symSize: 0x4 }
  - { offsetInCU: 0x48AA5, offset: 0xFE095, size: 0x8, addend: 0x0, symName: __ZNSt3__120__shared_ptr_emplaceIN8firebase9firestore9immutable4impl10FixedArrayINS_4pairINS2_5model11DocumentKeyENS2_4util5EmptyEEEEENS_9allocatorISC_EEE21__on_zero_shared_weakEv, symObjAddr: 0x74F4, symBinAddr: 0x180B0, symSize: 0x4 }
  - { offsetInCU: 0x48AC8, offset: 0xFE0B8, size: 0x8, addend: 0x0, symName: __ZNSt3__120__shared_ptr_emplaceIN8firebase9firestore9immutable4impl10FixedArrayINS_4pairINS2_5model11DocumentKeyENS2_4util5EmptyEEEEENS_9allocatorISC_EEE21__on_zero_shared_weakEv, symObjAddr: 0x74F4, symBinAddr: 0x180B0, symSize: 0x4 }
  - { offsetInCU: 0x48AF6, offset: 0xFE0E6, size: 0x8, addend: 0x0, symName: __ZNSt3__120__shared_ptr_emplaceIN8firebase9firestore9immutable4impl10FixedArrayINS_4pairINS2_5model11DocumentKeyENS2_4util5EmptyEEEEENS_9allocatorISC_EEE21__on_zero_shared_weakEv, symObjAddr: 0x74F4, symBinAddr: 0x180B0, symSize: 0x4 }
  - { offsetInCU: 0x48B1E, offset: 0xFE10E, size: 0x8, addend: 0x0, symName: __ZNSt3__120__shared_ptr_emplaceIN8firebase9firestore9immutable4impl10FixedArrayINS_4pairINS2_5model11DocumentKeyENS2_4util5EmptyEEEEENS_9allocatorISC_EEE21__on_zero_shared_weakEv, symObjAddr: 0x74F4, symBinAddr: 0x180B0, symSize: 0x4 }
  - { offsetInCU: 0x4672, offset: 0x1028A8, size: 0x8, addend: 0x0, symName: __ZNSt3__1L19piecewise_constructE, symObjAddr: 0xCF21, symBinAddr: 0x182EA1, symSize: 0x0 }
  - { offsetInCU: 0x1A2A4, offset: 0x1184DA, size: 0x8, addend: 0x0, symName: __ZNSt3__119__allocate_at_leastB8ue170006INS_9allocatorImEEEENS_19__allocation_resultINS_16allocator_traitsIT_E7pointerEEERS5_m, symObjAddr: 0x50D8, symBinAddr: 0x1D128, symSize: 0x34 }
  - { offsetInCU: 0x1A342, offset: 0x118578, size: 0x8, addend: 0x0, symName: __ZNSt3__121__unwrap_and_dispatchB8ue170006INS_10__overloadINS_11__copy_loopINS_17_ClassicAlgPolicyEEENS_14__copy_trivialEEENS_14__bit_iteratorINS_6vectorIbNS_9allocatorIbEEEELb0ELm0EEESC_SC_Li0EEENS_4pairIT0_T2_EESE_T1_SF_, symObjAddr: 0x510C, symBinAddr: 0x1D15C, symSize: 0x8C }
  - { offsetInCU: 0x1A4E8, offset: 0x11871E, size: 0x8, addend: 0x0, symName: __ZNSt3__121__unwrap_and_dispatchB8ue170006INS_10__overloadINS_11__copy_loopINS_17_ClassicAlgPolicyEEENS_14__copy_trivialEEENS_14__bit_iteratorINS_6vectorIbNS_9allocatorIbEEEELb0ELm0EEESC_SC_Li0EEENS_4pairIT0_T2_EESE_T1_SF_, symObjAddr: 0x510C, symBinAddr: 0x1D15C, symSize: 0x8C }
  - { offsetInCU: 0x1AC5D, offset: 0x118E93, size: 0x8, addend: 0x0, symName: __ZNSt3__119__allocate_at_leastB8ue170006INS_9allocatorIPN8nlohmann10basic_jsonINS_3mapENS_6vectorENS_12basic_stringIcNS_11char_traitsIcEENS1_IcEEEEbxydS1_NS2_14adl_serializerENS5_IhNS1_IhEEEEEEEEEENS_19__allocation_resultINS_16allocator_traitsIT_E7pointerEEERSJ_m, symObjAddr: 0x6478, symBinAddr: 0x1E47C, symSize: 0x34 }
  - { offsetInCU: 0x1ACFB, offset: 0x118F31, size: 0x8, addend: 0x0, symName: __ZNK8nlohmann6detail9iter_implINS_10basic_jsonINSt3__13mapENS3_6vectorENS3_12basic_stringIcNS3_11char_traitsIcEENS3_9allocatorIcEEEEbxydS9_NS_14adl_serializerENS5_IhNS9_IhEEEEEEEptEv, symObjAddr: 0x64AC, symBinAddr: 0x1E4B0, symSize: 0x114 }
  - { offsetInCU: 0x1ADB5, offset: 0x118FEB, size: 0x8, addend: 0x0, symName: __ZNSt3__119__allocate_at_leastB8ue170006INS_9allocatorIN8nlohmann10basic_jsonINS_3mapENS_6vectorENS_12basic_stringIcNS_11char_traitsIcEENS1_IcEEEEbxydS1_NS2_14adl_serializerENS5_IhNS1_IhEEEEEEEEEENS_19__allocation_resultINS_16allocator_traitsIT_E7pointerEEERSI_m, symObjAddr: 0x61D8, symBinAddr: 0x1E1DC, symSize: 0x34 }
  - { offsetInCU: 0x1AE53, offset: 0x119089, size: 0x8, addend: 0x0, symName: __ZNSt3__142__uninitialized_allocator_move_if_noexceptB8ue170006INS_9allocatorIN8nlohmann10basic_jsonINS_3mapENS_6vectorENS_12basic_stringIcNS_11char_traitsIcEENS1_IcEEEEbxydS1_NS2_14adl_serializerENS5_IhNS1_IhEEEEEEEENS_16reverse_iteratorIPSE_EESI_SI_EET2_RT_T0_T1_SJ_, symObjAddr: 0x620C, symBinAddr: 0x1E210, symSize: 0xC0 }
  - { offsetInCU: 0x1AEAD, offset: 0x1190E3, size: 0x8, addend: 0x0, symName: __ZNSt3__142__uninitialized_allocator_move_if_noexceptB8ue170006INS_9allocatorIN8nlohmann10basic_jsonINS_3mapENS_6vectorENS_12basic_stringIcNS_11char_traitsIcEENS1_IcEEEEbxydS1_NS2_14adl_serializerENS5_IhNS1_IhEEEEEEEENS_16reverse_iteratorIPSE_EESI_SI_EET2_RT_T0_T1_SJ_, symObjAddr: 0x620C, symBinAddr: 0x1E210, symSize: 0xC0 }
  - { offsetInCU: 0x1B107, offset: 0x11933D, size: 0x8, addend: 0x0, symName: __ZNSt3__119__allocator_destroyB8ue170006INS_9allocatorIN8nlohmann10basic_jsonINS_3mapENS_6vectorENS_12basic_stringIcNS_11char_traitsIcEENS1_IcEEEEbxydS1_NS2_14adl_serializerENS5_IhNS1_IhEEEEEEEENS_16reverse_iteratorINSG_IPSE_EEEESJ_EEvRT_T0_T1_, symObjAddr: 0x6374, symBinAddr: 0x1E378, symSize: 0x64 }
  - { offsetInCU: 0x1BB52, offset: 0x119D88, size: 0x8, addend: 0x0, symName: __ZNSt3__127__tree_balance_after_insertB8ue170006IPNS_16__tree_node_baseIPvEEEEvT_S5_, symObjAddr: 0x6F28, symBinAddr: 0x1EF2C, symSize: 0x198 }
  - { offsetInCU: 0x1C235, offset: 0x11A46B, size: 0x8, addend: 0x0, symName: __ZNSt3__135__uninitialized_allocator_copy_implB8ue170006INS_9allocatorIN8nlohmann10basic_jsonINS_3mapENS_6vectorENS_12basic_stringIcNS_11char_traitsIcEENS1_IcEEEEbxydS1_NS2_14adl_serializerENS5_IhNS1_IhEEEEEEEEPSE_SG_SG_EET2_RT_T0_T1_SH_, symObjAddr: 0x72CC, symBinAddr: 0x1F2D0, symSize: 0xA0 }
  - { offsetInCU: 0x1C450, offset: 0x11A686, size: 0x8, addend: 0x0, symName: __ZNSt3__119__allocator_destroyB8ue170006INS_9allocatorIN8nlohmann10basic_jsonINS_3mapENS_6vectorENS_12basic_stringIcNS_11char_traitsIcEENS1_IcEEEEbxydS1_NS2_14adl_serializerENS5_IhNS1_IhEEEEEEEENS_16reverse_iteratorIPSE_EESI_EEvRT_T0_T1_, symObjAddr: 0x73B4, symBinAddr: 0x1F3B8, symSize: 0x54 }
  - { offsetInCU: 0x1CEF9, offset: 0x11B12F, size: 0x8, addend: 0x0, symName: __ZNSt3__113__tree_removeB8ue170006IPNS_16__tree_node_baseIPvEEEEvT_S5_, symObjAddr: 0x7CC0, symBinAddr: 0x1FCC4, symSize: 0x384 }
  - { offsetInCU: 0x1D725, offset: 0x11B95B, size: 0x8, addend: 0x0, symName: __ZNSt3__120__throw_out_of_rangeB8ue170006EPKc, symObjAddr: 0xB904, symBinAddr: 0x23408, symSize: 0x50 }
  - { offsetInCU: 0x237AB, offset: 0x1219E1, size: 0x8, addend: 0x0, symName: __ZNSt3__16vectorIN8nlohmann10basic_jsonINS_3mapES0_NS_12basic_stringIcNS_11char_traitsIcEENS_9allocatorIcEEEEbxydS7_NS1_14adl_serializerENS0_IhNS7_IhEEEEEENS7_ISD_EEE26__swap_out_circular_bufferERNS_14__split_bufferISD_RSE_EE, symObjAddr: 0x6150, symBinAddr: 0x1E154, symSize: 0x74 }
  - { offsetInCU: 0x264A3, offset: 0x1246D9, size: 0x8, addend: 0x0, symName: __ZN8firebase9firestore6bundle12BundleReaderC2ENS1_16BundleSerializerENSt3__110unique_ptrINS0_4util10ByteStreamENS4_14default_deleteIS7_EEEE, symObjAddr: 0x0, symBinAddr: 0x18208, symSize: 0x58 }
  - { offsetInCU: 0x264D6, offset: 0x12470C, size: 0x8, addend: 0x0, symName: __ZN8firebase9firestore6bundle12BundleReaderC2ENS1_16BundleSerializerENSt3__110unique_ptrINS0_4util10ByteStreamENS4_14default_deleteIS7_EEEE, symObjAddr: 0x0, symBinAddr: 0x18208, symSize: 0x58 }
  - { offsetInCU: 0x264F8, offset: 0x12472E, size: 0x8, addend: 0x0, symName: __ZN8firebase9firestore6bundle12BundleReaderC2ENS1_16BundleSerializerENSt3__110unique_ptrINS0_4util10ByteStreamENS4_14default_deleteIS7_EEEE, symObjAddr: 0x0, symBinAddr: 0x18208, symSize: 0x58 }
  - { offsetInCU: 0x2651A, offset: 0x124750, size: 0x8, addend: 0x0, symName: __ZN8firebase9firestore6bundle12BundleReaderC2ENS1_16BundleSerializerENSt3__110unique_ptrINS0_4util10ByteStreamENS4_14default_deleteIS7_EEEE, symObjAddr: 0x0, symBinAddr: 0x18208, symSize: 0x58 }
  - { offsetInCU: 0x2653C, offset: 0x124772, size: 0x8, addend: 0x0, symName: __ZN8firebase9firestore6bundle12BundleReaderC2ENS1_16BundleSerializerENSt3__110unique_ptrINS0_4util10ByteStreamENS4_14default_deleteIS7_EEEE, symObjAddr: 0x0, symBinAddr: 0x18208, symSize: 0x58 }
  - { offsetInCU: 0x2655E, offset: 0x124794, size: 0x8, addend: 0x0, symName: __ZN8firebase9firestore6bundle12BundleReaderC2ENS1_16BundleSerializerENSt3__110unique_ptrINS0_4util10ByteStreamENS4_14default_deleteIS7_EEEE, symObjAddr: 0x0, symBinAddr: 0x18208, symSize: 0x58 }
  - { offsetInCU: 0x26580, offset: 0x1247B6, size: 0x8, addend: 0x0, symName: __ZN8firebase9firestore6bundle12BundleReaderC2ENS1_16BundleSerializerENSt3__110unique_ptrINS0_4util10ByteStreamENS4_14default_deleteIS7_EEEE, symObjAddr: 0x0, symBinAddr: 0x18208, symSize: 0x58 }
  - { offsetInCU: 0x265A2, offset: 0x1247D8, size: 0x8, addend: 0x0, symName: __ZN8firebase9firestore6bundle12BundleReaderC2ENS1_16BundleSerializerENSt3__110unique_ptrINS0_4util10ByteStreamENS4_14default_deleteIS7_EEEE, symObjAddr: 0x0, symBinAddr: 0x18208, symSize: 0x58 }
  - { offsetInCU: 0x265C4, offset: 0x1247FA, size: 0x8, addend: 0x0, symName: __ZN8firebase9firestore6bundle12BundleReaderC2ENS1_16BundleSerializerENSt3__110unique_ptrINS0_4util10ByteStreamENS4_14default_deleteIS7_EEEE, symObjAddr: 0x0, symBinAddr: 0x18208, symSize: 0x58 }
  - { offsetInCU: 0x2691A, offset: 0x124B50, size: 0x8, addend: 0x0, symName: __ZN8firebase9firestore6bundle12BundleReaderC1ENS1_16BundleSerializerENSt3__110unique_ptrINS0_4util10ByteStreamENS4_14default_deleteIS7_EEEE, symObjAddr: 0x58, symBinAddr: 0x18260, symSize: 0x58 }
  - { offsetInCU: 0x26962, offset: 0x124B98, size: 0x8, addend: 0x0, symName: __ZN8firebase9firestore6bundle12BundleReaderC1ENS1_16BundleSerializerENSt3__110unique_ptrINS0_4util10ByteStreamENS4_14default_deleteIS7_EEEE, symObjAddr: 0x58, symBinAddr: 0x18260, symSize: 0x58 }
  - { offsetInCU: 0x2698D, offset: 0x124BC3, size: 0x8, addend: 0x0, symName: __ZN8firebase9firestore6bundle12BundleReaderC1ENS1_16BundleSerializerENSt3__110unique_ptrINS0_4util10ByteStreamENS4_14default_deleteIS7_EEEE, symObjAddr: 0x58, symBinAddr: 0x18260, symSize: 0x58 }
  - { offsetInCU: 0x269AF, offset: 0x124BE5, size: 0x8, addend: 0x0, symName: __ZN8firebase9firestore6bundle12BundleReaderC1ENS1_16BundleSerializerENSt3__110unique_ptrINS0_4util10ByteStreamENS4_14default_deleteIS7_EEEE, symObjAddr: 0x58, symBinAddr: 0x18260, symSize: 0x58 }
  - { offsetInCU: 0x269D1, offset: 0x124C07, size: 0x8, addend: 0x0, symName: __ZN8firebase9firestore6bundle12BundleReaderC1ENS1_16BundleSerializerENSt3__110unique_ptrINS0_4util10ByteStreamENS4_14default_deleteIS7_EEEE, symObjAddr: 0x58, symBinAddr: 0x18260, symSize: 0x58 }
  - { offsetInCU: 0x269F3, offset: 0x124C29, size: 0x8, addend: 0x0, symName: __ZN8firebase9firestore6bundle12BundleReaderC1ENS1_16BundleSerializerENSt3__110unique_ptrINS0_4util10ByteStreamENS4_14default_deleteIS7_EEEE, symObjAddr: 0x58, symBinAddr: 0x18260, symSize: 0x58 }
  - { offsetInCU: 0x26A15, offset: 0x124C4B, size: 0x8, addend: 0x0, symName: __ZN8firebase9firestore6bundle12BundleReaderC1ENS1_16BundleSerializerENSt3__110unique_ptrINS0_4util10ByteStreamENS4_14default_deleteIS7_EEEE, symObjAddr: 0x58, symBinAddr: 0x18260, symSize: 0x58 }
  - { offsetInCU: 0x26A37, offset: 0x124C6D, size: 0x8, addend: 0x0, symName: __ZN8firebase9firestore6bundle12BundleReaderC1ENS1_16BundleSerializerENSt3__110unique_ptrINS0_4util10ByteStreamENS4_14default_deleteIS7_EEEE, symObjAddr: 0x58, symBinAddr: 0x18260, symSize: 0x58 }
  - { offsetInCU: 0x26A59, offset: 0x124C8F, size: 0x8, addend: 0x0, symName: __ZN8firebase9firestore6bundle12BundleReaderC1ENS1_16BundleSerializerENSt3__110unique_ptrINS0_4util10ByteStreamENS4_14default_deleteIS7_EEEE, symObjAddr: 0x58, symBinAddr: 0x18260, symSize: 0x58 }
  - { offsetInCU: 0x26A7B, offset: 0x124CB1, size: 0x8, addend: 0x0, symName: __ZN8firebase9firestore6bundle12BundleReaderC1ENS1_16BundleSerializerENSt3__110unique_ptrINS0_4util10ByteStreamENS4_14default_deleteIS7_EEEE, symObjAddr: 0x58, symBinAddr: 0x18260, symSize: 0x58 }
  - { offsetInCU: 0x26FE1, offset: 0x125217, size: 0x8, addend: 0x0, symName: __ZN8firebase9firestore6bundle12BundleReader17GetBundleMetadataEv, symObjAddr: 0xB0, symBinAddr: 0x182B8, symSize: 0x1C8 }
  - { offsetInCU: 0x2765D, offset: 0x125893, size: 0x8, addend: 0x0, symName: __ZN8firebase9firestore6bundle12BundleReader15ReadNextElementEv, symObjAddr: 0x278, symBinAddr: 0x18480, symSize: 0x1C4 }
  - { offsetInCU: 0x28388, offset: 0x1265BE, size: 0x8, addend: 0x0, symName: __ZN8nlohmann10basic_jsonINSt3__13mapENS1_6vectorENS1_12basic_stringIcNS1_11char_traitsIcEENS1_9allocatorIcEEEEbxydS7_NS_14adl_serializerENS3_IhNS7_IhEEEEE10json_value7destroyENS_6detail7value_tE, symObjAddr: 0xB3B8, symBinAddr: 0x22EBC, symSize: 0x310 }
  - { offsetInCU: 0x2839F, offset: 0x1265D5, size: 0x8, addend: 0x0, symName: __ZN8firebase9firestore6bundle12BundleReader4FailENSt3__112basic_stringIcNS3_11char_traitsIcEENS3_9allocatorIcEEEE, symObjAddr: 0x43C, symBinAddr: 0x18644, symSize: 0xA4 }
  - { offsetInCU: 0x28CB2, offset: 0x126EE8, size: 0x8, addend: 0x0, symName: __ZN8firebase9firestore6bundle12BundleReader16ReadLengthPrefixEv, symObjAddr: 0x57C, symBinAddr: 0x18784, symSize: 0xC8 }
  - { offsetInCU: 0x290A4, offset: 0x1272DA, size: 0x8, addend: 0x0, symName: __ZN8firebase9firestore6bundle12BundleReader16ReadJsonToBufferEm, symObjAddr: 0x644, symBinAddr: 0x1884C, symSize: 0x16C }
  - { offsetInCU: 0x296F8, offset: 0x12792E, size: 0x8, addend: 0x0, symName: __ZN8firebase9firestore6bundle12BundleReader29DecodeBundleElementFromBufferEv, symObjAddr: 0x7B0, symBinAddr: 0x189B8, symSize: 0x644 }
  - { offsetInCU: 0x2B0C9, offset: 0x1292FF, size: 0x8, addend: 0x0, symName: __ZN8firebase9firestore6bundle12BundleReader14GetNextElementEv, symObjAddr: 0x4E0, symBinAddr: 0x186E8, symSize: 0x5C }
  - { offsetInCU: 0x2B28D, offset: 0x1294C3, size: 0x8, addend: 0x0, symName: __ZN8firebase9firestore6bundle14BundleMetadataD1Ev, symObjAddr: 0x53C, symBinAddr: 0x18744, symSize: 0x40 }
  - { offsetInCU: 0x2B5E9, offset: 0x12981F, size: 0x8, addend: 0x0, symName: __ZN8firebase9firestore4util17internal_statusor12StatusOrDataINSt3__112basic_stringIcNS4_11char_traitsIcEENS4_9allocatorIcEEEEED2Ev, symObjAddr: 0x127C, symBinAddr: 0x192CC, symSize: 0x40 }
  - { offsetInCU: 0x2C512, offset: 0x12A748, size: 0x8, addend: 0x0, symName: __ZN8nlohmann10basic_jsonINSt3__13mapENS1_6vectorENS1_12basic_stringIcNS1_11char_traitsIcEENS1_9allocatorIcEEEEbxydS7_NS_14adl_serializerENS3_IhNS7_IhEEEEE5parseIPKcEESD_T_SH_NS1_8functionIFbiNS_6detail13parse_event_tERSD_EEEbb, symObjAddr: 0x12BC, symBinAddr: 0x1930C, symSize: 0x190 }
  - { offsetInCU: 0x2C97C, offset: 0x12ABB2, size: 0x8, addend: 0x0, symName: __ZNSt3__16__treeINS_12__value_typeINS_12basic_stringIcNS_11char_traitsIcEENS_9allocatorIcEEEEN8nlohmann10basic_jsonINS_3mapENS_6vectorES7_bxydS5_NS8_14adl_serializerENSB_IhNS5_IhEEEEEEEENS_19__map_value_compareIS7_SG_NS_4lessIvEELb1EEENS5_ISG_EEE4findIA9_cEENS_15__tree_iteratorISG_PNS_11__tree_nodeISG_PvEElEERKT_, symObjAddr: 0xB84C, symBinAddr: 0x23350, symSize: 0x7C }
  - { offsetInCU: 0x2CAFE, offset: 0x12AD34, size: 0x8, addend: 0x0, symName: __ZN8nlohmann10basic_jsonINSt3__13mapENS1_6vectorENS1_12basic_stringIcNS1_11char_traitsIcEENS1_9allocatorIcEEEEbxydS7_NS_14adl_serializerENS3_IhNS7_IhEEEEE2atERKS9_, symObjAddr: 0xDF4, symBinAddr: 0x18FFC, symSize: 0x218 }
  - { offsetInCU: 0x2D166, offset: 0x12B39C, size: 0x8, addend: 0x0, symName: __ZNSt3__16__treeINS_12__value_typeINS_12basic_stringIcNS_11char_traitsIcEENS_9allocatorIcEEEEN8nlohmann10basic_jsonINS_3mapENS_6vectorES7_bxydS5_NS8_14adl_serializerENSB_IhNS5_IhEEEEEEEENS_19__map_value_compareIS7_SG_NS_4lessIvEELb1EEENS5_ISG_EEE4findIA11_cEENS_15__tree_iteratorISG_PNS_11__tree_nodeISG_PvEElEERKT_, symObjAddr: 0xB978, symBinAddr: 0x2347C, symSize: 0x7C }
  - { offsetInCU: 0x2D73F, offset: 0x12B975, size: 0x8, addend: 0x0, symName: __ZNSt3__16__treeINS_12__value_typeINS_12basic_stringIcNS_11char_traitsIcEENS_9allocatorIcEEEEN8nlohmann10basic_jsonINS_3mapENS_6vectorES7_bxydS5_NS8_14adl_serializerENSB_IhNS5_IhEEEEEEEENS_19__map_value_compareIS7_SG_NS_4lessIvEELb1EEENS5_ISG_EEE4findIA17_cEENS_15__tree_iteratorISG_PNS_11__tree_nodeISG_PvEElEERKT_, symObjAddr: 0xB9F4, symBinAddr: 0x234F8, symSize: 0x7C }
  - { offsetInCU: 0x2D94D, offset: 0x12BB83, size: 0x8, addend: 0x0, symName: __ZNK8nlohmann10basic_jsonINSt3__13mapENS1_6vectorENS1_12basic_stringIcNS1_11char_traitsIcEENS1_9allocatorIcEEEEbxydS7_NS_14adl_serializerENS3_IhNS7_IhEEEEE16assert_invariantEv, symObjAddr: 0x1AF8, symBinAddr: 0x19B48, symSize: 0xB0 }
  - { offsetInCU: 0x2D972, offset: 0x12BBA8, size: 0x8, addend: 0x0, symName: __ZN8nlohmann10basic_jsonINSt3__13mapENS1_6vectorENS1_12basic_stringIcNS1_11char_traitsIcEENS1_9allocatorIcEEEEbxydS7_NS_14adl_serializerENS3_IhNS7_IhEEEEE10json_value7destroyENS_6detail7value_tE, symObjAddr: 0xB3B8, symBinAddr: 0x22EBC, symSize: 0x310 }
  - { offsetInCU: 0x2E9B1, offset: 0x12CBE7, size: 0x8, addend: 0x0, symName: __ZN8nlohmann10basic_jsonINSt3__13mapENS1_6vectorENS1_12basic_stringIcNS1_11char_traitsIcEENS1_9allocatorIcEEEEbxydS7_NS_14adl_serializerENS3_IhNS7_IhEEEEED1Ev, symObjAddr: 0x10A4, symBinAddr: 0x19254, symSize: 0x30 }
  - { offsetInCU: 0x2EA13, offset: 0x12CC49, size: 0x8, addend: 0x0, symName: __ZNSt3__13mapINS_12basic_stringIcNS_11char_traitsIcEENS_9allocatorIcEEEEN8nlohmann10basic_jsonIS0_NS_6vectorES6_bxydS4_NS7_14adl_serializerENS9_IhNS4_IhEEEEEENS_4lessIvEENS4_INS_4pairIKS6_SD_EEEEE2atERSH_, symObjAddr: 0xB8C8, symBinAddr: 0x233CC, symSize: 0x3C }
  - { offsetInCU: 0x2EA90, offset: 0x12CCC6, size: 0x8, addend: 0x0, symName: __ZNSt3__120__throw_out_of_rangeB8ue170006EPKc, symObjAddr: 0xB904, symBinAddr: 0x23408, symSize: 0x50 }
  - { offsetInCU: 0x2EA9B, offset: 0x12CCD1, size: 0x8, addend: 0x0, symName: __ZNK8nlohmann10basic_jsonINSt3__13mapENS1_6vectorENS1_12basic_stringIcNS1_11char_traitsIcEENS1_9allocatorIcEEEEbxydS7_NS_14adl_serializerENS3_IhNS7_IhEEEEE9type_nameEv, symObjAddr: 0x7BAC, symBinAddr: 0x1FBB0, symSize: 0x28 }
  - { offsetInCU: 0x2EAED, offset: 0x12CD23, size: 0x8, addend: 0x0, symName: __ZN8nlohmann6detail10type_error6createEiRKNSt3__112basic_stringIcNS2_11char_traitsIcEENS2_9allocatorIcEEEE, symObjAddr: 0x7A78, symBinAddr: 0x1FA7C, symSize: 0x134 }
  - { offsetInCU: 0x2F30F, offset: 0x12D545, size: 0x8, addend: 0x0, symName: __ZN8nlohmann6detail12out_of_range6createEiRKNSt3__112basic_stringIcNS2_11char_traitsIcEENS2_9allocatorIcEEEE, symObjAddr: 0x5B70, symBinAddr: 0x1DBC0, symSize: 0x134 }
  - { offsetInCU: 0x2FB7B, offset: 0x12DDB1, size: 0x8, addend: 0x0, symName: __ZN8firebase9firestore6bundle14BundleDocumentD1Ev, symObjAddr: 0x1064, symBinAddr: 0x19214, symSize: 0x40 }
  - { offsetInCU: 0x2FC83, offset: 0x12DEB9, size: 0x8, addend: 0x0, symName: __ZN8firebase9firestore6bundle14BundleMetadataD0Ev, symObjAddr: 0x10D4, symBinAddr: 0x19284, symSize: 0x40 }
  - { offsetInCU: 0x2FE0B, offset: 0x12E041, size: 0x8, addend: 0x0, symName: __ZNK8firebase9firestore6bundle14BundleMetadata12element_typeEv, symObjAddr: 0x1114, symBinAddr: 0x192C4, symSize: 0x8 }
  - { offsetInCU: 0x30166, offset: 0x12E39C, size: 0x8, addend: 0x0, symName: __ZNSt3__110__function12__value_funcIFbiN8nlohmann6detail13parse_event_tERNS2_10basic_jsonINS_3mapENS_6vectorENS_12basic_stringIcNS_11char_traitsIcEENS_9allocatorIcEEEEbxydSB_NS2_14adl_serializerENS7_IhNSB_IhEEEEEEEEC2B8ue170006ERKSK_, symObjAddr: 0x3160, symBinAddr: 0x1B1B0, symSize: 0x64 }
  - { offsetInCU: 0x301BF, offset: 0x12E3F5, size: 0x8, addend: 0x0, symName: __ZN8nlohmann10basic_jsonINSt3__13mapENS1_6vectorENS1_12basic_stringIcNS1_11char_traitsIcEENS1_9allocatorIcEEEEbxydS7_NS_14adl_serializerENS3_IhNS7_IhEEEEE6parserINS_6detail22iterator_input_adapterIPKcEEEENSF_6parserISD_T_EESL_NS1_8functionIFbiNSF_13parse_event_tERSD_EEEbb, symObjAddr: 0x144C, symBinAddr: 0x1949C, symSize: 0xF0 }
  - { offsetInCU: 0x30414, offset: 0x12E64A, size: 0x8, addend: 0x0, symName: __ZN8nlohmann6detail6parserINS_10basic_jsonINSt3__13mapENS3_6vectorENS3_12basic_stringIcNS3_11char_traitsIcEENS3_9allocatorIcEEEEbxydS9_NS_14adl_serializerENS5_IhNS9_IhEEEEEENS0_22iterator_input_adapterIPKcEEE5parseEbRSF_, symObjAddr: 0x153C, symBinAddr: 0x1958C, symSize: 0x568 }
  - { offsetInCU: 0x32288, offset: 0x1304BE, size: 0x8, addend: 0x0, symName: __ZN8nlohmann6detail5lexerINS_10basic_jsonINSt3__13mapENS3_6vectorENS3_12basic_stringIcNS3_11char_traitsIcEENS3_9allocatorIcEEEEbxydS9_NS_14adl_serializerENS5_IhNS9_IhEEEEEENS0_22iterator_input_adapterIPKcEEED2Ev, symObjAddr: 0x3120, symBinAddr: 0x1B170, symSize: 0x40 }
  - { offsetInCU: 0x32519, offset: 0x13074F, size: 0x8, addend: 0x0, symName: __ZN8nlohmann6detail6parserINS_10basic_jsonINSt3__13mapENS3_6vectorENS3_12basic_stringIcNS3_11char_traitsIcEENS3_9allocatorIcEEEEbxydS9_NS_14adl_serializerENS5_IhNS9_IhEEEEEENS0_22iterator_input_adapterIPKcEEED1Ev, symObjAddr: 0x1AA4, symBinAddr: 0x19AF4, symSize: 0x54 }
  - { offsetInCU: 0x326BF, offset: 0x1308F5, size: 0x8, addend: 0x0, symName: __ZNSt3__110__function12__value_funcIFbiN8nlohmann6detail13parse_event_tERNS2_10basic_jsonINS_3mapENS_6vectorENS_12basic_stringIcNS_11char_traitsIcEENS_9allocatorIcEEEEbxydSB_NS2_14adl_serializerENS7_IhNSB_IhEEEEEEEEC2B8ue170006EOSK_, symObjAddr: 0x1EE4, symBinAddr: 0x19F34, symSize: 0x64 }
  - { offsetInCU: 0x3270C, offset: 0x130942, size: 0x8, addend: 0x0, symName: __ZN8nlohmann6detail6parserINS_10basic_jsonINSt3__13mapENS3_6vectorENS3_12basic_stringIcNS3_11char_traitsIcEENS3_9allocatorIcEEEEbxydS9_NS_14adl_serializerENS5_IhNS9_IhEEEEEENS0_22iterator_input_adapterIPKcEEEC2EOSJ_NS3_8functionIFbiNS0_13parse_event_tERSF_EEEbb, symObjAddr: 0x1F48, symBinAddr: 0x19F98, symSize: 0xE8 }
  - { offsetInCU: 0x32CB5, offset: 0x130EEB, size: 0x8, addend: 0x0, symName: __ZN8nlohmann6detail28json_sax_dom_callback_parserINS_10basic_jsonINSt3__13mapENS3_6vectorENS3_12basic_stringIcNS3_11char_traitsIcEENS3_9allocatorIcEEEEbxydS9_NS_14adl_serializerENS5_IhNS9_IhEEEEEEEC2ERSF_NS3_8functionIFbiNS0_13parse_event_tESH_EEEb, symObjAddr: 0x4D5C, symBinAddr: 0x1CDAC, symSize: 0x11C }
  - { offsetInCU: 0x33230, offset: 0x131466, size: 0x8, addend: 0x0, symName: __ZN8nlohmann6detail6parserINS_10basic_jsonINSt3__13mapENS3_6vectorENS3_12basic_stringIcNS3_11char_traitsIcEENS3_9allocatorIcEEEEbxydS9_NS_14adl_serializerENS5_IhNS9_IhEEEEEENS0_22iterator_input_adapterIPKcEEE18sax_parse_internalINS0_19json_sax_dom_parserISF_EEEEbPT_, symObjAddr: 0x4350, symBinAddr: 0x1C3A0, symSize: 0x9B8 }
  - { offsetInCU: 0x34959, offset: 0x132B8F, size: 0x8, addend: 0x0, symName: __ZN8nlohmann6detail5lexerINS_10basic_jsonINSt3__13mapENS3_6vectorENS3_12basic_stringIcNS3_11char_traitsIcEENS3_9allocatorIcEEEEbxydS9_NS_14adl_serializerENS5_IhNS9_IhEEEEEENS0_22iterator_input_adapterIPKcEEE4scanEv, symObjAddr: 0x2088, symBinAddr: 0x1A0D8, symSize: 0x230 }
  - { offsetInCU: 0x34A93, offset: 0x132CC9, size: 0x8, addend: 0x0, symName: __ZNK8nlohmann6detail5lexerINS_10basic_jsonINSt3__13mapENS3_6vectorENS3_12basic_stringIcNS3_11char_traitsIcEENS3_9allocatorIcEEEEbxydS9_NS_14adl_serializerENS5_IhNS9_IhEEEEEENS0_22iterator_input_adapterIPKcEEE16get_token_stringEv, symObjAddr: 0x3BB0, symBinAddr: 0x1BC00, symSize: 0xE0 }
  - { offsetInCU: 0x34CF5, offset: 0x132F2B, size: 0x8, addend: 0x0, symName: __ZN8nlohmann6detail6parserINS_10basic_jsonINSt3__13mapENS3_6vectorENS3_12basic_stringIcNS3_11char_traitsIcEENS3_9allocatorIcEEEEbxydS9_NS_14adl_serializerENS5_IhNS9_IhEEEEEENS0_22iterator_input_adapterIPKcEEE17exception_messageENS0_10lexer_baseISF_E10token_typeERKSB_, symObjAddr: 0x3F14, symBinAddr: 0x1BF64, symSize: 0x408 }
  - { offsetInCU: 0x36721, offset: 0x134957, size: 0x8, addend: 0x0, symName: __ZN8nlohmann6detail11parse_error6createEiRKNS0_10position_tERKNSt3__112basic_stringIcNS5_11char_traitsIcEENS5_9allocatorIcEEEE, symObjAddr: 0x3C90, symBinAddr: 0x1BCE0, symSize: 0x284 }
  - { offsetInCU: 0x37B57, offset: 0x135D8D, size: 0x8, addend: 0x0, symName: __ZN8nlohmann6detail19json_sax_dom_parserINS_10basic_jsonINSt3__13mapENS3_6vectorENS3_12basic_stringIcNS3_11char_traitsIcEENS3_9allocatorIcEEEEbxydS9_NS_14adl_serializerENS5_IhNS9_IhEEEEEEE11parse_errorINS0_11parse_errorEEEbmRKSB_RKT_, symObjAddr: 0x4D08, symBinAddr: 0x1CD58, symSize: 0x54 }
  - { offsetInCU: 0x37BC3, offset: 0x135DF9, size: 0x8, addend: 0x0, symName: __ZN8nlohmann6detail6parserINS_10basic_jsonINSt3__13mapENS3_6vectorENS3_12basic_stringIcNS3_11char_traitsIcEENS3_9allocatorIcEEEEbxydS9_NS_14adl_serializerENS5_IhNS9_IhEEEEEENS0_22iterator_input_adapterIPKcEEE18sax_parse_internalINS0_28json_sax_dom_callback_parserISF_EEEEbPT_, symObjAddr: 0x31C4, symBinAddr: 0x1B214, symSize: 0x998 }
  - { offsetInCU: 0x39155, offset: 0x13738B, size: 0x8, addend: 0x0, symName: __ZN8nlohmann6detail28json_sax_dom_callback_parserINS_10basic_jsonINSt3__13mapENS3_6vectorENS3_12basic_stringIcNS3_11char_traitsIcEENS3_9allocatorIcEEEEbxydS9_NS_14adl_serializerENS5_IhNS9_IhEEEEEEE11parse_errorINS0_11parse_errorEEEbmRKSB_RKT_, symObjAddr: 0x3B5C, symBinAddr: 0x1BBAC, symSize: 0x54 }
  - { offsetInCU: 0x391C1, offset: 0x1373F7, size: 0x8, addend: 0x0, symName: __ZN8nlohmann6detail28json_sax_dom_callback_parserINS_10basic_jsonINSt3__13mapENS3_6vectorENS3_12basic_stringIcNS3_11char_traitsIcEENS3_9allocatorIcEEEEbxydS9_NS_14adl_serializerENS5_IhNS9_IhEEEEEEED2Ev, symObjAddr: 0x97DC, symBinAddr: 0x217E0, symSize: 0x8C }
  - { offsetInCU: 0x39C62, offset: 0x137E98, size: 0x8, addend: 0x0, symName: __ZN8nlohmann10basic_jsonINSt3__13mapENS1_6vectorENS1_12basic_stringIcNS1_11char_traitsIcEENS1_9allocatorIcEEEEbxydS7_NS_14adl_serializerENS3_IhNS7_IhEEEEE10json_valueC2ENS_6detail7value_tE, symObjAddr: 0x1BA8, symBinAddr: 0x19BF8, symSize: 0xAC }
  - { offsetInCU: 0x3A06A, offset: 0x1382A0, size: 0x8, addend: 0x0, symName: __ZN8nlohmann10basic_jsonINSt3__13mapENS1_6vectorENS1_12basic_stringIcNS1_11char_traitsIcEENS1_9allocatorIcEEEEbxydS7_NS_14adl_serializerENS3_IhNS7_IhEEEEE6createIS9_JRA1_KcEEEPT_DpOT0_, symObjAddr: 0x1C54, symBinAddr: 0x19CA4, symSize: 0x48 }
  - { offsetInCU: 0x3A521, offset: 0x138757, size: 0x8, addend: 0x0, symName: __ZN8nlohmann6detail9exception4nameERKNSt3__112basic_stringIcNS2_11char_traitsIcEENS2_9allocatorIcEEEEi, symObjAddr: 0x1C9C, symBinAddr: 0x19CEC, symSize: 0x180 }
  - { offsetInCU: 0x3B0E3, offset: 0x139319, size: 0x8, addend: 0x0, symName: __ZN8nlohmann6detail9exceptionC2EiPKc, symObjAddr: 0x1E1C, symBinAddr: 0x19E6C, symSize: 0x54 }
  - { offsetInCU: 0x3B12D, offset: 0x139363, size: 0x8, addend: 0x0, symName: __ZNK8nlohmann6detail9exception4whatEv, symObjAddr: 0x1E70, symBinAddr: 0x19EC0, symSize: 0x8 }
  - { offsetInCU: 0x3B152, offset: 0x139388, size: 0x8, addend: 0x0, symName: __ZN8nlohmann6detail9exceptionD1Ev, symObjAddr: 0x1E78, symBinAddr: 0x19EC8, symSize: 0x34 }
  - { offsetInCU: 0x3B1AF, offset: 0x1393E5, size: 0x8, addend: 0x0, symName: __ZN8nlohmann6detail9exceptionD0Ev, symObjAddr: 0x1EAC, symBinAddr: 0x19EFC, symSize: 0x38 }
  - { offsetInCU: 0x3B278, offset: 0x1394AE, size: 0x8, addend: 0x0, symName: __ZN8nlohmann6detail5lexerINS_10basic_jsonINSt3__13mapENS3_6vectorENS3_12basic_stringIcNS3_11char_traitsIcEENS3_9allocatorIcEEEEbxydS9_NS_14adl_serializerENS5_IhNS9_IhEEEEEENS0_22iterator_input_adapterIPKcEEE17get_decimal_pointEv, symObjAddr: 0x2030, symBinAddr: 0x1A080, symSize: 0x58 }
  - { offsetInCU: 0x3B2CA, offset: 0x139500, size: 0x8, addend: 0x0, symName: __ZN8nlohmann6detail5lexerINS_10basic_jsonINSt3__13mapENS3_6vectorENS3_12basic_stringIcNS3_11char_traitsIcEENS3_9allocatorIcEEEEbxydS9_NS_14adl_serializerENS5_IhNS9_IhEEEEEENS0_22iterator_input_adapterIPKcEEE8skip_bomEv, symObjAddr: 0x22B8, symBinAddr: 0x1A308, symSize: 0x60 }
  - { offsetInCU: 0x3B340, offset: 0x139576, size: 0x8, addend: 0x0, symName: __ZN8nlohmann6detail5lexerINS_10basic_jsonINSt3__13mapENS3_6vectorENS3_12basic_stringIcNS3_11char_traitsIcEENS3_9allocatorIcEEEEbxydS9_NS_14adl_serializerENS5_IhNS9_IhEEEEEENS0_22iterator_input_adapterIPKcEEE3getEv, symObjAddr: 0x2CE0, symBinAddr: 0x1AD30, symSize: 0x160 }
  - { offsetInCU: 0x3B827, offset: 0x139A5D, size: 0x8, addend: 0x0, symName: __ZN8nlohmann6detail5lexerINS_10basic_jsonINSt3__13mapENS3_6vectorENS3_12basic_stringIcNS3_11char_traitsIcEENS3_9allocatorIcEEEEbxydS9_NS_14adl_serializerENS5_IhNS9_IhEEEEEENS0_22iterator_input_adapterIPKcEEE5ungetEv, symObjAddr: 0x2E40, symBinAddr: 0x1AE90, symSize: 0x68 }
  - { offsetInCU: 0x3B838, offset: 0x139A6E, size: 0x8, addend: 0x0, symName: __ZN8nlohmann6detail5lexerINS_10basic_jsonINSt3__13mapENS3_6vectorENS3_12basic_stringIcNS3_11char_traitsIcEENS3_9allocatorIcEEEEbxydS9_NS_14adl_serializerENS5_IhNS9_IhEEEEEENS0_22iterator_input_adapterIPKcEEE12scan_commentEv, symObjAddr: 0x2318, symBinAddr: 0x1A368, symSize: 0xB0 }
  - { offsetInCU: 0x3B8C2, offset: 0x139AF8, size: 0x8, addend: 0x0, symName: __ZN8nlohmann6detail5lexerINS_10basic_jsonINSt3__13mapENS3_6vectorENS3_12basic_stringIcNS3_11char_traitsIcEENS3_9allocatorIcEEEEbxydS9_NS_14adl_serializerENS5_IhNS9_IhEEEEEENS0_22iterator_input_adapterIPKcEEE11scan_numberEv, symObjAddr: 0x2934, symBinAddr: 0x1A984, symSize: 0x3AC }
  - { offsetInCU: 0x3BF55, offset: 0x13A18B, size: 0x8, addend: 0x0, symName: __ZN8nlohmann6detail5lexerINS_10basic_jsonINSt3__13mapENS3_6vectorENS3_12basic_stringIcNS3_11char_traitsIcEENS3_9allocatorIcEEEEbxydS9_NS_14adl_serializerENS5_IhNS9_IhEEEEEENS0_22iterator_input_adapterIPKcEEE11scan_stringEv, symObjAddr: 0x244C, symBinAddr: 0x1A49C, symSize: 0x4E8 }
  - { offsetInCU: 0x3C105, offset: 0x13A33B, size: 0x8, addend: 0x0, symName: __ZN8nlohmann6detail5lexerINS_10basic_jsonINSt3__13mapENS3_6vectorENS3_12basic_stringIcNS3_11char_traitsIcEENS3_9allocatorIcEEEEbxydS9_NS_14adl_serializerENS5_IhNS9_IhEEEEEENS0_22iterator_input_adapterIPKcEEE12scan_literalESI_mNS0_10lexer_baseISF_E10token_typeE, symObjAddr: 0x23C8, symBinAddr: 0x1A418, symSize: 0x84 }
  - { offsetInCU: 0x3C188, offset: 0x13A3BE, size: 0x8, addend: 0x0, symName: __ZN8nlohmann6detail5lexerINS_10basic_jsonINSt3__13mapENS3_6vectorENS3_12basic_stringIcNS3_11char_traitsIcEENS3_9allocatorIcEEEEbxydS9_NS_14adl_serializerENS5_IhNS9_IhEEEEEENS0_22iterator_input_adapterIPKcEEE11scan_stringEv, symObjAddr: 0x244C, symBinAddr: 0x1A49C, symSize: 0x4E8 }
  - { offsetInCU: 0x3C193, offset: 0x13A3C9, size: 0x8, addend: 0x0, symName: __ZN8nlohmann6detail5lexerINS_10basic_jsonINSt3__13mapENS3_6vectorENS3_12basic_stringIcNS3_11char_traitsIcEENS3_9allocatorIcEEEEbxydS9_NS_14adl_serializerENS5_IhNS9_IhEEEEEENS0_22iterator_input_adapterIPKcEEE5ungetEv, symObjAddr: 0x2E40, symBinAddr: 0x1AE90, symSize: 0x68 }
  - { offsetInCU: 0x3C230, offset: 0x13A466, size: 0x8, addend: 0x0, symName: __ZNKSt3__16vectorIcNS_9allocatorIcEEE20__throw_length_errorB8ue170006Ev, symObjAddr: 0x2EA8, symBinAddr: 0x1AEF8, symSize: 0x14 }
  - { offsetInCU: 0x3C23B, offset: 0x13A471, size: 0x8, addend: 0x0, symName: __ZN8nlohmann6detail5lexerINS_10basic_jsonINSt3__13mapENS3_6vectorENS3_12basic_stringIcNS3_11char_traitsIcEENS3_9allocatorIcEEEEbxydS9_NS_14adl_serializerENS5_IhNS9_IhEEEEEENS0_22iterator_input_adapterIPKcEEE12scan_literalESI_mNS0_10lexer_baseISF_E10token_typeE.cold.1, symObjAddr: 0xBA70, symBinAddr: 0x17B3F0, symSize: 0x28 }
  - { offsetInCU: 0x3C273, offset: 0x13A4A9, size: 0x8, addend: 0x0, symName: __ZN8nlohmann6detail5lexerINS_10basic_jsonINSt3__13mapENS3_6vectorENS3_12basic_stringIcNS3_11char_traitsIcEENS3_9allocatorIcEEEEbxydS9_NS_14adl_serializerENS5_IhNS9_IhEEEEEENS0_22iterator_input_adapterIPKcEEE5resetEv, symObjAddr: 0x2EBC, symBinAddr: 0x1AF0C, symSize: 0xC0 }
  - { offsetInCU: 0x3C747, offset: 0x13A97D, size: 0x8, addend: 0x0, symName: __ZN8nlohmann6detail5lexerINS_10basic_jsonINSt3__13mapENS3_6vectorENS3_12basic_stringIcNS3_11char_traitsIcEENS3_9allocatorIcEEEEbxydS9_NS_14adl_serializerENS5_IhNS9_IhEEEEEENS0_22iterator_input_adapterIPKcEEE18next_byte_in_rangeESt16initializer_listIiE, symObjAddr: 0x306C, symBinAddr: 0x1B0BC, symSize: 0xB4 }
  - { offsetInCU: 0x3C7EB, offset: 0x13AA21, size: 0x8, addend: 0x0, symName: __ZN8nlohmann6detail5lexerINS_10basic_jsonINSt3__13mapENS3_6vectorENS3_12basic_stringIcNS3_11char_traitsIcEENS3_9allocatorIcEEEEbxydS9_NS_14adl_serializerENS5_IhNS9_IhEEEEEENS0_22iterator_input_adapterIPKcEEED2Ev, symObjAddr: 0x3120, symBinAddr: 0x1B170, symSize: 0x40 }
  - { offsetInCU: 0x3C7F6, offset: 0x13AA2C, size: 0x8, addend: 0x0, symName: __ZN8nlohmann6detail5lexerINS_10basic_jsonINSt3__13mapENS3_6vectorENS3_12basic_stringIcNS3_11char_traitsIcEENS3_9allocatorIcEEEEbxydS9_NS_14adl_serializerENS5_IhNS9_IhEEEEEENS0_22iterator_input_adapterIPKcEEE13get_codepointEv, symObjAddr: 0x2F7C, symBinAddr: 0x1AFCC, symSize: 0xF0 }
  - { offsetInCU: 0x3C8BD, offset: 0x13AAF3, size: 0x8, addend: 0x0, symName: __ZN8nlohmann6detail5lexerINS_10basic_jsonINSt3__13mapENS3_6vectorENS3_12basic_stringIcNS3_11char_traitsIcEENS3_9allocatorIcEEEEbxydS9_NS_14adl_serializerENS5_IhNS9_IhEEEEEENS0_22iterator_input_adapterIPKcEEE11scan_stringEv.cold.2, symObjAddr: 0xBAC0, symBinAddr: 0x17B440, symSize: 0x28 }
  - { offsetInCU: 0x3C8D5, offset: 0x13AB0B, size: 0x8, addend: 0x0, symName: __ZN8nlohmann6detail5lexerINS_10basic_jsonINSt3__13mapENS3_6vectorENS3_12basic_stringIcNS3_11char_traitsIcEENS3_9allocatorIcEEEEbxydS9_NS_14adl_serializerENS5_IhNS9_IhEEEEEENS0_22iterator_input_adapterIPKcEEE11scan_stringEv.cold.1, symObjAddr: 0xBA98, symBinAddr: 0x17B418, symSize: 0x28 }
  - { offsetInCU: 0x3C918, offset: 0x13AB4E, size: 0x8, addend: 0x0, symName: __ZN8nlohmann6detail5lexerINS_10basic_jsonINSt3__13mapENS3_6vectorENS3_12basic_stringIcNS3_11char_traitsIcEENS3_9allocatorIcEEEEbxydS9_NS_14adl_serializerENS5_IhNS9_IhEEEEEENS0_22iterator_input_adapterIPKcEEE11scan_numberEv.cold.2, symObjAddr: 0xBB10, symBinAddr: 0x17B490, symSize: 0x28 }
  - { offsetInCU: 0x3C930, offset: 0x13AB66, size: 0x8, addend: 0x0, symName: __ZN8nlohmann6detail5lexerINS_10basic_jsonINSt3__13mapENS3_6vectorENS3_12basic_stringIcNS3_11char_traitsIcEENS3_9allocatorIcEEEEbxydS9_NS_14adl_serializerENS5_IhNS9_IhEEEEEENS0_22iterator_input_adapterIPKcEEE11scan_numberEv.cold.3, symObjAddr: 0xBB38, symBinAddr: 0x17B4B8, symSize: 0x28 }
  - { offsetInCU: 0x3C948, offset: 0x13AB7E, size: 0x8, addend: 0x0, symName: __ZN8nlohmann6detail5lexerINS_10basic_jsonINSt3__13mapENS3_6vectorENS3_12basic_stringIcNS3_11char_traitsIcEENS3_9allocatorIcEEEEbxydS9_NS_14adl_serializerENS5_IhNS9_IhEEEEEENS0_22iterator_input_adapterIPKcEEE11scan_numberEv.cold.4, symObjAddr: 0xBB60, symBinAddr: 0x17B4E0, symSize: 0x28 }
  - { offsetInCU: 0x3C960, offset: 0x13AB96, size: 0x8, addend: 0x0, symName: __ZN8nlohmann6detail5lexerINS_10basic_jsonINSt3__13mapENS3_6vectorENS3_12basic_stringIcNS3_11char_traitsIcEENS3_9allocatorIcEEEEbxydS9_NS_14adl_serializerENS5_IhNS9_IhEEEEEENS0_22iterator_input_adapterIPKcEEE11scan_numberEv.cold.1, symObjAddr: 0xBAE8, symBinAddr: 0x17B468, symSize: 0x28 }
  - { offsetInCU: 0x3CCEB, offset: 0x13AF21, size: 0x8, addend: 0x0, symName: __ZNKSt3__16vectorIcNS_9allocatorIcEEE20__throw_length_errorB8ue170006Ev, symObjAddr: 0x2EA8, symBinAddr: 0x1AEF8, symSize: 0x14 }
  - { offsetInCU: 0x3CD13, offset: 0x13AF49, size: 0x8, addend: 0x0, symName: __ZN8nlohmann6detail5lexerINS_10basic_jsonINSt3__13mapENS3_6vectorENS3_12basic_stringIcNS3_11char_traitsIcEENS3_9allocatorIcEEEEbxydS9_NS_14adl_serializerENS5_IhNS9_IhEEEEEENS0_22iterator_input_adapterIPKcEEE5resetEv, symObjAddr: 0x2EBC, symBinAddr: 0x1AF0C, symSize: 0xC0 }
  - { offsetInCU: 0x3CDA1, offset: 0x13AFD7, size: 0x8, addend: 0x0, symName: __ZN8nlohmann6detail5lexerINS_10basic_jsonINSt3__13mapENS3_6vectorENS3_12basic_stringIcNS3_11char_traitsIcEENS3_9allocatorIcEEEEbxydS9_NS_14adl_serializerENS5_IhNS9_IhEEEEEENS0_22iterator_input_adapterIPKcEEE5ungetEv.cold.1, symObjAddr: 0xBB88, symBinAddr: 0x17B508, symSize: 0x28 }
  - { offsetInCU: 0x3CDED, offset: 0x13B023, size: 0x8, addend: 0x0, symName: __ZN8nlohmann6detail5lexerINS_10basic_jsonINSt3__13mapENS3_6vectorENS3_12basic_stringIcNS3_11char_traitsIcEENS3_9allocatorIcEEEEbxydS9_NS_14adl_serializerENS5_IhNS9_IhEEEEEENS0_22iterator_input_adapterIPKcEEE13get_codepointEv.cold.1, symObjAddr: 0xBBB0, symBinAddr: 0x17B530, symSize: 0x28 }
  - { offsetInCU: 0x3CE05, offset: 0x13B03B, size: 0x8, addend: 0x0, symName: __ZN8nlohmann6detail5lexerINS_10basic_jsonINSt3__13mapENS3_6vectorENS3_12basic_stringIcNS3_11char_traitsIcEENS3_9allocatorIcEEEEbxydS9_NS_14adl_serializerENS5_IhNS9_IhEEEEEENS0_22iterator_input_adapterIPKcEEE13get_codepointEv.cold.2, symObjAddr: 0xBBD8, symBinAddr: 0x17B558, symSize: 0x28 }
  - { offsetInCU: 0x3CE1D, offset: 0x13B053, size: 0x8, addend: 0x0, symName: __ZN8nlohmann6detail5lexerINS_10basic_jsonINSt3__13mapENS3_6vectorENS3_12basic_stringIcNS3_11char_traitsIcEENS3_9allocatorIcEEEEbxydS9_NS_14adl_serializerENS5_IhNS9_IhEEEEEENS0_22iterator_input_adapterIPKcEEE18next_byte_in_rangeESt16initializer_listIiE.cold.1, symObjAddr: 0xBC00, symBinAddr: 0x17B580, symSize: 0x28 }
  - { offsetInCU: 0x3D143, offset: 0x13B379, size: 0x8, addend: 0x0, symName: __ZN8nlohmann6detail28json_sax_dom_callback_parserINS_10basic_jsonINSt3__13mapENS3_6vectorENS3_12basic_stringIcNS3_11char_traitsIcEENS3_9allocatorIcEEEEbxydS9_NS_14adl_serializerENS5_IhNS9_IhEEEEEEE12handle_valueIRbEENS3_4pairIbPSF_EEOT_b, symObjAddr: 0x86A4, symBinAddr: 0x206A8, symSize: 0x308 }
  - { offsetInCU: 0x3D9B8, offset: 0x13BBEE, size: 0x8, addend: 0x0, symName: __ZN8nlohmann6detail28json_sax_dom_callback_parserINS_10basic_jsonINSt3__13mapENS3_6vectorENS3_12basic_stringIcNS3_11char_traitsIcEENS3_9allocatorIcEEEEbxydS9_NS_14adl_serializerENS5_IhNS9_IhEEEEEEE11start_arrayEm, symObjAddr: 0x57AC, symBinAddr: 0x1D7FC, symSize: 0x24C }
  - { offsetInCU: 0x3E154, offset: 0x13C38A, size: 0x8, addend: 0x0, symName: __ZN8nlohmann6detail28json_sax_dom_callback_parserINS_10basic_jsonINSt3__13mapENS3_6vectorENS3_12basic_stringIcNS3_11char_traitsIcEENS3_9allocatorIcEEEEbxydS9_NS_14adl_serializerENS5_IhNS9_IhEEEEEEE9end_arrayEv, symObjAddr: 0x59F8, symBinAddr: 0x1DA48, symSize: 0x124 }
  - { offsetInCU: 0x3E49B, offset: 0x13C6D1, size: 0x8, addend: 0x0, symName: __ZN8nlohmann6detail28json_sax_dom_callback_parserINS_10basic_jsonINSt3__13mapENS3_6vectorENS3_12basic_stringIcNS3_11char_traitsIcEENS3_9allocatorIcEEEEbxydS9_NS_14adl_serializerENS5_IhNS9_IhEEEEEEE11parse_errorINS0_12out_of_rangeEEEbmRKSB_RKT_, symObjAddr: 0x5B1C, symBinAddr: 0x1DB6C, symSize: 0x54 }
  - { offsetInCU: 0x3E4AB, offset: 0x13C6E1, size: 0x8, addend: 0x0, symName: __ZN8nlohmann6detail28json_sax_dom_callback_parserINS_10basic_jsonINSt3__13mapENS3_6vectorENS3_12basic_stringIcNS3_11char_traitsIcEENS3_9allocatorIcEEEEbxydS9_NS_14adl_serializerENS5_IhNS9_IhEEEEEEE12handle_valueIRxEENS3_4pairIbPSF_EEOT_b, symObjAddr: 0x8CAC, symBinAddr: 0x20CB0, symSize: 0x308 }
  - { offsetInCU: 0x3ED33, offset: 0x13CF69, size: 0x8, addend: 0x0, symName: __ZN8nlohmann6detail28json_sax_dom_callback_parserINS_10basic_jsonINSt3__13mapENS3_6vectorENS3_12basic_stringIcNS3_11char_traitsIcEENS3_9allocatorIcEEEEbxydS9_NS_14adl_serializerENS5_IhNS9_IhEEEEEEE12handle_valueIDnEENS3_4pairIbPSF_EEOT_b, symObjAddr: 0x89AC, symBinAddr: 0x209B0, symSize: 0x300 }
  - { offsetInCU: 0x3F57A, offset: 0x13D7B0, size: 0x8, addend: 0x0, symName: __ZN8nlohmann6detail28json_sax_dom_callback_parserINS_10basic_jsonINSt3__13mapENS3_6vectorENS3_12basic_stringIcNS3_11char_traitsIcEENS3_9allocatorIcEEEEbxydS9_NS_14adl_serializerENS5_IhNS9_IhEEEEEEE12start_objectEm, symObjAddr: 0x526C, symBinAddr: 0x1D2BC, symSize: 0x24C }
  - { offsetInCU: 0x3FD16, offset: 0x13DF4C, size: 0x8, addend: 0x0, symName: __ZN8nlohmann6detail28json_sax_dom_callback_parserINS_10basic_jsonINSt3__13mapENS3_6vectorENS3_12basic_stringIcNS3_11char_traitsIcEENS3_9allocatorIcEEEEbxydS9_NS_14adl_serializerENS5_IhNS9_IhEEEEEEE10end_objectEv, symObjAddr: 0x54B8, symBinAddr: 0x1D508, symSize: 0x1B4 }
  - { offsetInCU: 0x40285, offset: 0x13E4BB, size: 0x8, addend: 0x0, symName: __ZN8nlohmann6detail28json_sax_dom_callback_parserINS_10basic_jsonINSt3__13mapENS3_6vectorENS3_12basic_stringIcNS3_11char_traitsIcEENS3_9allocatorIcEEEEbxydS9_NS_14adl_serializerENS5_IhNS9_IhEEEEEEE3keyERSB_, symObjAddr: 0x566C, symBinAddr: 0x1D6BC, symSize: 0x140 }
  - { offsetInCU: 0x40290, offset: 0x13E4C6, size: 0x8, addend: 0x0, symName: __ZN8nlohmann6detail28json_sax_dom_callback_parserINS_10basic_jsonINSt3__13mapENS3_6vectorENS3_12basic_stringIcNS3_11char_traitsIcEENS3_9allocatorIcEEEEbxydS9_NS_14adl_serializerENS5_IhNS9_IhEEEEEEE12handle_valueIRSB_EENS3_4pairIbPSF_EEOT_b, symObjAddr: 0x8FB4, symBinAddr: 0x20FB8, symSize: 0x2EC }
  - { offsetInCU: 0x40A42, offset: 0x13EC78, size: 0x8, addend: 0x0, symName: __ZN8nlohmann6detail28json_sax_dom_callback_parserINS_10basic_jsonINSt3__13mapENS3_6vectorENS3_12basic_stringIcNS3_11char_traitsIcEENS3_9allocatorIcEEEEbxydS9_NS_14adl_serializerENS5_IhNS9_IhEEEEEEE12handle_valueIRyEENS3_4pairIbPSF_EEOT_b, symObjAddr: 0x92A0, symBinAddr: 0x212A4, symSize: 0x308 }
  - { offsetInCU: 0x412C5, offset: 0x13F4FB, size: 0x8, addend: 0x0, symName: __ZN8nlohmann6detail28json_sax_dom_callback_parserINS_10basic_jsonINSt3__13mapENS3_6vectorENS3_12basic_stringIcNS3_11char_traitsIcEENS3_9allocatorIcEEEEbxydS9_NS_14adl_serializerENS5_IhNS9_IhEEEEEEE12handle_valueIRdEENS3_4pairIbPSF_EEOT_b, symObjAddr: 0x839C, symBinAddr: 0x203A0, symSize: 0x308 }
  - { offsetInCU: 0x41B4A, offset: 0x13FD80, size: 0x8, addend: 0x0, symName: __ZN8nlohmann6detail28json_sax_dom_callback_parserINS_10basic_jsonINSt3__13mapENS3_6vectorENS3_12basic_stringIcNS3_11char_traitsIcEENS3_9allocatorIcEEEEbxydS9_NS_14adl_serializerENS5_IhNS9_IhEEEEEEE3keyERSB_, symObjAddr: 0x566C, symBinAddr: 0x1D6BC, symSize: 0x140 }
  - { offsetInCU: 0x41E8D, offset: 0x1400C3, size: 0x8, addend: 0x0, symName: __ZNSt3__16vectorIbNS_9allocatorIbEEE9push_backERKb, symObjAddr: 0x4E78, symBinAddr: 0x1CEC8, symSize: 0xA4 }
  - { offsetInCU: 0x41F6A, offset: 0x1401A0, size: 0x8, addend: 0x0, symName: __ZNSt3__16vectorIbNS_9allocatorIbEEE7reserveEm, symObjAddr: 0x4F1C, symBinAddr: 0x1CF6C, symSize: 0xC0 }
  - { offsetInCU: 0x41F85, offset: 0x1401BB, size: 0x8, addend: 0x0, symName: __ZN8nlohmann6detail28json_sax_dom_callback_parserINS_10basic_jsonINSt3__13mapENS3_6vectorENS3_12basic_stringIcNS3_11char_traitsIcEENS3_9allocatorIcEEEEbxydS9_NS_14adl_serializerENS5_IhNS9_IhEEEEEEE11parse_errorINS0_12out_of_rangeEEEbmRKSB_RKT_, symObjAddr: 0x5B1C, symBinAddr: 0x1DB6C, symSize: 0x54 }
  - { offsetInCU: 0x41FF1, offset: 0x140227, size: 0x8, addend: 0x0, symName: __ZN8nlohmann6detail11parse_errorC1ERKS1_, symObjAddr: 0x95A8, symBinAddr: 0x215AC, symSize: 0x60 }
  - { offsetInCU: 0x4214E, offset: 0x140384, size: 0x8, addend: 0x0, symName: __ZN8nlohmann6detail11parse_error15position_stringERKNS0_10position_tE, symObjAddr: 0x9640, symBinAddr: 0x21644, symSize: 0x178 }
  - { offsetInCU: 0x42D27, offset: 0x140F5D, size: 0x8, addend: 0x0, symName: __ZN8nlohmann6detail10lexer_baseINS_10basic_jsonINSt3__13mapENS3_6vectorENS3_12basic_stringIcNS3_11char_traitsIcEENS3_9allocatorIcEEEEbxydS9_NS_14adl_serializerENS5_IhNS9_IhEEEEEEE15token_type_nameENSG_10token_typeE, symObjAddr: 0x97B8, symBinAddr: 0x217BC, symSize: 0x24 }
  - { offsetInCU: 0x42D4B, offset: 0x140F81, size: 0x8, addend: 0x0, symName: __ZN8nlohmann6detail11parse_errorD1Ev, symObjAddr: 0x431C, symBinAddr: 0x1C36C, symSize: 0x34 }
  - { offsetInCU: 0x42F2A, offset: 0x141160, size: 0x8, addend: 0x0, symName: __ZN8nlohmann6detail19json_sax_dom_parserINS_10basic_jsonINSt3__13mapENS3_6vectorENS3_12basic_stringIcNS3_11char_traitsIcEENS3_9allocatorIcEEEEbxydS9_NS_14adl_serializerENS5_IhNS9_IhEEEEEEE12handle_valueIRbEEPSF_OT_, symObjAddr: 0xA214, symBinAddr: 0x22218, symSize: 0x1AC }
  - { offsetInCU: 0x435D8, offset: 0x14180E, size: 0x8, addend: 0x0, symName: __ZNSt3__16vectorIN8nlohmann10basic_jsonINS_3mapES0_NS_12basic_stringIcNS_11char_traitsIcEENS_9allocatorIcEEEEbxydS7_NS1_14adl_serializerENS0_IhNS7_IhEEEEEENS7_ISD_EEE24__emplace_back_slow_pathIJRbEEEvDpOT_, symObjAddr: 0xA3C0, symBinAddr: 0x223C4, symSize: 0xE8 }
  - { offsetInCU: 0x435EC, offset: 0x141822, size: 0x8, addend: 0x0, symName: __ZN8nlohmann6detail19json_sax_dom_parserINS_10basic_jsonINSt3__13mapENS3_6vectorENS3_12basic_stringIcNS3_11char_traitsIcEENS3_9allocatorIcEEEEbxydS9_NS_14adl_serializerENS5_IhNS9_IhEEEEEEE11start_arrayEm, symObjAddr: 0x9A7C, symBinAddr: 0x21A80, symSize: 0x214 }
  - { offsetInCU: 0x43D2E, offset: 0x141F64, size: 0x8, addend: 0x0, symName: __ZN8nlohmann6detail19json_sax_dom_parserINS_10basic_jsonINSt3__13mapENS3_6vectorENS3_12basic_stringIcNS3_11char_traitsIcEENS3_9allocatorIcEEEEbxydS9_NS_14adl_serializerENS5_IhNS9_IhEEEEEEE12handle_valueIRxEEPSF_OT_, symObjAddr: 0xA708, symBinAddr: 0x2270C, symSize: 0x1AC }
  - { offsetInCU: 0x44406, offset: 0x14263C, size: 0x8, addend: 0x0, symName: __ZNSt3__16vectorIN8nlohmann10basic_jsonINS_3mapES0_NS_12basic_stringIcNS_11char_traitsIcEENS_9allocatorIcEEEEbxydS7_NS1_14adl_serializerENS0_IhNS7_IhEEEEEENS7_ISD_EEE24__emplace_back_slow_pathIJRxEEEvDpOT_, symObjAddr: 0xA8B4, symBinAddr: 0x228B8, symSize: 0xE8 }
  - { offsetInCU: 0x4441A, offset: 0x142650, size: 0x8, addend: 0x0, symName: __ZN8nlohmann6detail19json_sax_dom_parserINS_10basic_jsonINSt3__13mapENS3_6vectorENS3_12basic_stringIcNS3_11char_traitsIcEENS3_9allocatorIcEEEEbxydS9_NS_14adl_serializerENS5_IhNS9_IhEEEEEEE12handle_valueIDnEEPSF_OT_, symObjAddr: 0xA4A8, symBinAddr: 0x224AC, symSize: 0x190 }
  - { offsetInCU: 0x44A5D, offset: 0x142C93, size: 0x8, addend: 0x0, symName: __ZNSt3__16vectorIN8nlohmann10basic_jsonINS_3mapES0_NS_12basic_stringIcNS_11char_traitsIcEENS_9allocatorIcEEEEbxydS7_NS1_14adl_serializerENS0_IhNS7_IhEEEEEENS7_ISD_EEE24__emplace_back_slow_pathIJDnEEEvDpOT_, symObjAddr: 0xA638, symBinAddr: 0x2263C, symSize: 0xD0 }
  - { offsetInCU: 0x44A71, offset: 0x142CA7, size: 0x8, addend: 0x0, symName: __ZN8nlohmann6detail19json_sax_dom_parserINS_10basic_jsonINSt3__13mapENS3_6vectorENS3_12basic_stringIcNS3_11char_traitsIcEENS3_9allocatorIcEEEEbxydS9_NS_14adl_serializerENS5_IhNS9_IhEEEEEEE12start_objectEm, symObjAddr: 0x9868, symBinAddr: 0x2186C, symSize: 0x214 }
  - { offsetInCU: 0x451B3, offset: 0x1433E9, size: 0x8, addend: 0x0, symName: __ZN8nlohmann6detail19json_sax_dom_parserINS_10basic_jsonINSt3__13mapENS3_6vectorENS3_12basic_stringIcNS3_11char_traitsIcEENS3_9allocatorIcEEEEbxydS9_NS_14adl_serializerENS5_IhNS9_IhEEEEEEE12handle_valueIRSB_EEPSF_OT_, symObjAddr: 0xA99C, symBinAddr: 0x229A0, symSize: 0x13C }
  - { offsetInCU: 0x45506, offset: 0x14373C, size: 0x8, addend: 0x0, symName: __ZNSt3__16vectorIN8nlohmann10basic_jsonINS_3mapES0_NS_12basic_stringIcNS_11char_traitsIcEENS_9allocatorIcEEEEbxydS7_NS1_14adl_serializerENS0_IhNS7_IhEEEEEENS7_ISD_EEE12emplace_backIJRS9_EEEvDpOT_, symObjAddr: 0xAAD8, symBinAddr: 0x22ADC, symSize: 0x104 }
  - { offsetInCU: 0x4551A, offset: 0x143750, size: 0x8, addend: 0x0, symName: __ZN8nlohmann6detail19json_sax_dom_parserINS_10basic_jsonINSt3__13mapENS3_6vectorENS3_12basic_stringIcNS3_11char_traitsIcEENS3_9allocatorIcEEEEbxydS9_NS_14adl_serializerENS5_IhNS9_IhEEEEEEE12handle_valueIRyEEPSF_OT_, symObjAddr: 0xABDC, symBinAddr: 0x22BE0, symSize: 0x1AC }
  - { offsetInCU: 0x45BF2, offset: 0x143E28, size: 0x8, addend: 0x0, symName: __ZNSt3__16vectorIN8nlohmann10basic_jsonINS_3mapES0_NS_12basic_stringIcNS_11char_traitsIcEENS_9allocatorIcEEEEbxydS7_NS1_14adl_serializerENS0_IhNS7_IhEEEEEENS7_ISD_EEE24__emplace_back_slow_pathIJRyEEEvDpOT_, symObjAddr: 0xAD88, symBinAddr: 0x22D8C, symSize: 0xE8 }
  - { offsetInCU: 0x45C06, offset: 0x143E3C, size: 0x8, addend: 0x0, symName: __ZN8nlohmann6detail19json_sax_dom_parserINS_10basic_jsonINSt3__13mapENS3_6vectorENS3_12basic_stringIcNS3_11char_traitsIcEENS3_9allocatorIcEEEEbxydS9_NS_14adl_serializerENS5_IhNS9_IhEEEEEEE12handle_valueIRdEEPSF_OT_, symObjAddr: 0x9F80, symBinAddr: 0x21F84, symSize: 0x1AC }
  - { offsetInCU: 0x462E4, offset: 0x14451A, size: 0x8, addend: 0x0, symName: __ZNSt3__16vectorIN8nlohmann10basic_jsonINS_3mapES0_NS_12basic_stringIcNS_11char_traitsIcEENS_9allocatorIcEEEEbxydS7_NS1_14adl_serializerENS0_IhNS7_IhEEEEEENS7_ISD_EEE24__emplace_back_slow_pathIJRdEEEvDpOT_, symObjAddr: 0xA12C, symBinAddr: 0x22130, symSize: 0xE8 }
  - { offsetInCU: 0x46307, offset: 0x14453D, size: 0x8, addend: 0x0, symName: __ZNSt3__16__treeINS_12__value_typeINS_12basic_stringIcNS_11char_traitsIcEENS_9allocatorIcEEEEN8nlohmann10basic_jsonINS_3mapENS_6vectorES7_bxydS5_NS8_14adl_serializerENSB_IhNS5_IhEEEEEEEENS_19__map_value_compareIS7_SG_NS_4lessIvEELb1EEENS5_ISG_EEE25__emplace_unique_key_argsIS7_JRKNS_21piecewise_construct_tENS_5tupleIJRKS7_EEENSR_IJEEEEEENS_4pairINS_15__tree_iteratorISG_PNS_11__tree_nodeISG_PvEElEEbEERKT_DpOT0_, symObjAddr: 0x8194, symBinAddr: 0x20198, symSize: 0x94 }
  - { offsetInCU: 0x46496, offset: 0x1446CC, size: 0x8, addend: 0x0, symName: __ZN8nlohmann6detail19json_sax_dom_parserINS_10basic_jsonINSt3__13mapENS3_6vectorENS3_12basic_stringIcNS3_11char_traitsIcEENS3_9allocatorIcEEEEbxydS9_NS_14adl_serializerENS5_IhNS9_IhEEEEEEE11parse_errorINS0_12out_of_rangeEEEbmRKSB_RKT_, symObjAddr: 0x9C90, symBinAddr: 0x21C94, symSize: 0x54 }
  - { offsetInCU: 0x46574, offset: 0x1447AA, size: 0x8, addend: 0x0, symName: __ZNSt3__16vectorIbNS_9allocatorIbEEE7reserveEm, symObjAddr: 0x4F1C, symBinAddr: 0x1CF6C, symSize: 0xC0 }
  - { offsetInCU: 0x46A12, offset: 0x144C48, size: 0x8, addend: 0x0, symName: __ZNKSt3__16vectorIbNS_9allocatorIbEEE20__throw_length_errorB8ue170006Ev, symObjAddr: 0x4FDC, symBinAddr: 0x1D02C, symSize: 0x14 }
  - { offsetInCU: 0x46A3A, offset: 0x144C70, size: 0x8, addend: 0x0, symName: __ZNSt3__16vectorIbNS_9allocatorIbEEE11__vallocateB8ue170006Em, symObjAddr: 0x4FF0, symBinAddr: 0x1D040, symSize: 0x44 }
  - { offsetInCU: 0x46B7E, offset: 0x144DB4, size: 0x8, addend: 0x0, symName: __ZNSt3__16vectorIbNS_9allocatorIbEEE11__vallocateB8ue170006Em, symObjAddr: 0x4FF0, symBinAddr: 0x1D040, symSize: 0x44 }
  - { offsetInCU: 0x46C14, offset: 0x144E4A, size: 0x8, addend: 0x0, symName: __ZNSt3__16vectorIbNS_9allocatorIbEEE18__construct_at_endINS_14__bit_iteratorIS3_Lb0ELm0EEES6_EEvT_T0_m, symObjAddr: 0x5034, symBinAddr: 0x1D084, symSize: 0xA4 }
  - { offsetInCU: 0x46C25, offset: 0x144E5B, size: 0x8, addend: 0x0, symName: __ZNSt3__16vectorIbNS_9allocatorIbEEE18__construct_at_endINS_14__bit_iteratorIS3_Lb0ELm0EEES6_EEvT_T0_m, symObjAddr: 0x5034, symBinAddr: 0x1D084, symSize: 0xA4 }
  - { offsetInCU: 0x46F9C, offset: 0x1451D2, size: 0x8, addend: 0x0, symName: __ZNKSt3__111__copy_loopINS_17_ClassicAlgPolicyEEclB8ue170006INS_14__bit_iteratorINS_6vectorIbNS_9allocatorIbEEEELb0ELm0EEES9_S9_EENS_4pairIT_T1_EESB_T0_SC_, symObjAddr: 0x5198, symBinAddr: 0x1D1E8, symSize: 0xD4 }
  - { offsetInCU: 0x47528, offset: 0x14575E, size: 0x8, addend: 0x0, symName: __ZNKSt3__18functionIFbiN8nlohmann6detail13parse_event_tERNS1_10basic_jsonINS_3mapENS_6vectorENS_12basic_stringIcNS_11char_traitsIcEENS_9allocatorIcEEEEbxydSA_NS1_14adl_serializerENS6_IhNSA_IhEEEEEEEEclEiS3_SH_, symObjAddr: 0x5CD8, symBinAddr: 0x1DD28, symSize: 0x40 }
  - { offsetInCU: 0x475C6, offset: 0x1457FC, size: 0x8, addend: 0x0, symName: __ZN8nlohmann6detail28json_sax_dom_callback_parserINS_10basic_jsonINSt3__13mapENS3_6vectorENS3_12basic_stringIcNS3_11char_traitsIcEENS3_9allocatorIcEEEEbxydS9_NS_14adl_serializerENS5_IhNS9_IhEEEEEEE12handle_valueINS0_7value_tEEENS3_4pairIbPSF_EEOT_b, symObjAddr: 0x5D18, symBinAddr: 0x1DD68, symSize: 0x300 }
  - { offsetInCU: 0x475D6, offset: 0x14580C, size: 0x8, addend: 0x0, symName: __ZN8nlohmann6detail28json_sax_dom_callback_parserINS_10basic_jsonINSt3__13mapENS3_6vectorENS3_12basic_stringIcNS3_11char_traitsIcEENS3_9allocatorIcEEEEbxydS9_NS_14adl_serializerENS5_IhNS9_IhEEEEEEE12handle_valueINS0_7value_tEEENS3_4pairIbPSF_EEOT_b, symObjAddr: 0x5D18, symBinAddr: 0x1DD68, symSize: 0x300 }
  - { offsetInCU: 0x47DCC, offset: 0x146002, size: 0x8, addend: 0x0, symName: __ZNKSt3__16vectorIPN8nlohmann10basic_jsonINS_3mapES0_NS_12basic_stringIcNS_11char_traitsIcEENS_9allocatorIcEEEEbxydS7_NS1_14adl_serializerENS0_IhNS7_IhEEEEEENS7_ISE_EEE20__throw_length_errorB8ue170006Ev, symObjAddr: 0x6464, symBinAddr: 0x1E468, symSize: 0x14 }
  - { offsetInCU: 0x47DF4, offset: 0x14602A, size: 0x8, addend: 0x0, symName: __ZNSt3__119__allocate_at_leastB8ue170006INS_9allocatorIPN8nlohmann10basic_jsonINS_3mapENS_6vectorENS_12basic_stringIcNS_11char_traitsIcEENS1_IcEEEEbxydS1_NS2_14adl_serializerENS5_IhNS1_IhEEEEEEEEEENS_19__allocation_resultINS_16allocator_traitsIT_E7pointerEEERSJ_m, symObjAddr: 0x6478, symBinAddr: 0x1E47C, symSize: 0x34 }
  - { offsetInCU: 0x47F4D, offset: 0x146183, size: 0x8, addend: 0x0, symName: __ZN8nlohmann10basic_jsonINSt3__13mapENS1_6vectorENS1_12basic_stringIcNS1_11char_traitsIcEENS1_9allocatorIcEEEEbxydS7_NS_14adl_serializerENS3_IhNS7_IhEEEEEC2ERKSD_, symObjAddr: 0x68FC, symBinAddr: 0x1E900, symSize: 0xA8 }
  - { offsetInCU: 0x480DC, offset: 0x146312, size: 0x8, addend: 0x0, symName: __ZN8nlohmann6detail9iter_implINS_10basic_jsonINSt3__13mapENS3_6vectorENS3_12basic_stringIcNS3_11char_traitsIcEENS3_9allocatorIcEEEEbxydS9_NS_14adl_serializerENS5_IhNS9_IhEEEEEEEC2EPSF_, symObjAddr: 0x7710, symBinAddr: 0x1F714, symSize: 0x48 }
  - { offsetInCU: 0x48153, offset: 0x146389, size: 0x8, addend: 0x0, symName: __ZN8nlohmann6detail9iter_implINS_10basic_jsonINSt3__13mapENS3_6vectorENS3_12basic_stringIcNS3_11char_traitsIcEENS3_9allocatorIcEEEEbxydS9_NS_14adl_serializerENS5_IhNS9_IhEEEEEEE9set_beginEv, symObjAddr: 0x7688, symBinAddr: 0x1F68C, symSize: 0x88 }
  - { offsetInCU: 0x4820D, offset: 0x146443, size: 0x8, addend: 0x0, symName: __ZN8nlohmann6detail9iter_implINS_10basic_jsonINSt3__13mapENS3_6vectorENS3_12basic_stringIcNS3_11char_traitsIcEENS3_9allocatorIcEEEEbxydS9_NS_14adl_serializerENS5_IhNS9_IhEEEEEEE7set_endEv, symObjAddr: 0x79FC, symBinAddr: 0x1FA00, symSize: 0x7C }
  - { offsetInCU: 0x482C5, offset: 0x1464FB, size: 0x8, addend: 0x0, symName: __ZNK8nlohmann6detail9iter_implINS_10basic_jsonINSt3__13mapENS3_6vectorENS3_12basic_stringIcNS3_11char_traitsIcEENS3_9allocatorIcEEEEbxydS9_NS_14adl_serializerENS5_IhNS9_IhEEEEEEEeqERKSG_, symObjAddr: 0x7758, symBinAddr: 0x1F75C, symSize: 0x104 }
  - { offsetInCU: 0x4853E, offset: 0x146774, size: 0x8, addend: 0x0, symName: __ZNK8nlohmann6detail9iter_implINS_10basic_jsonINSt3__13mapENS3_6vectorENS3_12basic_stringIcNS3_11char_traitsIcEENS3_9allocatorIcEEEEbxydS9_NS_14adl_serializerENS5_IhNS9_IhEEEEEEEptEv, symObjAddr: 0x64AC, symBinAddr: 0x1E4B0, symSize: 0x114 }
  - { offsetInCU: 0x4885A, offset: 0x146A90, size: 0x8, addend: 0x0, symName: __ZN8nlohmann6detail9iter_implINS_10basic_jsonINSt3__13mapENS3_6vectorENS3_12basic_stringIcNS3_11char_traitsIcEENS3_9allocatorIcEEEEbxydS9_NS_14adl_serializerENS5_IhNS9_IhEEEEEEEppEv, symObjAddr: 0x6878, symBinAddr: 0x1E87C, symSize: 0x84 }
  - { offsetInCU: 0x489FC, offset: 0x146C32, size: 0x8, addend: 0x0, symName: __ZN8nlohmann10basic_jsonINSt3__13mapENS1_6vectorENS1_12basic_stringIcNS1_11char_traitsIcEENS1_9allocatorIcEEEEbxydS7_NS_14adl_serializerENS3_IhNS7_IhEEEEEC2ERKSD_, symObjAddr: 0x68FC, symBinAddr: 0x1E900, symSize: 0xA8 }
  - { offsetInCU: 0x48A07, offset: 0x146C3D, size: 0x8, addend: 0x0, symName: __ZN8nlohmann10basic_jsonINSt3__13mapENS1_6vectorENS1_12basic_stringIcNS1_11char_traitsIcEENS1_9allocatorIcEEEEbxydS7_NS_14adl_serializerENS3_IhNS7_IhEEEEE5eraseINS_6detail9iter_implISD_EELi0EEET_SI_, symObjAddr: 0x65C0, symBinAddr: 0x1E5C4, symSize: 0x2B8 }
  - { offsetInCU: 0x49325, offset: 0x14755B, size: 0x8, addend: 0x0, symName: __ZN8nlohmann6detail28json_sax_dom_callback_parserINS_10basic_jsonINSt3__13mapENS3_6vectorENS3_12basic_stringIcNS3_11char_traitsIcEENS3_9allocatorIcEEEEbxydS9_NS_14adl_serializerENS5_IhNS9_IhEEEEEEE10end_objectEv.cold.1, symObjAddr: 0xBC28, symBinAddr: 0x17B5A8, symSize: 0x28 }
  - { offsetInCU: 0x4933D, offset: 0x147573, size: 0x8, addend: 0x0, symName: __ZN8nlohmann6detail28json_sax_dom_callback_parserINS_10basic_jsonINSt3__13mapENS3_6vectorENS3_12basic_stringIcNS3_11char_traitsIcEENS3_9allocatorIcEEEEbxydS9_NS_14adl_serializerENS5_IhNS9_IhEEEEEEE10end_objectEv.cold.2, symObjAddr: 0xBC50, symBinAddr: 0x17B5D0, symSize: 0x28 }
  - { offsetInCU: 0x49393, offset: 0x1475C9, size: 0x8, addend: 0x0, symName: __ZN8nlohmann10basic_jsonINSt3__13mapENS1_6vectorENS1_12basic_stringIcNS1_11char_traitsIcEENS1_9allocatorIcEEEEbxydS7_NS_14adl_serializerENS3_IhNS7_IhEEEEEC2IRS9_S9_Li0EEEOT_, symObjAddr: 0x814C, symBinAddr: 0x20150, symSize: 0x48 }
  - { offsetInCU: 0x49538, offset: 0x14776E, size: 0x8, addend: 0x0, symName: __ZNSt3__16vectorIN8nlohmann10basic_jsonINS_3mapES0_NS_12basic_stringIcNS_11char_traitsIcEENS_9allocatorIcEEEEbxydS7_NS1_14adl_serializerENS0_IhNS7_IhEEEEEENS7_ISD_EEE22__base_destruct_at_endB8ue170006EPSD_, symObjAddr: 0x7498, symBinAddr: 0x1F49C, symSize: 0x60 }
  - { offsetInCU: 0x49621, offset: 0x147857, size: 0x8, addend: 0x0, symName: __ZN8nlohmann6detail28json_sax_dom_callback_parserINS_10basic_jsonINSt3__13mapENS3_6vectorENS3_12basic_stringIcNS3_11char_traitsIcEENS3_9allocatorIcEEEEbxydS9_NS_14adl_serializerENS5_IhNS9_IhEEEEEEE9end_arrayEv.cold.1, symObjAddr: 0xBC78, symBinAddr: 0x17B5F8, symSize: 0x28 }
  - { offsetInCU: 0x49639, offset: 0x14786F, size: 0x8, addend: 0x0, symName: __ZN8nlohmann6detail28json_sax_dom_callback_parserINS_10basic_jsonINSt3__13mapENS3_6vectorENS3_12basic_stringIcNS3_11char_traitsIcEENS3_9allocatorIcEEEEbxydS9_NS_14adl_serializerENS5_IhNS9_IhEEEEEEE9end_arrayEv.cold.2, symObjAddr: 0xBCA0, symBinAddr: 0x17B620, symSize: 0x28 }
  - { offsetInCU: 0x49651, offset: 0x147887, size: 0x8, addend: 0x0, symName: __ZN8nlohmann6detail12out_of_rangeC1ERKS1_, symObjAddr: 0x8310, symBinAddr: 0x20314, symSize: 0x54 }
  - { offsetInCU: 0x49736, offset: 0x14796C, size: 0x8, addend: 0x0, symName: __ZN8nlohmann6detail12out_of_rangeD1Ev, symObjAddr: 0x5CA4, symBinAddr: 0x1DCF4, symSize: 0x34 }
  - { offsetInCU: 0x499F2, offset: 0x147C28, size: 0x8, addend: 0x0, symName: __ZNSt3__16vectorIN8nlohmann10basic_jsonINS_3mapES0_NS_12basic_stringIcNS_11char_traitsIcEENS_9allocatorIcEEEEbxydS7_NS1_14adl_serializerENS0_IhNS7_IhEEEEEENS7_ISD_EEE21__push_back_slow_pathISD_EEvOT_, symObjAddr: 0x6064, symBinAddr: 0x1E068, symSize: 0xEC }
  - { offsetInCU: 0x49CB0, offset: 0x147EE6, size: 0x8, addend: 0x0, symName: __ZN8nlohmann6detail28json_sax_dom_callback_parserINS_10basic_jsonINSt3__13mapENS3_6vectorENS3_12basic_stringIcNS3_11char_traitsIcEENS3_9allocatorIcEEEEbxydS9_NS_14adl_serializerENS5_IhNS9_IhEEEEEEE12handle_valueINS0_7value_tEEENS3_4pairIbPSF_EEOT_b.cold.1, symObjAddr: 0xBCC8, symBinAddr: 0x17B648, symSize: 0x24 }
  - { offsetInCU: 0x49EC8, offset: 0x1480FE, size: 0x8, addend: 0x0, symName: __ZNSt3__114__split_bufferIN8nlohmann10basic_jsonINS_3mapENS_6vectorENS_12basic_stringIcNS_11char_traitsIcEENS_9allocatorIcEEEEbxydS8_NS1_14adl_serializerENS4_IhNS8_IhEEEEEERNS8_ISE_EEED2Ev, symObjAddr: 0x63D8, symBinAddr: 0x1E3DC, symSize: 0x34 }
  - { offsetInCU: 0x49FD1, offset: 0x148207, size: 0x8, addend: 0x0, symName: __ZNKSt3__16vectorIN8nlohmann10basic_jsonINS_3mapES0_NS_12basic_stringIcNS_11char_traitsIcEENS_9allocatorIcEEEEbxydS7_NS1_14adl_serializerENS0_IhNS7_IhEEEEEENS7_ISD_EEE20__throw_length_errorB8ue170006Ev, symObjAddr: 0x61C4, symBinAddr: 0x1E1C8, symSize: 0x14 }
  - { offsetInCU: 0x49FF9, offset: 0x14822F, size: 0x8, addend: 0x0, symName: __ZNSt3__119__allocate_at_leastB8ue170006INS_9allocatorIN8nlohmann10basic_jsonINS_3mapENS_6vectorENS_12basic_stringIcNS_11char_traitsIcEENS1_IcEEEEbxydS1_NS2_14adl_serializerENS5_IhNS1_IhEEEEEEEEEENS_19__allocation_resultINS_16allocator_traitsIT_E7pointerEEERSI_m, symObjAddr: 0x61D8, symBinAddr: 0x1E1DC, symSize: 0x34 }
  - { offsetInCU: 0x4A087, offset: 0x1482BD, size: 0x8, addend: 0x0, symName: __ZNSt3__128__exception_guard_exceptionsINS_29_AllocatorDestroyRangeReverseINS_9allocatorIN8nlohmann10basic_jsonINS_3mapENS_6vectorENS_12basic_stringIcNS_11char_traitsIcEENS2_IcEEEEbxydS2_NS3_14adl_serializerENS6_IhNS2_IhEEEEEEEENS_16reverse_iteratorIPSF_EEEEED2B8ue170006Ev, symObjAddr: 0x62CC, symBinAddr: 0x1E2D0, symSize: 0x34 }
  - { offsetInCU: 0x4A0C5, offset: 0x1482FB, size: 0x8, addend: 0x0, symName: __ZNKSt3__129_AllocatorDestroyRangeReverseINS_9allocatorIN8nlohmann10basic_jsonINS_3mapENS_6vectorENS_12basic_stringIcNS_11char_traitsIcEENS1_IcEEEEbxydS1_NS2_14adl_serializerENS5_IhNS1_IhEEEEEEEENS_16reverse_iteratorIPSE_EEEclB8ue170006Ev, symObjAddr: 0x6300, symBinAddr: 0x1E304, symSize: 0x74 }
  - { offsetInCU: 0x4A2D5, offset: 0x14850B, size: 0x8, addend: 0x0, symName: __ZNSt3__114__split_bufferIN8nlohmann10basic_jsonINS_3mapENS_6vectorENS_12basic_stringIcNS_11char_traitsIcEENS_9allocatorIcEEEEbxydS8_NS1_14adl_serializerENS4_IhNS8_IhEEEEEERNS8_ISE_EEE17__destruct_at_endB8ue170006EPSE_, symObjAddr: 0x640C, symBinAddr: 0x1E410, symSize: 0x58 }
  - { offsetInCU: 0x4A473, offset: 0x1486A9, size: 0x8, addend: 0x0, symName: __ZNK8nlohmann6detail9iter_implINS_10basic_jsonINSt3__13mapENS3_6vectorENS3_12basic_stringIcNS3_11char_traitsIcEENS3_9allocatorIcEEEEbxydS9_NS_14adl_serializerENS5_IhNS9_IhEEEEEEEptEv.cold.3, symObjAddr: 0xBD3C, symBinAddr: 0x17B6BC, symSize: 0x28 }
  - { offsetInCU: 0x4A48B, offset: 0x1486C1, size: 0x8, addend: 0x0, symName: __ZNK8nlohmann6detail9iter_implINS_10basic_jsonINSt3__13mapENS3_6vectorENS3_12basic_stringIcNS3_11char_traitsIcEENS3_9allocatorIcEEEEbxydS9_NS_14adl_serializerENS5_IhNS9_IhEEEEEEEptEv.cold.1, symObjAddr: 0xBCEC, symBinAddr: 0x17B66C, symSize: 0x28 }
  - { offsetInCU: 0x4A4A3, offset: 0x1486D9, size: 0x8, addend: 0x0, symName: __ZNK8nlohmann6detail9iter_implINS_10basic_jsonINSt3__13mapENS3_6vectorENS3_12basic_stringIcNS3_11char_traitsIcEENS3_9allocatorIcEEEEbxydS9_NS_14adl_serializerENS5_IhNS9_IhEEEEEEEptEv.cold.2, symObjAddr: 0xBD14, symBinAddr: 0x17B694, symSize: 0x28 }
  - { offsetInCU: 0x4A4C0, offset: 0x1486F6, size: 0x8, addend: 0x0, symName: __ZN8nlohmann6detail16invalid_iterator6createEiRKNSt3__112basic_stringIcNS2_11char_traitsIcEENS2_9allocatorIcEEEE, symObjAddr: 0x785C, symBinAddr: 0x1F860, symSize: 0x134 }
  - { offsetInCU: 0x4AF5E, offset: 0x149194, size: 0x8, addend: 0x0, symName: __ZNKSt3__111__move_loopINS_17_ClassicAlgPolicyEEclB8ue170006IPN8nlohmann10basic_jsonINS_3mapENS_6vectorENS_12basic_stringIcNS_11char_traitsIcEENS_9allocatorIcEEEEbxydSB_NS4_14adl_serializerENS7_IhNSB_IhEEEEEESI_SI_EENS_4pairIT_T1_EESK_T0_SL_, symObjAddr: 0x8044, symBinAddr: 0x20048, symSize: 0xD0 }
  - { offsetInCU: 0x4B13C, offset: 0x149372, size: 0x8, addend: 0x0, symName: __ZNSt3__16__treeINS_12__value_typeINS_12basic_stringIcNS_11char_traitsIcEENS_9allocatorIcEEEEN8nlohmann10basic_jsonINS_3mapENS_6vectorES7_bxydS5_NS8_14adl_serializerENSB_IhNS5_IhEEEEEEEENS_19__map_value_compareIS7_SG_NS_4lessIvEELb1EEENS5_ISG_EEE5eraseENS_21__tree_const_iteratorISG_PNS_11__tree_nodeISG_PvEElEE, symObjAddr: 0x7C08, symBinAddr: 0x1FC0C, symSize: 0x48 }
  - { offsetInCU: 0x4B337, offset: 0x14956D, size: 0x8, addend: 0x0, symName: __ZN8nlohmann6detail9iter_implINS_10basic_jsonINSt3__13mapENS3_6vectorENS3_12basic_stringIcNS3_11char_traitsIcEENS3_9allocatorIcEEEEbxydS9_NS_14adl_serializerENS5_IhNS9_IhEEEEEEEppEv.cold.1, symObjAddr: 0xBD64, symBinAddr: 0x17B6E4, symSize: 0x28 }
  - { offsetInCU: 0x4B477, offset: 0x1496AD, size: 0x8, addend: 0x0, symName: __ZN8nlohmann10basic_jsonINSt3__13mapENS1_6vectorENS1_12basic_stringIcNS1_11char_traitsIcEENS1_9allocatorIcEEEEbxydS7_NS_14adl_serializerENS3_IhNS7_IhEEEEE6createINS2_IS9_SD_NS1_4lessIvEENS7_INS1_4pairIKS9_SD_EEEEEEJRKSL_EEEPT_DpOT0_, symObjAddr: 0x69A4, symBinAddr: 0x1E9A8, symSize: 0x48 }
  - { offsetInCU: 0x4B721, offset: 0x149957, size: 0x8, addend: 0x0, symName: __ZN8nlohmann10basic_jsonINSt3__13mapENS1_6vectorENS1_12basic_stringIcNS1_11char_traitsIcEENS1_9allocatorIcEEEEbxydS7_NS_14adl_serializerENS3_IhNS7_IhEEEEE6createINS3_ISD_NS7_ISD_EEEEJRKSG_EEEPT_DpOT0_, symObjAddr: 0x71B0, symBinAddr: 0x1F1B4, symSize: 0x58 }
  - { offsetInCU: 0x4B9FF, offset: 0x149C35, size: 0x8, addend: 0x0, symName: __ZN8nlohmann10basic_jsonINSt3__13mapENS1_6vectorENS1_12basic_stringIcNS1_11char_traitsIcEENS1_9allocatorIcEEEEbxydS7_NS_14adl_serializerENS3_IhNS7_IhEEEEE6createIS9_JRKS9_EEEPT_DpOT0_, symObjAddr: 0x74F8, symBinAddr: 0x1F4FC, symSize: 0x68 }
  - { offsetInCU: 0x4BD07, offset: 0x149F3D, size: 0x8, addend: 0x0, symName: __ZN8nlohmann10basic_jsonINSt3__13mapENS1_6vectorENS1_12basic_stringIcNS1_11char_traitsIcEENS1_9allocatorIcEEEEbxydS7_NS_14adl_serializerENS3_IhNS7_IhEEEEE6createINS_27byte_container_with_subtypeISC_EEJRKSG_EEEPT_DpOT0_, symObjAddr: 0x7560, symBinAddr: 0x1F564, symSize: 0x5C }
  - { offsetInCU: 0x4C1FF, offset: 0x14A435, size: 0x8, addend: 0x0, symName: __ZNSt3__13mapINS_12basic_stringIcNS_11char_traitsIcEENS_9allocatorIcEEEEN8nlohmann10basic_jsonIS0_NS_6vectorES6_bxydS4_NS7_14adl_serializerENS9_IhNS4_IhEEEEEENS_4lessIvEENS4_INS_4pairIKS6_SD_EEEEEC2B8ue170006ERKSK_, symObjAddr: 0x69EC, symBinAddr: 0x1E9F0, symSize: 0x54 }
  - { offsetInCU: 0x4C549, offset: 0x14A77F, size: 0x8, addend: 0x0, symName: __ZNSt3__13mapINS_12basic_stringIcNS_11char_traitsIcEENS_9allocatorIcEEEEN8nlohmann10basic_jsonIS0_NS_6vectorES6_bxydS4_NS7_14adl_serializerENS9_IhNS4_IhEEEEEENS_4lessIvEENS4_INS_4pairIKS6_SD_EEEEE6insertB8ue170006INS_20__map_const_iteratorINS_21__tree_const_iteratorINS_12__value_typeIS6_SD_EEPNS_11__tree_nodeISP_PvEElEEEEEEvT_SW_, symObjAddr: 0x6A40, symBinAddr: 0x1EA44, symSize: 0x84 }
  - { offsetInCU: 0x4C738, offset: 0x14A96E, size: 0x8, addend: 0x0, symName: __ZNSt3__16__treeINS_12__value_typeINS_12basic_stringIcNS_11char_traitsIcEENS_9allocatorIcEEEEN8nlohmann10basic_jsonINS_3mapENS_6vectorES7_bxydS5_NS8_14adl_serializerENSB_IhNS5_IhEEEEEEEENS_19__map_value_compareIS7_SG_NS_4lessIvEELb1EEENS5_ISG_EEE7destroyEPNS_11__tree_nodeISG_PvEE, symObjAddr: 0x714C, symBinAddr: 0x1F150, symSize: 0x64 }
  - { offsetInCU: 0x4CB63, offset: 0x14AD99, size: 0x8, addend: 0x0, symName: __ZNSt3__16__treeINS_12__value_typeINS_12basic_stringIcNS_11char_traitsIcEENS_9allocatorIcEEEEN8nlohmann10basic_jsonINS_3mapENS_6vectorES7_bxydS5_NS8_14adl_serializerENSB_IhNS5_IhEEEEEEEENS_19__map_value_compareIS7_SG_NS_4lessIvEELb1EEENS5_ISG_EEE30__emplace_hint_unique_key_argsIS7_JRKNS_4pairIKS7_SF_EEEEENSO_INS_15__tree_iteratorISG_PNS_11__tree_nodeISG_PvEElEEbEENS_21__tree_const_iteratorISG_SX_lEERKT_DpOT0_, symObjAddr: 0x6AC4, symBinAddr: 0x1EAC8, symSize: 0x80 }
  - { offsetInCU: 0x4CD2B, offset: 0x14AF61, size: 0x8, addend: 0x0, symName: __ZNSt3__16__treeINS_12__value_typeINS_12basic_stringIcNS_11char_traitsIcEENS_9allocatorIcEEEEN8nlohmann10basic_jsonINS_3mapENS_6vectorES7_bxydS5_NS8_14adl_serializerENSB_IhNS5_IhEEEEEEEENS_19__map_value_compareIS7_SG_NS_4lessIvEELb1EEENS5_ISG_EEE12__find_equalIS7_EERPNS_16__tree_node_baseIPvEENS_21__tree_const_iteratorISG_PNS_11__tree_nodeISG_SP_EElEERPNS_15__tree_end_nodeISR_EESS_RKT_, symObjAddr: 0x6B44, symBinAddr: 0x1EB48, symSize: 0x198 }
  - { offsetInCU: 0x4D0DB, offset: 0x14B311, size: 0x8, addend: 0x0, symName: __ZNSt3__16__treeINS_12__value_typeINS_12basic_stringIcNS_11char_traitsIcEENS_9allocatorIcEEEEN8nlohmann10basic_jsonINS_3mapENS_6vectorES7_bxydS5_NS8_14adl_serializerENSB_IhNS5_IhEEEEEEEENS_19__map_value_compareIS7_SG_NS_4lessIvEELb1EEENS5_ISG_EEE16__construct_nodeIJRKNS_4pairIKS7_SF_EEEEENS_10unique_ptrINS_11__tree_nodeISG_PvEENS_22__tree_node_destructorINS5_ISW_EEEEEEDpOT_, symObjAddr: 0x6CDC, symBinAddr: 0x1ECE0, symSize: 0x80 }
  - { offsetInCU: 0x4D39B, offset: 0x14B5D1, size: 0x8, addend: 0x0, symName: __ZNSt3__16__treeINS_12__value_typeINS_12basic_stringIcNS_11char_traitsIcEENS_9allocatorIcEEEEN8nlohmann10basic_jsonINS_3mapENS_6vectorES7_bxydS5_NS8_14adl_serializerENSB_IhNS5_IhEEEEEEEENS_19__map_value_compareIS7_SG_NS_4lessIvEELb1EEENS5_ISG_EEE16__insert_node_atEPNS_15__tree_end_nodeIPNS_16__tree_node_baseIPvEEEERSR_SR_, symObjAddr: 0x6D5C, symBinAddr: 0x1ED60, symSize: 0x54 }
  - { offsetInCU: 0x4D4B3, offset: 0x14B6E9, size: 0x8, addend: 0x0, symName: __ZNKSt3__14lessIvEclB8ue170006IRKNS_12basic_stringIcNS_11char_traitsIcEENS_9allocatorIcEEEESA_EEDTltclsr3stdE7forwardIT_Efp_Eclsr3stdE7forwardIT0_Efp0_EEOSB_OSC_, symObjAddr: 0x6E4C, symBinAddr: 0x1EE50, symSize: 0x68 }
  - { offsetInCU: 0x4D641, offset: 0x14B877, size: 0x8, addend: 0x0, symName: __ZNSt3__16__treeINS_12__value_typeINS_12basic_stringIcNS_11char_traitsIcEENS_9allocatorIcEEEEN8nlohmann10basic_jsonINS_3mapENS_6vectorES7_bxydS5_NS8_14adl_serializerENSB_IhNS5_IhEEEEEEEENS_19__map_value_compareIS7_SG_NS_4lessIvEELb1EEENS5_ISG_EEE12__find_equalIS7_EERPNS_16__tree_node_baseIPvEERPNS_15__tree_end_nodeISR_EERKT_, symObjAddr: 0x6DB0, symBinAddr: 0x1EDB4, symSize: 0x9C }
  - { offsetInCU: 0x4DA14, offset: 0x14BC4A, size: 0x8, addend: 0x0, symName: __ZNSt3__14pairIKNS_12basic_stringIcNS_11char_traitsIcEENS_9allocatorIcEEEEN8nlohmann10basic_jsonINS_3mapENS_6vectorES6_bxydS4_NS8_14adl_serializerENSB_IhNS4_IhEEEEEEEC2B8ue170006ERKSG_, symObjAddr: 0x6EB4, symBinAddr: 0x1EEB8, symSize: 0x74 }
  - { offsetInCU: 0x4DC26, offset: 0x14BE5C, size: 0x8, addend: 0x0, symName: __ZNSt3__122__tree_node_destructorINS_9allocatorINS_11__tree_nodeINS_12__value_typeINS_12basic_stringIcNS_11char_traitsIcEENS1_IcEEEEN8nlohmann10basic_jsonINS_3mapENS_6vectorES8_bxydS1_NS9_14adl_serializerENSC_IhNS1_IhEEEEEEEEPvEEEEEclB8ue170006EPSJ_, symObjAddr: 0x70C0, symBinAddr: 0x1F0C4, symSize: 0x44 }
  - { offsetInCU: 0x4DE84, offset: 0x14C0BA, size: 0x8, addend: 0x0, symName: __ZNSt3__116allocator_traitsINS_9allocatorINS_11__tree_nodeINS_12__value_typeINS_12basic_stringIcNS_11char_traitsIcEENS1_IcEEEEN8nlohmann10basic_jsonINS_3mapENS_6vectorES8_bxydS1_NS9_14adl_serializerENSC_IhNS1_IhEEEEEEEEPvEEEEE7destroyB8ue170006INS_4pairIKS8_SG_EEvvEEvRSK_PT_, symObjAddr: 0x7104, symBinAddr: 0x1F108, symSize: 0x48 }
  - { offsetInCU: 0x4E2AE, offset: 0x14C4E4, size: 0x8, addend: 0x0, symName: __ZNSt3__16vectorIN8nlohmann10basic_jsonINS_3mapES0_NS_12basic_stringIcNS_11char_traitsIcEENS_9allocatorIcEEEEbxydS7_NS1_14adl_serializerENS0_IhNS7_IhEEEEEENS7_ISD_EEE16__init_with_sizeB8ue170006IPSD_SH_EEvT_T0_m, symObjAddr: 0x7208, symBinAddr: 0x1F20C, symSize: 0x84 }
  - { offsetInCU: 0x4E660, offset: 0x14C896, size: 0x8, addend: 0x0, symName: __ZNSt3__16vectorIN8nlohmann10basic_jsonINS_3mapES0_NS_12basic_stringIcNS_11char_traitsIcEENS_9allocatorIcEEEEbxydS7_NS1_14adl_serializerENS0_IhNS7_IhEEEEEENS7_ISD_EEE11__vallocateB8ue170006Em, symObjAddr: 0x728C, symBinAddr: 0x1F290, symSize: 0x40 }
  - { offsetInCU: 0x4E6D9, offset: 0x14C90F, size: 0x8, addend: 0x0, symName: __ZNSt3__135__uninitialized_allocator_copy_implB8ue170006INS_9allocatorIN8nlohmann10basic_jsonINS_3mapENS_6vectorENS_12basic_stringIcNS_11char_traitsIcEENS1_IcEEEEbxydS1_NS2_14adl_serializerENS5_IhNS1_IhEEEEEEEEPSE_SG_SG_EET2_RT_T0_T1_SH_, symObjAddr: 0x72CC, symBinAddr: 0x1F2D0, symSize: 0xA0 }
  - { offsetInCU: 0x4E6EA, offset: 0x14C920, size: 0x8, addend: 0x0, symName: __ZNSt3__16vectorIN8nlohmann10basic_jsonINS_3mapES0_NS_12basic_stringIcNS_11char_traitsIcEENS_9allocatorIcEEEEbxydS7_NS1_14adl_serializerENS0_IhNS7_IhEEEEEENS7_ISD_EEE16__destroy_vectorclB8ue170006Ev, symObjAddr: 0x7408, symBinAddr: 0x1F40C, symSize: 0x90 }
  - { offsetInCU: 0x4E9AA, offset: 0x14CBE0, size: 0x8, addend: 0x0, symName: __ZNSt3__128__exception_guard_exceptionsINS_29_AllocatorDestroyRangeReverseINS_9allocatorIN8nlohmann10basic_jsonINS_3mapENS_6vectorENS_12basic_stringIcNS_11char_traitsIcEENS2_IcEEEEbxydS2_NS3_14adl_serializerENS6_IhNS2_IhEEEEEEEEPSF_EEED2B8ue170006Ev, symObjAddr: 0x736C, symBinAddr: 0x1F370, symSize: 0x48 }
  - { offsetInCU: 0x4EE18, offset: 0x14D04E, size: 0x8, addend: 0x0, symName: __ZNSt3__16vectorIhNS_9allocatorIhEEE16__init_with_sizeB8ue170006IPhS5_EEvT_T0_m, symObjAddr: 0x75BC, symBinAddr: 0x1F5C0, symSize: 0x78 }
  - { offsetInCU: 0x4F3D0, offset: 0x14D606, size: 0x8, addend: 0x0, symName: __ZNSt3__16vectorIhNS_9allocatorIhEEE11__vallocateB8ue170006Em, symObjAddr: 0x7634, symBinAddr: 0x1F638, symSize: 0x40 }
  - { offsetInCU: 0x4F4A3, offset: 0x14D6D9, size: 0x8, addend: 0x0, symName: __ZNKSt3__16vectorIhNS_9allocatorIhEEE20__throw_length_errorB8ue170006Ev, symObjAddr: 0x7674, symBinAddr: 0x1F678, symSize: 0x14 }
  - { offsetInCU: 0x4F4D3, offset: 0x14D709, size: 0x8, addend: 0x0, symName: __ZNKSt3__16vectorIhNS_9allocatorIhEEE20__throw_length_errorB8ue170006Ev, symObjAddr: 0x7674, symBinAddr: 0x1F678, symSize: 0x14 }
  - { offsetInCU: 0x4F4FB, offset: 0x14D731, size: 0x8, addend: 0x0, symName: __ZN8nlohmann6detail9iter_implINS_10basic_jsonINSt3__13mapENS3_6vectorENS3_12basic_stringIcNS3_11char_traitsIcEENS3_9allocatorIcEEEEbxydS9_NS_14adl_serializerENS5_IhNS9_IhEEEEEEE9set_beginEv, symObjAddr: 0x7688, symBinAddr: 0x1F68C, symSize: 0x88 }
  - { offsetInCU: 0x4F58B, offset: 0x14D7C1, size: 0x8, addend: 0x0, symName: __ZNK8nlohmann6detail9iter_implINS_10basic_jsonINSt3__13mapENS3_6vectorENS3_12basic_stringIcNS3_11char_traitsIcEENS3_9allocatorIcEEEEbxydS9_NS_14adl_serializerENS5_IhNS9_IhEEEEEEEeqERKSG_.cold.1, symObjAddr: 0xBD8C, symBinAddr: 0x17B70C, symSize: 0x28 }
  - { offsetInCU: 0x4F626, offset: 0x14D85C, size: 0x8, addend: 0x0, symName: __ZN8nlohmann6detail16invalid_iteratorD1Ev, symObjAddr: 0x7990, symBinAddr: 0x1F994, symSize: 0x34 }
  - { offsetInCU: 0x4F6A2, offset: 0x14D8D8, size: 0x8, addend: 0x0, symName: __ZN8nlohmann6detail16invalid_iteratorD0Ev, symObjAddr: 0x79C4, symBinAddr: 0x1F9C8, symSize: 0x38 }
  - { offsetInCU: 0x4F7A9, offset: 0x14D9DF, size: 0x8, addend: 0x0, symName: __ZN8nlohmann6detail10type_errorD1Ev, symObjAddr: 0x7BD4, symBinAddr: 0x1FBD8, symSize: 0x34 }
  - { offsetInCU: 0x4F809, offset: 0x14DA3F, size: 0x8, addend: 0x0, symName: __ZNSt3__16__treeINS_12__value_typeINS_12basic_stringIcNS_11char_traitsIcEENS_9allocatorIcEEEEN8nlohmann10basic_jsonINS_3mapENS_6vectorES7_bxydS5_NS8_14adl_serializerENSB_IhNS5_IhEEEEEEEENS_19__map_value_compareIS7_SG_NS_4lessIvEELb1EEENS5_ISG_EEE21__remove_node_pointerEPNS_11__tree_nodeISG_PvEE, symObjAddr: 0x7C50, symBinAddr: 0x1FC54, symSize: 0x70 }
  - { offsetInCU: 0x4F8E8, offset: 0x14DB1E, size: 0x8, addend: 0x0, symName: __ZN8nlohmann6detail10type_errorD0Ev, symObjAddr: 0x8114, symBinAddr: 0x20118, symSize: 0x38 }
  - { offsetInCU: 0x4FA0D, offset: 0x14DC43, size: 0x8, addend: 0x0, symName: __ZNSt3__16__treeINS_12__value_typeINS_12basic_stringIcNS_11char_traitsIcEENS_9allocatorIcEEEEN8nlohmann10basic_jsonINS_3mapENS_6vectorES7_bxydS5_NS8_14adl_serializerENSB_IhNS5_IhEEEEEEEENS_19__map_value_compareIS7_SG_NS_4lessIvEELb1EEENS5_ISG_EEE16__construct_nodeIJRKNS_21piecewise_construct_tENS_5tupleIJRKS7_EEENSR_IJEEEEEENS_10unique_ptrINS_11__tree_nodeISG_PvEENS_22__tree_node_destructorINS5_ISZ_EEEEEEDpOT_, symObjAddr: 0x8228, symBinAddr: 0x2022C, symSize: 0x80 }
  - { offsetInCU: 0x4FD8F, offset: 0x14DFC5, size: 0x8, addend: 0x0, symName: __ZNSt3__14pairIKNS_12basic_stringIcNS_11char_traitsIcEENS_9allocatorIcEEEEN8nlohmann10basic_jsonINS_3mapENS_6vectorES6_bxydS4_NS8_14adl_serializerENSB_IhNS4_IhEEEEEEEC1B8ue170006IJRS7_EJEEENS_21piecewise_construct_tENS_5tupleIJDpT_EEENSK_IJDpT0_EEE, symObjAddr: 0x82A8, symBinAddr: 0x202AC, symSize: 0x68 }
  - { offsetInCU: 0x500AF, offset: 0x14E2E5, size: 0x8, addend: 0x0, symName: __ZN8nlohmann6detail12out_of_rangeD0Ev, symObjAddr: 0x8364, symBinAddr: 0x20368, symSize: 0x38 }
  - { offsetInCU: 0x50246, offset: 0x14E47C, size: 0x8, addend: 0x0, symName: __ZN8nlohmann6detail28json_sax_dom_callback_parserINS_10basic_jsonINSt3__13mapENS3_6vectorENS3_12basic_stringIcNS3_11char_traitsIcEENS3_9allocatorIcEEEEbxydS9_NS_14adl_serializerENS5_IhNS9_IhEEEEEEE12handle_valueIRdEENS3_4pairIbPSF_EEOT_b.cold.1, symObjAddr: 0xBDB4, symBinAddr: 0x17B734, symSize: 0x24 }
  - { offsetInCU: 0x50371, offset: 0x14E5A7, size: 0x8, addend: 0x0, symName: __ZN8nlohmann6detail28json_sax_dom_callback_parserINS_10basic_jsonINSt3__13mapENS3_6vectorENS3_12basic_stringIcNS3_11char_traitsIcEENS3_9allocatorIcEEEEbxydS9_NS_14adl_serializerENS5_IhNS9_IhEEEEEEE12handle_valueIRbEENS3_4pairIbPSF_EEOT_b.cold.1, symObjAddr: 0xBDD8, symBinAddr: 0x17B758, symSize: 0x24 }
  - { offsetInCU: 0x50389, offset: 0x14E5BF, size: 0x8, addend: 0x0, symName: __ZN8nlohmann6detail28json_sax_dom_callback_parserINS_10basic_jsonINSt3__13mapENS3_6vectorENS3_12basic_stringIcNS3_11char_traitsIcEENS3_9allocatorIcEEEEbxydS9_NS_14adl_serializerENS5_IhNS9_IhEEEEEEE12handle_valueIDnEENS3_4pairIbPSF_EEOT_b.cold.1, symObjAddr: 0xBDFC, symBinAddr: 0x17B77C, symSize: 0x24 }
  - { offsetInCU: 0x504B4, offset: 0x14E6EA, size: 0x8, addend: 0x0, symName: __ZN8nlohmann6detail28json_sax_dom_callback_parserINS_10basic_jsonINSt3__13mapENS3_6vectorENS3_12basic_stringIcNS3_11char_traitsIcEENS3_9allocatorIcEEEEbxydS9_NS_14adl_serializerENS5_IhNS9_IhEEEEEEE12handle_valueIRxEENS3_4pairIbPSF_EEOT_b.cold.1, symObjAddr: 0xBE20, symBinAddr: 0x17B7A0, symSize: 0x24 }
  - { offsetInCU: 0x504CC, offset: 0x14E702, size: 0x8, addend: 0x0, symName: __ZN8nlohmann6detail28json_sax_dom_callback_parserINS_10basic_jsonINSt3__13mapENS3_6vectorENS3_12basic_stringIcNS3_11char_traitsIcEENS3_9allocatorIcEEEEbxydS9_NS_14adl_serializerENS5_IhNS9_IhEEEEEEE12handle_valueIRSB_EENS3_4pairIbPSF_EEOT_b.cold.1, symObjAddr: 0xBE44, symBinAddr: 0x17B7C4, symSize: 0x24 }
  - { offsetInCU: 0x505F7, offset: 0x14E82D, size: 0x8, addend: 0x0, symName: __ZN8nlohmann6detail28json_sax_dom_callback_parserINS_10basic_jsonINSt3__13mapENS3_6vectorENS3_12basic_stringIcNS3_11char_traitsIcEENS3_9allocatorIcEEEEbxydS9_NS_14adl_serializerENS5_IhNS9_IhEEEEEEE12handle_valueIRyEENS3_4pairIbPSF_EEOT_b.cold.1, symObjAddr: 0xBE68, symBinAddr: 0x17B7E8, symSize: 0x24 }
  - { offsetInCU: 0x50630, offset: 0x14E866, size: 0x8, addend: 0x0, symName: __ZN8nlohmann6detail11parse_errorD0Ev, symObjAddr: 0x9608, symBinAddr: 0x2160C, symSize: 0x38 }
  - { offsetInCU: 0x507EA, offset: 0x14EA20, size: 0x8, addend: 0x0, symName: __ZN8nlohmann6detail19json_sax_dom_parserINS_10basic_jsonINSt3__13mapENS3_6vectorENS3_12basic_stringIcNS3_11char_traitsIcEENS3_9allocatorIcEEEEbxydS9_NS_14adl_serializerENS5_IhNS9_IhEEEEEEE12handle_valueINS0_7value_tEEEPSF_OT_, symObjAddr: 0x9CE4, symBinAddr: 0x21CE8, symSize: 0x170 }
  - { offsetInCU: 0x50BFC, offset: 0x14EE32, size: 0x8, addend: 0x0, symName: __ZNSt3__16vectorIN8nlohmann10basic_jsonINS_3mapES0_NS_12basic_stringIcNS_11char_traitsIcEENS_9allocatorIcEEEEbxydS7_NS1_14adl_serializerENS0_IhNS7_IhEEEEEENS7_ISD_EEE22__construct_one_at_endB8ue170006IJNS1_6detail7value_tEEEEvDpOT_, symObjAddr: 0x9E54, symBinAddr: 0x21E58, symSize: 0x48 }
  - { offsetInCU: 0x50C3E, offset: 0x14EE74, size: 0x8, addend: 0x0, symName: __ZNSt3__16vectorIN8nlohmann10basic_jsonINS_3mapES0_NS_12basic_stringIcNS_11char_traitsIcEENS_9allocatorIcEEEEbxydS7_NS1_14adl_serializerENS0_IhNS7_IhEEEEEENS7_ISD_EEE22__construct_one_at_endB8ue170006IJNS1_6detail7value_tEEEEvDpOT_, symObjAddr: 0x9E54, symBinAddr: 0x21E58, symSize: 0x48 }
  - { offsetInCU: 0x50E04, offset: 0x14F03A, size: 0x8, addend: 0x0, symName: __ZNSt3__16vectorIN8nlohmann10basic_jsonINS_3mapES0_NS_12basic_stringIcNS_11char_traitsIcEENS_9allocatorIcEEEEbxydS7_NS1_14adl_serializerENS0_IhNS7_IhEEEEEENS7_ISD_EEE24__emplace_back_slow_pathIJNS1_6detail7value_tEEEEvDpOT_, symObjAddr: 0x9E9C, symBinAddr: 0x21EA0, symSize: 0xE4 }
  - { offsetInCU: 0x5112A, offset: 0x14F360, size: 0x8, addend: 0x0, symName: __ZN8nlohmann6detail19json_sax_dom_parserINS_10basic_jsonINSt3__13mapENS3_6vectorENS3_12basic_stringIcNS3_11char_traitsIcEENS3_9allocatorIcEEEEbxydS9_NS_14adl_serializerENS5_IhNS9_IhEEEEEEE12handle_valueINS0_7value_tEEEPSF_OT_.cold.1, symObjAddr: 0xBE8C, symBinAddr: 0x17B80C, symSize: 0x24 }
  - { offsetInCU: 0x51142, offset: 0x14F378, size: 0x8, addend: 0x0, symName: __ZN8nlohmann6detail19json_sax_dom_parserINS_10basic_jsonINSt3__13mapENS3_6vectorENS3_12basic_stringIcNS3_11char_traitsIcEENS3_9allocatorIcEEEEbxydS9_NS_14adl_serializerENS5_IhNS9_IhEEEEEEE12handle_valueINS0_7value_tEEEPSF_OT_.cold.2, symObjAddr: 0xBEB0, symBinAddr: 0x17B830, symSize: 0x24 }
  - { offsetInCU: 0x512BD, offset: 0x14F4F3, size: 0x8, addend: 0x0, symName: __ZNSt3__16vectorIN8nlohmann10basic_jsonINS_3mapES0_NS_12basic_stringIcNS_11char_traitsIcEENS_9allocatorIcEEEEbxydS7_NS1_14adl_serializerENS0_IhNS7_IhEEEEEENS7_ISD_EEE24__emplace_back_slow_pathIJRdEEEvDpOT_, symObjAddr: 0xA12C, symBinAddr: 0x22130, symSize: 0xE8 }
  - { offsetInCU: 0x5160F, offset: 0x14F845, size: 0x8, addend: 0x0, symName: __ZN8nlohmann6detail19json_sax_dom_parserINS_10basic_jsonINSt3__13mapENS3_6vectorENS3_12basic_stringIcNS3_11char_traitsIcEENS3_9allocatorIcEEEEbxydS9_NS_14adl_serializerENS5_IhNS9_IhEEEEEEE12handle_valueIRdEEPSF_OT_.cold.1, symObjAddr: 0xBED4, symBinAddr: 0x17B854, symSize: 0x24 }
  - { offsetInCU: 0x51627, offset: 0x14F85D, size: 0x8, addend: 0x0, symName: __ZN8nlohmann6detail19json_sax_dom_parserINS_10basic_jsonINSt3__13mapENS3_6vectorENS3_12basic_stringIcNS3_11char_traitsIcEENS3_9allocatorIcEEEEbxydS9_NS_14adl_serializerENS5_IhNS9_IhEEEEEEE12handle_valueIRdEEPSF_OT_.cold.2, symObjAddr: 0xBEF8, symBinAddr: 0x17B878, symSize: 0x24 }
  - { offsetInCU: 0x51723, offset: 0x14F959, size: 0x8, addend: 0x0, symName: __ZNSt3__16vectorIN8nlohmann10basic_jsonINS_3mapES0_NS_12basic_stringIcNS_11char_traitsIcEENS_9allocatorIcEEEEbxydS7_NS1_14adl_serializerENS0_IhNS7_IhEEEEEENS7_ISD_EEE24__emplace_back_slow_pathIJRbEEEvDpOT_, symObjAddr: 0xA3C0, symBinAddr: 0x223C4, symSize: 0xE8 }
  - { offsetInCU: 0x51A65, offset: 0x14FC9B, size: 0x8, addend: 0x0, symName: __ZN8nlohmann6detail19json_sax_dom_parserINS_10basic_jsonINSt3__13mapENS3_6vectorENS3_12basic_stringIcNS3_11char_traitsIcEENS3_9allocatorIcEEEEbxydS9_NS_14adl_serializerENS5_IhNS9_IhEEEEEEE12handle_valueIRbEEPSF_OT_.cold.1, symObjAddr: 0xBF1C, symBinAddr: 0x17B89C, symSize: 0x24 }
  - { offsetInCU: 0x51A7D, offset: 0x14FCB3, size: 0x8, addend: 0x0, symName: __ZN8nlohmann6detail19json_sax_dom_parserINS_10basic_jsonINSt3__13mapENS3_6vectorENS3_12basic_stringIcNS3_11char_traitsIcEENS3_9allocatorIcEEEEbxydS9_NS_14adl_serializerENS5_IhNS9_IhEEEEEEE12handle_valueIRbEEPSF_OT_.cold.2, symObjAddr: 0xBF40, symBinAddr: 0x17B8C0, symSize: 0x24 }
  - { offsetInCU: 0x51B79, offset: 0x14FDAF, size: 0x8, addend: 0x0, symName: __ZNSt3__16vectorIN8nlohmann10basic_jsonINS_3mapES0_NS_12basic_stringIcNS_11char_traitsIcEENS_9allocatorIcEEEEbxydS7_NS1_14adl_serializerENS0_IhNS7_IhEEEEEENS7_ISD_EEE24__emplace_back_slow_pathIJDnEEEvDpOT_, symObjAddr: 0xA638, symBinAddr: 0x2263C, symSize: 0xD0 }
  - { offsetInCU: 0x51E9B, offset: 0x1500D1, size: 0x8, addend: 0x0, symName: __ZN8nlohmann6detail19json_sax_dom_parserINS_10basic_jsonINSt3__13mapENS3_6vectorENS3_12basic_stringIcNS3_11char_traitsIcEENS3_9allocatorIcEEEEbxydS9_NS_14adl_serializerENS5_IhNS9_IhEEEEEEE12handle_valueIDnEEPSF_OT_.cold.1, symObjAddr: 0xBF64, symBinAddr: 0x17B8E4, symSize: 0x24 }
  - { offsetInCU: 0x51EB3, offset: 0x1500E9, size: 0x8, addend: 0x0, symName: __ZN8nlohmann6detail19json_sax_dom_parserINS_10basic_jsonINSt3__13mapENS3_6vectorENS3_12basic_stringIcNS3_11char_traitsIcEENS3_9allocatorIcEEEEbxydS9_NS_14adl_serializerENS5_IhNS9_IhEEEEEEE12handle_valueIDnEEPSF_OT_.cold.2, symObjAddr: 0xBF88, symBinAddr: 0x17B908, symSize: 0x24 }
  - { offsetInCU: 0x51FAF, offset: 0x1501E5, size: 0x8, addend: 0x0, symName: __ZNSt3__16vectorIN8nlohmann10basic_jsonINS_3mapES0_NS_12basic_stringIcNS_11char_traitsIcEENS_9allocatorIcEEEEbxydS7_NS1_14adl_serializerENS0_IhNS7_IhEEEEEENS7_ISD_EEE24__emplace_back_slow_pathIJRxEEEvDpOT_, symObjAddr: 0xA8B4, symBinAddr: 0x228B8, symSize: 0xE8 }
  - { offsetInCU: 0x522FF, offset: 0x150535, size: 0x8, addend: 0x0, symName: __ZN8nlohmann6detail19json_sax_dom_parserINS_10basic_jsonINSt3__13mapENS3_6vectorENS3_12basic_stringIcNS3_11char_traitsIcEENS3_9allocatorIcEEEEbxydS9_NS_14adl_serializerENS5_IhNS9_IhEEEEEEE12handle_valueIRxEEPSF_OT_.cold.1, symObjAddr: 0xBFAC, symBinAddr: 0x17B92C, symSize: 0x24 }
  - { offsetInCU: 0x52317, offset: 0x15054D, size: 0x8, addend: 0x0, symName: __ZN8nlohmann6detail19json_sax_dom_parserINS_10basic_jsonINSt3__13mapENS3_6vectorENS3_12basic_stringIcNS3_11char_traitsIcEENS3_9allocatorIcEEEEbxydS9_NS_14adl_serializerENS5_IhNS9_IhEEEEEEE12handle_valueIRxEEPSF_OT_.cold.2, symObjAddr: 0xBFD0, symBinAddr: 0x17B950, symSize: 0x24 }
  - { offsetInCU: 0x5232F, offset: 0x150565, size: 0x8, addend: 0x0, symName: __ZNSt3__16vectorIN8nlohmann10basic_jsonINS_3mapES0_NS_12basic_stringIcNS_11char_traitsIcEENS_9allocatorIcEEEEbxydS7_NS1_14adl_serializerENS0_IhNS7_IhEEEEEENS7_ISD_EEE12emplace_backIJRS9_EEEvDpOT_, symObjAddr: 0xAAD8, symBinAddr: 0x22ADC, symSize: 0x104 }
  - { offsetInCU: 0x5273E, offset: 0x150974, size: 0x8, addend: 0x0, symName: __ZN8nlohmann6detail19json_sax_dom_parserINS_10basic_jsonINSt3__13mapENS3_6vectorENS3_12basic_stringIcNS3_11char_traitsIcEENS3_9allocatorIcEEEEbxydS9_NS_14adl_serializerENS5_IhNS9_IhEEEEEEE12handle_valueIRSB_EEPSF_OT_.cold.1, symObjAddr: 0xBFF4, symBinAddr: 0x17B974, symSize: 0x24 }
  - { offsetInCU: 0x52756, offset: 0x15098C, size: 0x8, addend: 0x0, symName: __ZN8nlohmann6detail19json_sax_dom_parserINS_10basic_jsonINSt3__13mapENS3_6vectorENS3_12basic_stringIcNS3_11char_traitsIcEENS3_9allocatorIcEEEEbxydS9_NS_14adl_serializerENS5_IhNS9_IhEEEEEEE12handle_valueIRSB_EEPSF_OT_.cold.2, symObjAddr: 0xC018, symBinAddr: 0x17B998, symSize: 0x24 }
  - { offsetInCU: 0x5294E, offset: 0x150B84, size: 0x8, addend: 0x0, symName: __ZNSt3__16vectorIN8nlohmann10basic_jsonINS_3mapES0_NS_12basic_stringIcNS_11char_traitsIcEENS_9allocatorIcEEEEbxydS7_NS1_14adl_serializerENS0_IhNS7_IhEEEEEENS7_ISD_EEE24__emplace_back_slow_pathIJRyEEEvDpOT_, symObjAddr: 0xAD88, symBinAddr: 0x22D8C, symSize: 0xE8 }
  - { offsetInCU: 0x52C9E, offset: 0x150ED4, size: 0x8, addend: 0x0, symName: __ZN8nlohmann6detail19json_sax_dom_parserINS_10basic_jsonINSt3__13mapENS3_6vectorENS3_12basic_stringIcNS3_11char_traitsIcEENS3_9allocatorIcEEEEbxydS9_NS_14adl_serializerENS5_IhNS9_IhEEEEEEE12handle_valueIRyEEPSF_OT_.cold.1, symObjAddr: 0xC03C, symBinAddr: 0x17B9BC, symSize: 0x24 }
  - { offsetInCU: 0x52CB6, offset: 0x150EEC, size: 0x8, addend: 0x0, symName: __ZN8nlohmann6detail19json_sax_dom_parserINS_10basic_jsonINSt3__13mapENS3_6vectorENS3_12basic_stringIcNS3_11char_traitsIcEENS3_9allocatorIcEEEEbxydS9_NS_14adl_serializerENS5_IhNS9_IhEEEEEEE12handle_valueIRyEEPSF_OT_.cold.2, symObjAddr: 0xC060, symBinAddr: 0x17B9E0, symSize: 0x24 }
  - { offsetInCU: 0x5371A, offset: 0x151950, size: 0x8, addend: 0x0, symName: __ZN8firebase9firestore6bundle14BundleDocumentD0Ev, symObjAddr: 0xB278, symBinAddr: 0x22E74, symSize: 0x40 }
  - { offsetInCU: 0x53848, offset: 0x151A7E, size: 0x8, addend: 0x0, symName: __ZNK8firebase9firestore6bundle14BundleDocument12element_typeEv, symObjAddr: 0xB2B8, symBinAddr: 0x22EB4, symSize: 0x8 }
  - { offsetInCU: 0x53A93, offset: 0x151CC9, size: 0x8, addend: 0x0, symName: __ZNSt3__16vectorIN8nlohmann10basic_jsonINS_3mapES0_NS_12basic_stringIcNS_11char_traitsIcEENS_9allocatorIcEEEEbxydS7_NS1_14adl_serializerENS0_IhNS7_IhEEEEEENS7_ISD_EEE7reserveEm, symObjAddr: 0xB6C8, symBinAddr: 0x231CC, symSize: 0x90 }
  - { offsetInCU: 0x53C4A, offset: 0x151E80, size: 0x8, addend: 0x0, symName: __ZNKSt3__111__move_loopINS_17_ClassicAlgPolicyEEclB8ue170006IPN8nlohmann10basic_jsonINS_3mapENS_6vectorENS_12basic_stringIcNS_11char_traitsIcEENS_9allocatorIcEEEEbxydSB_NS4_14adl_serializerENS7_IhNSB_IhEEEEEESI_NS_20back_insert_iteratorINS7_ISH_NSB_ISH_EEEEEEEENS_4pairIT_T1_EESO_T0_SP_, symObjAddr: 0xB7B4, symBinAddr: 0x232B8, symSize: 0x98 }
  - { offsetInCU: 0x53E32, offset: 0x152068, size: 0x8, addend: 0x0, symName: __ZNSt3__16vectorIN8nlohmann10basic_jsonINS_3mapES0_NS_12basic_stringIcNS_11char_traitsIcEENS_9allocatorIcEEEEbxydS7_NS1_14adl_serializerENS0_IhNS7_IhEEEEEENS7_ISD_EEE5clearB8ue170006Ev, symObjAddr: 0xB758, symBinAddr: 0x2325C, symSize: 0x5C }
  - { offsetInCU: 0x540EF, offset: 0x152325, size: 0x8, addend: 0x0, symName: __ZNSt12out_of_rangeC1B8ue170006EPKc, symObjAddr: 0xB954, symBinAddr: 0x23458, symSize: 0x24 }
  - { offsetInCU: 0x543C8, offset: 0x1525FE, size: 0x8, addend: 0x0, symName: _OUTLINED_FUNCTION_0, symObjAddr: 0xC084, symBinAddr: 0x23574, symSize: 0x8 }
  - { offsetInCU: 0x543E0, offset: 0x152616, size: 0x8, addend: 0x0, symName: _OUTLINED_FUNCTION_1, symObjAddr: 0xC08C, symBinAddr: 0x2357C, symSize: 0x8 }
  - { offsetInCU: 0x543F8, offset: 0x15262E, size: 0x8, addend: 0x0, symName: _OUTLINED_FUNCTION_2, symObjAddr: 0xC094, symBinAddr: 0x23584, symSize: 0x8 }
  - { offsetInCU: 0x50, offset: 0x152793, size: 0x8, addend: 0x0, symName: __ZN8firebase9firestore6bundle12_GLOBAL__N_113kDefaultBoundE, symObjAddr: 0x19DD50, symBinAddr: 0x242C78, symSize: 0x0 }
  - { offsetInCU: 0x5E, offset: 0x1527A1, size: 0x8, addend: 0x0, symName: __ZN8firebase9firestore6bundle12_GLOBAL__N_121DecodeSnapshotVersionERNS0_4util10JsonReaderERKN8nlohmann10basic_jsonINSt3__13mapENS8_6vectorENS8_12basic_stringIcNS8_11char_traitsIcEENS8_9allocatorIcEEEEbxydSE_NS6_14adl_serializerENSA_IhNSE_IhEEEEEE, symObjAddr: 0x288, symBinAddr: 0x23814, symSize: 0x30 }
  - { offsetInCU: 0xB7, offset: 0x1527FA, size: 0x8, addend: 0x0, symName: __ZN8firebase9firestore6bundle12_GLOBAL__N_115DecodeTimestampERNS0_4util10JsonReaderERKN8nlohmann10basic_jsonINSt3__13mapENS8_6vectorENS8_12basic_stringIcNS8_11char_traitsIcEENS8_9allocatorIcEEEEbxydSE_NS6_14adl_serializerENSA_IhNSE_IhEEEEEE, symObjAddr: 0x3F6C, symBinAddr: 0x274C8, symSize: 0x20C }
  - { offsetInCU: 0xD32, offset: 0x153475, size: 0x8, addend: 0x0, symName: __ZN8firebase9firestore6bundle12_GLOBAL__N_120DecodeFieldReferenceERNS0_4util10JsonReaderERKN8nlohmann10basic_jsonINSt3__13mapENS8_6vectorENS8_12basic_stringIcNS8_11char_traitsIcEENS8_9allocatorIcEEEEbxydSE_NS6_14adl_serializerENSA_IhNSE_IhEEEEEE, symObjAddr: 0x3344, symBinAddr: 0x268D0, symSize: 0xDC }
  - { offsetInCU: 0x111E, offset: 0x153861, size: 0x8, addend: 0x0, symName: __ZN8firebase9firestore6bundle12_GLOBAL__N_117DecodeUnaryFilterERNS0_4util10JsonReaderERKN8nlohmann10basic_jsonINSt3__13mapENS8_6vectorENS8_12basic_stringIcNS8_11char_traitsIcEENS8_9allocatorIcEEEEbxydSE_NS6_14adl_serializerENSA_IhNSE_IhEEEEEE, symObjAddr: 0x2CC0, symBinAddr: 0x2624C, symSize: 0x684 }
  - { offsetInCU: 0x2FDA, offset: 0x15571D, size: 0x8, addend: 0x0, symName: __ZN8firebase9firestore6bundle12_GLOBAL__N_113InvalidFilterEv, symObjAddr: 0x3A48, symBinAddr: 0x26FD4, symSize: 0xD4 }
  - { offsetInCU: 0x347C, offset: 0x155BBF, size: 0x8, addend: 0x0, symName: __ZN8firebase9firestore6bundle12_GLOBAL__N_116DecodeBytesValueERNS0_4util10JsonReaderERKNSt3__112basic_stringIcNS6_11char_traitsIcEENS6_9allocatorIcEEEE, symObjAddr: 0x4178, symBinAddr: 0x276D4, symSize: 0xBC }
  - { offsetInCU: 0x3897, offset: 0x155FDA, size: 0x8, addend: 0x0, symName: __ZN8firebase9firestore6bundle12_GLOBAL__N_119DecodeGeoPointValueERNS0_4util10JsonReaderERKN8nlohmann10basic_jsonINSt3__13mapENS8_6vectorENS8_12basic_stringIcNS8_11char_traitsIcEENS8_9allocatorIcEEEEbxydSE_NS6_14adl_serializerENSA_IhNSE_IhEEEEEE, symObjAddr: 0x4338, symBinAddr: 0x27894, symSize: 0x60 }
  - { offsetInCU: 0x4ED8, offset: 0x15761B, size: 0x8, addend: 0x0, symName: __ZN8firebase9firestore4util12StringFormatIJmmEEENSt3__112basic_stringIcNS3_11char_traitsIcEENS3_9allocatorIcEEEEPKcDpRKT_, symObjAddr: 0x993C, symBinAddr: 0x2A8C0, symSize: 0x9C }
  - { offsetInCU: 0x537E, offset: 0x157AC1, size: 0x8, addend: 0x0, symName: __ZN8firebase9firestore4util12StringFormatIJPKcEEENSt3__112basic_stringIcNS5_11char_traitsIcEENS5_9allocatorIcEEEES4_DpRKT_, symObjAddr: 0x9314, symBinAddr: 0x2A298, symSize: 0x90 }
  - { offsetInCU: 0x69EF, offset: 0x159132, size: 0x8, addend: 0x0, symName: __ZN8firebase9firestore6nanopb17MakeSharedMessageINS0_31_google_firestore_v1_ArrayValueEEENS1_13SharedMessageIT_EERKS5_, symObjAddr: 0x0, symBinAddr: 0x2358C, symSize: 0x84 }
  - { offsetInCU: 0x6D1E, offset: 0x159461, size: 0x8, addend: 0x0, symName: __ZN8firebase9firestore6nanopb17MakeSharedMessageINS0_26_google_firestore_v1_ValueEEENS1_13SharedMessageIT_EERKS5_, symObjAddr: 0x73AC, symBinAddr: 0x29638, symSize: 0x94 }
  - { offsetInCU: 0x19875, offset: 0x16BFB8, size: 0x8, addend: 0x0, symName: __ZNSt3__115allocate_sharedB8ue170006INS_12basic_stringIcNS_11char_traitsIcEENS_9allocatorIcEEEENS4_IS6_EEJRS6_EvEENS_10shared_ptrIT_EERKT0_DpOT1_, symObjAddr: 0x976C, symBinAddr: 0x2A6F0, symSize: 0x58 }
  - { offsetInCU: 0x1A941, offset: 0x16D084, size: 0x8, addend: 0x0, symName: __ZNSt3__142__uninitialized_allocator_move_if_noexceptB8ue170006INS_9allocatorINS_12basic_stringIcNS_11char_traitsIcEENS1_IcEEEEEENS_16reverse_iteratorIPS6_EESA_SA_EET2_RT_T0_T1_SB_, symObjAddr: 0x5E64, symBinAddr: 0x289E0, symSize: 0x9C }
  - { offsetInCU: 0x1AC5F, offset: 0x16D3A2, size: 0x8, addend: 0x0, symName: __ZNSt3__142__uninitialized_allocator_move_if_noexceptB8ue170006INS_9allocatorIN8firebase9firestore4core7OrderByEEENS_16reverse_iteratorIPS5_EES9_S9_EET2_RT_T0_T1_SA_, symObjAddr: 0x61F4, symBinAddr: 0x28D28, symSize: 0xB0 }
  - { offsetInCU: 0x1ACB9, offset: 0x16D3FC, size: 0x8, addend: 0x0, symName: __ZNSt3__142__uninitialized_allocator_move_if_noexceptB8ue170006INS_9allocatorIN8firebase9firestore4core7OrderByEEENS_16reverse_iteratorIPS5_EES9_S9_EET2_RT_T0_T1_SA_, symObjAddr: 0x61F4, symBinAddr: 0x28D28, symSize: 0xB0 }
  - { offsetInCU: 0x1B6C6, offset: 0x16DE09, size: 0x8, addend: 0x0, symName: __ZNSt3__117__call_once_proxyB8ue170006INS_5tupleIJOZN8firebase9firestore4util18ThreadSafeMemoizerINS_6vectorINS3_4core7OrderByENS_9allocatorIS8_EEEEED1EvEUlvE_EEEEEvPv, symObjAddr: 0x6880, symBinAddr: 0x293B4, symSize: 0x4 }
  - { offsetInCU: 0x1B77D, offset: 0x16DEC0, size: 0x8, addend: 0x0, symName: __ZNSt3__117__call_once_proxyB8ue170006INS_5tupleIJOZN8firebase9firestore4util18ThreadSafeMemoizerINS3_4core6TargetEED1EvEUlvE_EEEEEvPv, symObjAddr: 0x6994, symBinAddr: 0x294C8, symSize: 0x4 }
  - { offsetInCU: 0x1D2D7, offset: 0x16FA1A, size: 0x8, addend: 0x0, symName: __ZNSt3__135__uninitialized_allocator_copy_implB8ue170006INS_9allocatorINS_12basic_stringIcNS_11char_traitsIcEENS1_IcEEEEEEPKS6_S9_PS6_EET2_RT_T0_T1_SB_, symObjAddr: 0x9AA0, symBinAddr: 0x2AA24, symSize: 0xBC }
  - { offsetInCU: 0x20EBD, offset: 0x173600, size: 0x8, addend: 0x0, symName: __ZN8nlohmann6detail9from_jsonINS_10basic_jsonINSt3__13mapENS3_6vectorENS3_12basic_stringIcNS3_11char_traitsIcEENS3_9allocatorIcEEEEbxydS9_NS_14adl_serializerENS5_IhNS9_IhEEEEEEiLi0EEEvRKT_RT0_, symObjAddr: 0x63A0, symBinAddr: 0x28ED4, symSize: 0x150 }
  - { offsetInCU: 0x21245, offset: 0x173988, size: 0x8, addend: 0x0, symName: __ZN8nlohmann6detail9from_jsonINS_10basic_jsonINSt3__13mapENS3_6vectorENS3_12basic_stringIcNS3_11char_traitsIcEENS3_9allocatorIcEEEEbxydS9_NS_14adl_serializerENS5_IhNS9_IhEEEEEEEEvRKT_RNSG_9boolean_tE, symObjAddr: 0xA900, symBinAddr: 0x2AD98, symSize: 0x120 }
  - { offsetInCU: 0x215BD, offset: 0x173D00, size: 0x8, addend: 0x0, symName: __ZN8nlohmann6detail13int_to_stringINSt3__112basic_stringIcNS2_11char_traitsIcEENS2_9allocatorIcEEEEEEvRT_m, symObjAddr: 0xB15C, symBinAddr: 0x2B35C, symSize: 0x50 }
  - { offsetInCU: 0x21750, offset: 0x173E93, size: 0x8, addend: 0x0, symName: __ZN8nlohmann6detail9from_jsonINS_10basic_jsonINSt3__13mapENS3_6vectorENS3_12basic_stringIcNS3_11char_traitsIcEENS3_9allocatorIcEEEEbxydS9_NS_14adl_serializerENS5_IhNS9_IhEEEEEEEEvRKT_RNSG_8string_tE, symObjAddr: 0xB3E0, symBinAddr: 0x2B5E0, symSize: 0x124 }
  - { offsetInCU: 0x21B39, offset: 0x17427C, size: 0x8, addend: 0x0, symName: __ZN8nlohmann6detail20get_arithmetic_valueINS_10basic_jsonINSt3__13mapENS3_6vectorENS3_12basic_stringIcNS3_11char_traitsIcEENS3_9allocatorIcEEEEbxydS9_NS_14adl_serializerENS5_IhNS9_IhEEEEEExLi0EEEvRKT_RT0_, symObjAddr: 0x7A54, symBinAddr: 0x29C88, symSize: 0x13C }
  - { offsetInCU: 0x21EC1, offset: 0x174604, size: 0x8, addend: 0x0, symName: __ZN8nlohmann6detail9from_jsonINS_10basic_jsonINSt3__13mapENS3_6vectorENS3_12basic_stringIcNS3_11char_traitsIcEENS3_9allocatorIcEEEEbxydS9_NS_14adl_serializerENS5_IhNS9_IhEEEEEEjLi0EEEvRKT_RT0_, symObjAddr: 0x93A4, symBinAddr: 0x2A328, symSize: 0x150 }
  - { offsetInCU: 0x22279, offset: 0x1749BC, size: 0x8, addend: 0x0, symName: __ZN8nlohmann6detail20get_arithmetic_valueINS_10basic_jsonINSt3__13mapENS3_6vectorENS3_12basic_stringIcNS3_11char_traitsIcEENS3_9allocatorIcEEEEbxydS9_NS_14adl_serializerENS5_IhNS9_IhEEEEEEyLi0EEEvRKT_RT0_, symObjAddr: 0x95D8, symBinAddr: 0x2A55C, symSize: 0x13C }
  - { offsetInCU: 0x24B80, offset: 0x1772C3, size: 0x8, addend: 0x0, symName: __ZNSt3__16vectorINS_12basic_stringIcNS_11char_traitsIcEENS_9allocatorIcEEEENS4_IS6_EEE26__swap_out_circular_bufferERNS_14__split_bufferIS6_RS7_EE, symObjAddr: 0x5DF0, symBinAddr: 0x2896C, symSize: 0x74 }
  - { offsetInCU: 0x24CB3, offset: 0x1773F6, size: 0x8, addend: 0x0, symName: __ZNSt3__16vectorIN8firebase9firestore4core7OrderByENS_9allocatorIS4_EEE26__swap_out_circular_bufferERNS_14__split_bufferIS4_RS6_EE, symObjAddr: 0x6138, symBinAddr: 0x28CB4, symSize: 0x74 }
  - { offsetInCU: 0x24EA1, offset: 0x1775E4, size: 0x8, addend: 0x0, symName: __ZN8firebase9firestore4util18ThreadSafeMemoizerINSt3__16vectorINS0_4core7OrderByENS3_9allocatorIS6_EEEEED2Ev, symObjAddr: 0x6814, symBinAddr: 0x29348, symSize: 0x6C }
  - { offsetInCU: 0x2535C, offset: 0x177A9F, size: 0x8, addend: 0x0, symName: __ZN8firebase9firestore4util18ThreadSafeMemoizerINS0_4core6TargetEED2Ev, symObjAddr: 0x68C8, symBinAddr: 0x293FC, symSize: 0xCC }
  - { offsetInCU: 0x27F4F, offset: 0x17A692, size: 0x8, addend: 0x0, symName: __ZN8firebase9firestore6nanopb7MessageINS0_31_google_firestore_v1_ArrayValueEED2Ev, symObjAddr: 0xAB94, symBinAddr: 0x2AFB0, symSize: 0x3C }
  - { offsetInCU: 0x28344, offset: 0x17AA87, size: 0x8, addend: 0x0, symName: __ZNK8firebase9firestore6bundle16BundleSerializer20DecodeBundleMetadataERNS0_4util10JsonReaderERKN8nlohmann10basic_jsonINSt3__13mapENS8_6vectorENS8_12basic_stringIcNS8_11char_traitsIcEENS8_9allocatorIcEEEEbxydSE_NS6_14adl_serializerENSA_IhNSE_IhEEEEEE, symObjAddr: 0x84, symBinAddr: 0x23610, symSize: 0x13C }
  - { offsetInCU: 0x2885C, offset: 0x17AF9F, size: 0x8, addend: 0x0, symName: __ZN8firebase9firestore4util10JsonReader11RequiredIntIjEET_PKcRKN8nlohmann10basic_jsonINSt3__13mapENS9_6vectorENS9_12basic_stringIcNS9_11char_traitsIcEENS9_9allocatorIcEEEEbxydSF_NS7_14adl_serializerENSB_IhNSF_IhEEEEEE, symObjAddr: 0x1C0, symBinAddr: 0x2374C, symSize: 0xC8 }
  - { offsetInCU: 0x28C47, offset: 0x17B38A, size: 0x8, addend: 0x0, symName: __ZN8firebase9firestore4util10JsonReader11OptionalIntIjEET_PKcRKN8nlohmann10basic_jsonINSt3__13mapENS9_6vectorENS9_12basic_stringIcNS9_11char_traitsIcEENS9_9allocatorIcEEEEbxydSF_NS7_14adl_serializerENSB_IhNSF_IhEEEEEES4_, symObjAddr: 0x2B8, symBinAddr: 0x23844, symSize: 0xC0 }
  - { offsetInCU: 0x29027, offset: 0x17B76A, size: 0x8, addend: 0x0, symName: __ZN8firebase9firestore4util10JsonReader11OptionalIntIyEET_PKcRKN8nlohmann10basic_jsonINSt3__13mapENS9_6vectorENS9_12basic_stringIcNS9_11char_traitsIcEENS9_9allocatorIcEEEEbxydSF_NS7_14adl_serializerENSB_IhNSF_IhEEEEEES4_, symObjAddr: 0x378, symBinAddr: 0x23904, symSize: 0xC0 }
  - { offsetInCU: 0x294F0, offset: 0x17BC33, size: 0x8, addend: 0x0, symName: __ZNSt3__16__treeINS_12__value_typeINS_12basic_stringIcNS_11char_traitsIcEENS_9allocatorIcEEEEN8nlohmann10basic_jsonINS_3mapENS_6vectorES7_bxydS5_NS8_14adl_serializerENSB_IhNS5_IhEEEEEEEENS_19__map_value_compareIS7_SG_NS_4lessIvEELb1EEENS5_ISG_EEE4findIPKcEENS_15__tree_iteratorISG_PNS_11__tree_nodeISG_PvEElEERKT_, symObjAddr: 0x79D8, symBinAddr: 0x29C0C, symSize: 0x7C }
  - { offsetInCU: 0x2988A, offset: 0x17BFCD, size: 0x8, addend: 0x0, symName: __ZNK8nlohmann10basic_jsonINSt3__13mapENS1_6vectorENS1_12basic_stringIcNS1_11char_traitsIcEENS1_9allocatorIcEEEEbxydS7_NS_14adl_serializerENS3_IhNS7_IhEEEEE2atERKS9_, symObjAddr: 0x187C, symBinAddr: 0x24E08, symSize: 0x218 }
  - { offsetInCU: 0x29EF2, offset: 0x17C635, size: 0x8, addend: 0x0, symName: __ZN8firebase9firestore4util10JsonReader8ParseIntIjEET_RKN8nlohmann10basic_jsonINSt3__13mapENS7_6vectorENS7_12basic_stringIcNS7_11char_traitsIcEENS7_9allocatorIcEEEEbxydSD_NS5_14adl_serializerENS9_IhNSD_IhEEEEEERS2_, symObjAddr: 0x9230, symBinAddr: 0x2A1B4, symSize: 0xE4 }
  - { offsetInCU: 0x2A3A0, offset: 0x17CAE3, size: 0x8, addend: 0x0, symName: __ZN8firebase9firestore4util11ReadContext4FailIJPKcEEEvS5_DpRKT_, symObjAddr: 0x91C4, symBinAddr: 0x2A148, symSize: 0x6C }
  - { offsetInCU: 0x2A672, offset: 0x17CDB5, size: 0x8, addend: 0x0, symName: __ZN8firebase9firestore4util10JsonReader8ParseIntIyEET_RKN8nlohmann10basic_jsonINSt3__13mapENS7_6vectorENS7_12basic_stringIcNS7_11char_traitsIcEENS7_9allocatorIcEEEEbxydSD_NS5_14adl_serializerENS9_IhNSD_IhEEEEEERS2_, symObjAddr: 0x94F4, symBinAddr: 0x2A478, symSize: 0xE4 }
  - { offsetInCU: 0x2AF9D, offset: 0x17D6E0, size: 0x8, addend: 0x0, symName: __ZNK8firebase9firestore6bundle16BundleSerializer16DecodeNamedQueryERNS0_4util10JsonReaderERKN8nlohmann10basic_jsonINSt3__13mapENS8_6vectorENS8_12basic_stringIcNS8_11char_traitsIcEENS8_9allocatorIcEEEEbxydSE_NS6_14adl_serializerENSA_IhNSE_IhEEEEEE, symObjAddr: 0x438, symBinAddr: 0x239C4, symSize: 0x214 }
  - { offsetInCU: 0x2BB17, offset: 0x17E25A, size: 0x8, addend: 0x0, symName: __ZNK8firebase9firestore6bundle16BundleSerializer18DecodeBundledQueryERNS0_4util10JsonReaderERKN8nlohmann10basic_jsonINSt3__13mapENS8_6vectorENS8_12basic_stringIcNS8_11char_traitsIcEENS8_9allocatorIcEEEEbxydSE_NS6_14adl_serializerENSA_IhNSE_IhEEEEEE, symObjAddr: 0x64C, symBinAddr: 0x23BD8, symSize: 0x1040 }
  - { offsetInCU: 0x31F14, offset: 0x184657, size: 0x8, addend: 0x0, symName: __ZN8firebase9firestore6bundle10NamedQueryC2ENSt3__112basic_stringIcNS3_11char_traitsIcEENS3_9allocatorIcEEEENS1_12BundledQueryENS0_5model15SnapshotVersionE, symObjAddr: 0x5040, symBinAddr: 0x284B0, symSize: 0x118 }
  - { offsetInCU: 0x328F7, offset: 0x18503A, size: 0x8, addend: 0x0, symName: __ZN8firebase9firestore6bundle12BundledQueryD1Ev, symObjAddr: 0x168C, symBinAddr: 0x24C18, symSize: 0x94 }
  - { offsetInCU: 0x33E9A, offset: 0x1865DD, size: 0x8, addend: 0x0, symName: __ZNSt3__16__treeINS_12__value_typeINS_12basic_stringIcNS_11char_traitsIcEENS_9allocatorIcEEEEN8nlohmann10basic_jsonINS_3mapENS_6vectorES7_bxydS5_NS8_14adl_serializerENSB_IhNS5_IhEEEEEEEENS_19__map_value_compareIS7_SG_NS_4lessIvEELb1EEENS5_ISG_EEE4findIA7_cEENS_15__tree_iteratorISG_PNS_11__tree_nodeISG_PvEElEERKT_, symObjAddr: 0x8CDC, symBinAddr: 0x2A00C, symSize: 0x7C }
  - { offsetInCU: 0x3401C, offset: 0x18675F, size: 0x8, addend: 0x0, symName: __ZNSt3__16__treeINS_12__value_typeINS_12basic_stringIcNS_11char_traitsIcEENS_9allocatorIcEEEEN8nlohmann10basic_jsonINS_3mapENS_6vectorES7_bxydS5_NS8_14adl_serializerENSB_IhNS5_IhEEEEEEEENS_19__map_value_compareIS7_SG_NS_4lessIvEELb1EEENS5_ISG_EEE4findIA5_cEENS_15__tree_iteratorISG_PNS_11__tree_nodeISG_PvEElEERKT_, symObjAddr: 0x5230, symBinAddr: 0x285C8, symSize: 0x7C }
  - { offsetInCU: 0x3419E, offset: 0x1868E1, size: 0x8, addend: 0x0, symName: __ZN8firebase9firestore4util11ReadContext4FailIJEEEvPKcDpRKT_, symObjAddr: 0x2078, symBinAddr: 0x25604, symSize: 0x70 }
  - { offsetInCU: 0x3447C, offset: 0x186BBF, size: 0x8, addend: 0x0, symName: __ZNK8firebase9firestore6bundle16BundleSerializer10DecodeNameERNS0_4util10JsonReaderERKN8nlohmann10basic_jsonINSt3__13mapENS8_6vectorENS8_12basic_stringIcNS8_11char_traitsIcEENS8_9allocatorIcEEEEbxydSE_NS6_14adl_serializerENSA_IhNSE_IhEEEEEE, symObjAddr: 0x1720, symBinAddr: 0x24CAC, symSize: 0x15C }
  - { offsetInCU: 0x34DB7, offset: 0x1874FA, size: 0x8, addend: 0x0, symName: __ZN8nlohmann10basic_jsonINSt3__13mapENS1_6vectorENS1_12basic_stringIcNS1_11char_traitsIcEENS1_9allocatorIcEEEEbxydS7_NS_14adl_serializerENS3_IhNS7_IhEEEEE12get_ref_implIRKNS3_ISD_NS7_ISD_EEEEKSD_EET_RT0_, symObjAddr: 0x53A0, symBinAddr: 0x28738, symSize: 0x120 }
  - { offsetInCU: 0x35172, offset: 0x1878B5, size: 0x8, addend: 0x0, symName: __ZNK8firebase9firestore5model4impl8BasePathINS1_12ResourcePathEE6AppendERKNSt3__112basic_stringIcNS6_11char_traitsIcEENS6_9allocatorIcEEEE, symObjAddr: 0x52AC, symBinAddr: 0x28644, symSize: 0xF4 }
  - { offsetInCU: 0x35561, offset: 0x187CA4, size: 0x8, addend: 0x0, symName: __ZNSt3__16vectorINS_12basic_stringIcNS_11char_traitsIcEENS_9allocatorIcEEEENS4_IS6_EEE13__vdeallocateEv, symObjAddr: 0x6000, symBinAddr: 0x28B7C, symSize: 0x38 }
  - { offsetInCU: 0x35677, offset: 0x187DBA, size: 0x8, addend: 0x0, symName: __ZNK8firebase9firestore6bundle16BundleSerializer11DecodeWhereERNS0_4util10JsonReaderERKN8nlohmann10basic_jsonINSt3__13mapENS8_6vectorENS8_12basic_stringIcNS8_11char_traitsIcEENS8_9allocatorIcEEEEbxydSE_NS6_14adl_serializerENSA_IhNSE_IhEEEEEE, symObjAddr: 0x1A94, symBinAddr: 0x25020, symSize: 0x2F4 }
  - { offsetInCU: 0x36429, offset: 0x188B6C, size: 0x8, addend: 0x0, symName: __ZNSt3__16vectorIN8firebase9firestore4core7OrderByENS_9allocatorIS4_EEE24__emplace_back_slow_pathIJNS2_5model9FieldPathERNS3_9DirectionEEEEvDpOT_, symObjAddr: 0x6038, symBinAddr: 0x28BB4, symSize: 0x100 }
  - { offsetInCU: 0x3696F, offset: 0x1890B2, size: 0x8, addend: 0x0, symName: __ZN8firebase9firestore4util11ReadContext4FailENSt3__112basic_stringIcNS3_11char_traitsIcEENS3_9allocatorIcEEEE, symObjAddr: 0x20E8, symBinAddr: 0x25674, symSize: 0xA4 }
  - { offsetInCU: 0x36E73, offset: 0x1895B6, size: 0x8, addend: 0x0, symName: __ZNK8firebase9firestore6bundle16BundleSerializer18DecodeStartAtBoundERNS0_4util10JsonReaderERKN8nlohmann10basic_jsonINSt3__13mapENS8_6vectorENS8_12basic_stringIcNS8_11char_traitsIcEENS8_9allocatorIcEEEEbxydSE_NS6_14adl_serializerENSA_IhNSE_IhEEEEEE, symObjAddr: 0x1D88, symBinAddr: 0x25314, symSize: 0x174 }
  - { offsetInCU: 0x37472, offset: 0x189BB5, size: 0x8, addend: 0x0, symName: __ZN4absl12lts_2022062317optional_internal18optional_data_baseIN8firebase9firestore4core5BoundEE6assignIS6_EEvOT_, symObjAddr: 0x9884, symBinAddr: 0x2A808, symSize: 0x54 }
  - { offsetInCU: 0x375D7, offset: 0x189D1A, size: 0x8, addend: 0x0, symName: __ZNK8firebase9firestore6bundle16BundleSerializer16DecodeEndAtBoundERNS0_4util10JsonReaderERKN8nlohmann10basic_jsonINSt3__13mapENS8_6vectorENS8_12basic_stringIcNS8_11char_traitsIcEENS8_9allocatorIcEEEEbxydSE_NS6_14adl_serializerENSA_IhNSE_IhEEEEEE, symObjAddr: 0x1EFC, symBinAddr: 0x25488, symSize: 0x17C }
  - { offsetInCU: 0x37BD6, offset: 0x18A319, size: 0x8, addend: 0x0, symName: __ZNSt3__16__treeINS_12__value_typeINS_12basic_stringIcNS_11char_traitsIcEENS_9allocatorIcEEEEN8nlohmann10basic_jsonINS_3mapENS_6vectorES7_bxydS5_NS8_14adl_serializerENSB_IhNS5_IhEEEEEEEENS_19__map_value_compareIS7_SG_NS_4lessIvEELb1EEENS5_ISG_EEE4findIA6_cEENS_15__tree_iteratorISG_PNS_11__tree_nodeISG_PvEElEERKT_, symObjAddr: 0x8E68, symBinAddr: 0x2A0CC, symSize: 0x7C }
  - { offsetInCU: 0x37D58, offset: 0x18A49B, size: 0x8, addend: 0x0, symName: __ZN8firebase9firestore4core5QueryC2ENS0_5model12ResourcePathENSt3__110shared_ptrIKNS5_12basic_stringIcNS5_11char_traitsIcEENS5_9allocatorIcEEEEEENS5_6vectorINS1_6FilterENSA_ISG_EEEENSF_INS1_7OrderByENSA_ISJ_EEEEiNS1_9LimitTypeEN4absl12lts_202206238optionalINS1_5BoundEEESR_, symObjAddr: 0x64F0, symBinAddr: 0x29024, symSize: 0x2E0 }
  - { offsetInCU: 0x3971D, offset: 0x18BE60, size: 0x8, addend: 0x0, symName: __ZN8firebase9firestore6bundle12BundledQueryC2ENS0_4core6TargetENS3_9LimitTypeE, symObjAddr: 0x7068, symBinAddr: 0x294CC, symSize: 0xE8 }
  - { offsetInCU: 0x39762, offset: 0x18BEA5, size: 0x8, addend: 0x0, symName: __ZN8firebase9firestore6bundle12BundledQueryC2ENS0_4core6TargetENS3_9LimitTypeE, symObjAddr: 0x7068, symBinAddr: 0x294CC, symSize: 0xE8 }
  - { offsetInCU: 0x39784, offset: 0x18BEC7, size: 0x8, addend: 0x0, symName: __ZN8firebase9firestore6bundle12BundledQueryC2ENS0_4core6TargetENS3_9LimitTypeE, symObjAddr: 0x7068, symBinAddr: 0x294CC, symSize: 0xE8 }
  - { offsetInCU: 0x397A6, offset: 0x18BEE9, size: 0x8, addend: 0x0, symName: __ZN8firebase9firestore6bundle12BundledQueryC2ENS0_4core6TargetENS3_9LimitTypeE, symObjAddr: 0x7068, symBinAddr: 0x294CC, symSize: 0xE8 }
  - { offsetInCU: 0x397C8, offset: 0x18BF0B, size: 0x8, addend: 0x0, symName: __ZN8firebase9firestore6bundle12BundledQueryC2ENS0_4core6TargetENS3_9LimitTypeE, symObjAddr: 0x7068, symBinAddr: 0x294CC, symSize: 0xE8 }
  - { offsetInCU: 0x397EA, offset: 0x18BF2D, size: 0x8, addend: 0x0, symName: __ZN8firebase9firestore6bundle12BundledQueryC2ENS0_4core6TargetENS3_9LimitTypeE, symObjAddr: 0x7068, symBinAddr: 0x294CC, symSize: 0xE8 }
  - { offsetInCU: 0x3980C, offset: 0x18BF4F, size: 0x8, addend: 0x0, symName: __ZN8firebase9firestore6bundle12BundledQueryC2ENS0_4core6TargetENS3_9LimitTypeE, symObjAddr: 0x7068, symBinAddr: 0x294CC, symSize: 0xE8 }
  - { offsetInCU: 0x3982E, offset: 0x18BF71, size: 0x8, addend: 0x0, symName: __ZN8firebase9firestore6bundle12BundledQueryC2ENS0_4core6TargetENS3_9LimitTypeE, symObjAddr: 0x7068, symBinAddr: 0x294CC, symSize: 0xE8 }
  - { offsetInCU: 0x3A158, offset: 0x18C89B, size: 0x8, addend: 0x0, symName: __ZNSt3__110shared_ptrINS_12basic_stringIcNS_11char_traitsIcEENS_9allocatorIcEEEEED2B8ue170006Ev, symObjAddr: 0x9714, symBinAddr: 0x2A698, symSize: 0x58 }
  - { offsetInCU: 0x3A29C, offset: 0x18C9DF, size: 0x8, addend: 0x0, symName: __ZN8nlohmann10basic_jsonINSt3__13mapENS1_6vectorENS1_12basic_stringIcNS1_11char_traitsIcEENS1_9allocatorIcEEEEbxydS7_NS_14adl_serializerENS3_IhNS7_IhEEEEE12get_ref_implIRKS9_KSD_EET_RT0_, symObjAddr: 0x8BBC, symBinAddr: 0x29EEC, symSize: 0x120 }
  - { offsetInCU: 0x3A657, offset: 0x18CD9A, size: 0x8, addend: 0x0, symName: __ZNK8firebase9firestore5model4impl8BasePathINS1_12ResourcePathEE8PopFirstEm, symObjAddr: 0x218C, symBinAddr: 0x25718, symSize: 0xC4 }
  - { offsetInCU: 0x3B6A5, offset: 0x18DDE8, size: 0x8, addend: 0x0, symName: __ZNSt3__16__treeINS_12__value_typeINS_12basic_stringIcNS_11char_traitsIcEENS_9allocatorIcEEEEN8nlohmann10basic_jsonINS_3mapENS_6vectorES7_bxydS5_NS8_14adl_serializerENSB_IhNS5_IhEEEEEEEENS_19__map_value_compareIS7_SG_NS_4lessIvEELb1EEENS5_ISG_EEE4findIA16_cEENS_15__tree_iteratorISG_PNS_11__tree_nodeISG_PvEElEERKT_, symObjAddr: 0x9B5C, symBinAddr: 0x2AAE0, symSize: 0x7C }
  - { offsetInCU: 0x3B827, offset: 0x18DF6A, size: 0x8, addend: 0x0, symName: __ZNK8firebase9firestore6bundle16BundleSerializer21DecodeCompositeFilterERNS0_4util10JsonReaderERKN8nlohmann10basic_jsonINSt3__13mapENS8_6vectorENS8_12basic_stringIcNS8_11char_traitsIcEENS8_9allocatorIcEEEEbxydSE_NS6_14adl_serializerENSA_IhNSE_IhEEEEEE, symObjAddr: 0x2250, symBinAddr: 0x257DC, symSize: 0x2E4 }
  - { offsetInCU: 0x3C263, offset: 0x18E9A6, size: 0x8, addend: 0x0, symName: __ZNSt3__16__treeINS_12__value_typeINS_12basic_stringIcNS_11char_traitsIcEENS_9allocatorIcEEEEN8nlohmann10basic_jsonINS_3mapENS_6vectorES7_bxydS5_NS8_14adl_serializerENSB_IhNS5_IhEEEEEEEENS_19__map_value_compareIS7_SG_NS_4lessIvEELb1EEENS5_ISG_EEE4findIA12_cEENS_15__tree_iteratorISG_PNS_11__tree_nodeISG_PvEElEERKT_, symObjAddr: 0x9BD8, symBinAddr: 0x2AB5C, symSize: 0x7C }
  - { offsetInCU: 0x3C3E5, offset: 0x18EB28, size: 0x8, addend: 0x0, symName: __ZNK8firebase9firestore6bundle16BundleSerializer17DecodeFieldFilterERNS0_4util10JsonReaderERKN8nlohmann10basic_jsonINSt3__13mapENS8_6vectorENS8_12basic_stringIcNS8_11char_traitsIcEENS8_9allocatorIcEEEEbxydSE_NS6_14adl_serializerENSA_IhNSE_IhEEEEEE, symObjAddr: 0x2534, symBinAddr: 0x25AC0, symSize: 0x78C }
  - { offsetInCU: 0x3D869, offset: 0x18FFAC, size: 0x8, addend: 0x0, symName: __ZNSt3__16__treeINS_12__value_typeINS_12basic_stringIcNS_11char_traitsIcEENS_9allocatorIcEEEEN8nlohmann10basic_jsonINS_3mapENS_6vectorES7_bxydS5_NS8_14adl_serializerENSB_IhNS5_IhEEEEEEEENS_19__map_value_compareIS7_SG_NS_4lessIvEELb1EEENS5_ISG_EEE4findIA8_cEENS_15__tree_iteratorISG_PNS_11__tree_nodeISG_PvEElEERKT_, symObjAddr: 0x9CA0, symBinAddr: 0x2AC24, symSize: 0x7C }
  - { offsetInCU: 0x3D9EB, offset: 0x19012E, size: 0x8, addend: 0x0, symName: __ZNK8firebase9firestore6bundle16BundleSerializer17DecodeBoundFieldsERNS0_4util10JsonReaderERKN8nlohmann10basic_jsonINSt3__13mapENS8_6vectorENS8_12basic_stringIcNS8_11char_traitsIcEENS8_9allocatorIcEEEEbxydSE_NS6_14adl_serializerENSA_IhNSE_IhEEEEEE, symObjAddr: 0x3C80, symBinAddr: 0x271DC, symSize: 0x224 }
  - { offsetInCU: 0x3E587, offset: 0x190CCA, size: 0x8, addend: 0x0, symName: __ZNSt3__16vectorINS_12basic_stringIcNS_11char_traitsIcEENS_9allocatorIcEEEENS4_IS6_EEE16__init_with_sizeB8ue170006INS_11__wrap_iterIPKS6_EESD_EEvT_T0_m, symObjAddr: 0x9A1C, symBinAddr: 0x2A9A0, symSize: 0x84 }
  - { offsetInCU: 0x3E9DB, offset: 0x19111E, size: 0x8, addend: 0x0, symName: __ZNSt3__16vectorIN8firebase9firestore4core6FilterENS_9allocatorIS4_EEE9push_backB8ue170006EOS4_, symObjAddr: 0x3B1C, symBinAddr: 0x270A8, symSize: 0x134 }
  - { offsetInCU: 0x3FC9C, offset: 0x1923DF, size: 0x8, addend: 0x0, symName: __ZNK8firebase9firestore6bundle16BundleSerializer11DecodeValueERNS0_4util10JsonReaderERKN8nlohmann10basic_jsonINSt3__13mapENS8_6vectorENS8_12basic_stringIcNS8_11char_traitsIcEENS8_9allocatorIcEEEEbxydSE_NS6_14adl_serializerENSA_IhNSE_IhEEEEEE, symObjAddr: 0x3420, symBinAddr: 0x269AC, symSize: 0x628 }
  - { offsetInCU: 0x412E3, offset: 0x193A26, size: 0x8, addend: 0x0, symName: __ZN8firebase9firestore4util11ReadContext10set_statusENS1_6StatusE, symObjAddr: 0x726C, symBinAddr: 0x295B4, symSize: 0x3C }
  - { offsetInCU: 0x4138C, offset: 0x193ACF, size: 0x8, addend: 0x0, symName: __ZN8firebase9firestore4util17internal_statusor12StatusOrDataINS0_5model9FieldPathEED2Ev, symObjAddr: 0x7364, symBinAddr: 0x295F0, symSize: 0x48 }
  - { offsetInCU: 0x4194C, offset: 0x19408F, size: 0x8, addend: 0x0, symName: __ZNSt3__16__treeINS_12__value_typeINS_12basic_stringIcNS_11char_traitsIcEENS_9allocatorIcEEEEN8nlohmann10basic_jsonINS_3mapENS_6vectorES7_bxydS5_NS8_14adl_serializerENSB_IhNS5_IhEEEEEEEENS_19__map_value_compareIS7_SG_NS_4lessIvEELb1EEENS5_ISG_EEE4findIA10_cEENS_15__tree_iteratorISG_PNS_11__tree_nodeISG_PvEElEERKT_, symObjAddr: 0x9F1C, symBinAddr: 0x2ACA0, symSize: 0x7C }
  - { offsetInCU: 0x41ACE, offset: 0x194211, size: 0x8, addend: 0x0, symName: __ZNSt3__16__treeINS_12__value_typeINS_12basic_stringIcNS_11char_traitsIcEENS_9allocatorIcEEEEN8nlohmann10basic_jsonINS_3mapENS_6vectorES7_bxydS5_NS8_14adl_serializerENSB_IhNS5_IhEEEEEEEENS_19__map_value_compareIS7_SG_NS_4lessIvEELb1EEENS5_ISG_EEE4findIA13_cEENS_15__tree_iteratorISG_PNS_11__tree_nodeISG_PvEElEERKT_, symObjAddr: 0x9F98, symBinAddr: 0x2AD1C, symSize: 0x7C }
  - { offsetInCU: 0x41D53, offset: 0x194496, size: 0x8, addend: 0x0, symName: __ZN8firebase9firestore4util10JsonReader11RequiredIntIxEET_PKcRKN8nlohmann10basic_jsonINSt3__13mapENS9_6vectorENS9_12basic_stringIcNS9_11char_traitsIcEENS9_9allocatorIcEEEEbxydSF_NS7_14adl_serializerENSB_IhNSF_IhEEEEEE, symObjAddr: 0x3EA4, symBinAddr: 0x27400, symSize: 0xC8 }
  - { offsetInCU: 0x4213E, offset: 0x194881, size: 0x8, addend: 0x0, symName: __ZNSt3__16__treeINS_12__value_typeINS_12basic_stringIcNS_11char_traitsIcEENS_9allocatorIcEEEEN8nlohmann10basic_jsonINS_3mapENS_6vectorES7_bxydS5_NS8_14adl_serializerENSB_IhNS5_IhEEEEEEEENS_19__map_value_compareIS7_SG_NS_4lessIvEELb1EEENS5_ISG_EEE4findIA15_cEENS_15__tree_iteratorISG_PNS_11__tree_nodeISG_PvEElEERKT_, symObjAddr: 0xAA20, symBinAddr: 0x2AEB8, symSize: 0x7C }
  - { offsetInCU: 0x423A4, offset: 0x194AE7, size: 0x8, addend: 0x0, symName: __ZNK8firebase9firestore6bundle16BundleSerializer20DecodeReferenceValueERNS0_4util10JsonReaderERKNSt3__112basic_stringIcNS6_11char_traitsIcEENS6_9allocatorIcEEEE, symObjAddr: 0x4234, symBinAddr: 0x27790, symSize: 0x104 }
  - { offsetInCU: 0x428CE, offset: 0x195011, size: 0x8, addend: 0x0, symName: __ZNSt3__16__treeINS_12__value_typeINS_12basic_stringIcNS_11char_traitsIcEENS_9allocatorIcEEEEN8nlohmann10basic_jsonINS_3mapENS_6vectorES7_bxydS5_NS8_14adl_serializerENSB_IhNS5_IhEEEEEEEENS_19__map_value_compareIS7_SG_NS_4lessIvEELb1EEENS5_ISG_EEE4findIA14_cEENS_15__tree_iteratorISG_PNS_11__tree_nodeISG_PvEElEERKT_, symObjAddr: 0xAB18, symBinAddr: 0x2AF34, symSize: 0x7C }
  - { offsetInCU: 0x42A50, offset: 0x195193, size: 0x8, addend: 0x0, symName: __ZNK8firebase9firestore6bundle16BundleSerializer16DecodeArrayValueERNS0_4util10JsonReaderERKN8nlohmann10basic_jsonINSt3__13mapENS8_6vectorENS8_12basic_stringIcNS8_11char_traitsIcEENS8_9allocatorIcEEEEbxydSE_NS6_14adl_serializerENSA_IhNSE_IhEEEEEE, symObjAddr: 0x4398, symBinAddr: 0x278F4, symSize: 0x144 }
  - { offsetInCU: 0x42FAE, offset: 0x1956F1, size: 0x8, addend: 0x0, symName: __ZNK8firebase9firestore6bundle16BundleSerializer14DecodeMapValueERNS0_4util10JsonReaderERKN8nlohmann10basic_jsonINSt3__13mapENS8_6vectorENS8_12basic_stringIcNS8_11char_traitsIcEENS8_9allocatorIcEEEEbxydSE_NS6_14adl_serializerENSA_IhNSE_IhEEEEEE, symObjAddr: 0x44DC, symBinAddr: 0x27A38, symSize: 0x280 }
  - { offsetInCU: 0x43CE8, offset: 0x19642B, size: 0x8, addend: 0x0, symName: __ZN8firebase9firestore6nanopb7MessageINS0_29_google_firestore_v1_MapValueEED2Ev, symObjAddr: 0xAC4C, symBinAddr: 0x2AFEC, symSize: 0x3C }
  - { offsetInCU: 0x44060, offset: 0x1967A3, size: 0x8, addend: 0x0, symName: __ZNSt3__114__split_bufferIN8firebase9firestore4core6FilterERNS_9allocatorIS4_EEED2Ev, symObjAddr: 0x9C54, symBinAddr: 0x2ABD8, symSize: 0x4C }
  - { offsetInCU: 0x44551, offset: 0x196C94, size: 0x8, addend: 0x0, symName: __ZN8firebase9firestore4util10JsonReader8ParseIntIxEET_RKN8nlohmann10basic_jsonINSt3__13mapENS7_6vectorENS7_12basic_stringIcNS7_11char_traitsIcEENS7_9allocatorIcEEEEbxydSD_NS5_14adl_serializerENS9_IhNSD_IhEEEEEERS2_, symObjAddr: 0x78F4, symBinAddr: 0x29B28, symSize: 0xE4 }
  - { offsetInCU: 0x44C1C, offset: 0x19735F, size: 0x8, addend: 0x0, symName: __ZN8firebase9firestore4util8StatusOrINS_9TimestampEEC2Ev, symObjAddr: 0x76F4, symBinAddr: 0x29928, symSize: 0xA0 }
  - { offsetInCU: 0x44FF3, offset: 0x197736, size: 0x8, addend: 0x0, symName: __ZN8firebase9firestore4util17internal_statusor12StatusOrDataINS_9TimestampEEaSEOS5_, symObjAddr: 0x77F4, symBinAddr: 0x29A28, symSize: 0x4C }
  - { offsetInCU: 0x450C7, offset: 0x19780A, size: 0x8, addend: 0x0, symName: __ZN8firebase9firestore4util10JsonReader11OptionalIntIxEET_PKcRKN8nlohmann10basic_jsonINSt3__13mapENS9_6vectorENS9_12basic_stringIcNS9_11char_traitsIcEENS9_9allocatorIcEEEEbxydSF_NS7_14adl_serializerENSB_IhNSF_IhEEEEEES4_, symObjAddr: 0x7498, symBinAddr: 0x296CC, symSize: 0xC0 }
  - { offsetInCU: 0x454A7, offset: 0x197BEA, size: 0x8, addend: 0x0, symName: __ZN8firebase9firestore4util10JsonReader11OptionalIntIiEET_PKcRKN8nlohmann10basic_jsonINSt3__13mapENS9_6vectorENS9_12basic_stringIcNS9_11char_traitsIcEENS9_9allocatorIcEEEEbxydSF_NS7_14adl_serializerENSB_IhNSF_IhEEEEEES4_, symObjAddr: 0x7558, symBinAddr: 0x2978C, symSize: 0xC0 }
  - { offsetInCU: 0x45887, offset: 0x197FCA, size: 0x8, addend: 0x0, symName: __ZNK8firebase9firestore4util6Status13error_messageEv, symObjAddr: 0x76D4, symBinAddr: 0x29908, symSize: 0x20 }
  - { offsetInCU: 0x458AE, offset: 0x197FF1, size: 0x8, addend: 0x0, symName: __ZNK8firebase9firestore4util6Status13error_messageEv, symObjAddr: 0x76D4, symBinAddr: 0x29908, symSize: 0x20 }
  - { offsetInCU: 0x458C9, offset: 0x19800C, size: 0x8, addend: 0x0, symName: __ZNK8firebase9firestore4util6Status13error_messageEv, symObjAddr: 0x76D4, symBinAddr: 0x29908, symSize: 0x20 }
  - { offsetInCU: 0x458EB, offset: 0x19802E, size: 0x8, addend: 0x0, symName: __ZNK8firebase9firestore4util6Status13error_messageEv, symObjAddr: 0x76D4, symBinAddr: 0x29908, symSize: 0x20 }
  - { offsetInCU: 0x45908, offset: 0x19804B, size: 0x8, addend: 0x0, symName: __ZN8firebase9firestore4util11ReadContext4FailIJNSt3__112basic_stringIcNS4_11char_traitsIcEENS4_9allocatorIcEEEEEEEvPKcDpRKT_, symObjAddr: 0x7618, symBinAddr: 0x2984C, symSize: 0xBC }
  - { offsetInCU: 0x45F41, offset: 0x198684, size: 0x8, addend: 0x0, symName: __ZN8nlohmann6detail15iteration_proxyINS0_9iter_implIKNS_10basic_jsonINSt3__13mapENS4_6vectorENS4_12basic_stringIcNS4_11char_traitsIcEENS4_9allocatorIcEEEEbxydSA_NS_14adl_serializerENS6_IhNSA_IhEEEEEEEEE5beginEv, symObjAddr: 0x475C, symBinAddr: 0x27CB8, symSize: 0x44 }
  - { offsetInCU: 0x46038, offset: 0x19877B, size: 0x8, addend: 0x0, symName: __ZN8nlohmann6detail15iteration_proxyINS0_9iter_implIKNS_10basic_jsonINSt3__13mapENS4_6vectorENS4_12basic_stringIcNS4_11char_traitsIcEENS4_9allocatorIcEEEEbxydSA_NS_14adl_serializerENS6_IhNSA_IhEEEEEEEEE3endEv, symObjAddr: 0x47A0, symBinAddr: 0x27CFC, symSize: 0x44 }
  - { offsetInCU: 0x4612F, offset: 0x198872, size: 0x8, addend: 0x0, symName: __ZNK8nlohmann6detail9iter_implIKNS_10basic_jsonINSt3__13mapENS3_6vectorENS3_12basic_stringIcNS3_11char_traitsIcEENS3_9allocatorIcEEEEbxydS9_NS_14adl_serializerENS5_IhNS9_IhEEEEEEEeqERKSH_, symObjAddr: 0xAE34, symBinAddr: 0x2B1D4, symSize: 0x104 }
  - { offsetInCU: 0x463A8, offset: 0x198AEB, size: 0x8, addend: 0x0, symName: __ZNK8nlohmann6detail21iteration_proxy_valueINS0_9iter_implIKNS_10basic_jsonINSt3__13mapENS4_6vectorENS4_12basic_stringIcNS4_11char_traitsIcEENS4_9allocatorIcEEEEbxydSA_NS_14adl_serializerENS6_IhNSA_IhEEEEEEEEE3keyEv, symObjAddr: 0x47E4, symBinAddr: 0x27D40, symSize: 0x74 }
  - { offsetInCU: 0x46415, offset: 0x198B58, size: 0x8, addend: 0x0, symName: __ZN8nlohmann6detail21iteration_proxy_valueINS0_9iter_implIKNS_10basic_jsonINSt3__13mapENS4_6vectorENS4_12basic_stringIcNS4_11char_traitsIcEENS4_9allocatorIcEEEEbxydSA_NS_14adl_serializerENS6_IhNSA_IhEEEEEEEEED1Ev, symObjAddr: 0x4858, symBinAddr: 0x27DB4, symSize: 0x40 }
  - { offsetInCU: 0x46421, offset: 0x198B64, size: 0x8, addend: 0x0, symName: __ZNK8nlohmann6detail9iter_implIKNS_10basic_jsonINSt3__13mapENS3_6vectorENS3_12basic_stringIcNS3_11char_traitsIcEENS3_9allocatorIcEEEEbxydS9_NS_14adl_serializerENS5_IhNS9_IhEEEEEEEdeEv, symObjAddr: 0xB27C, symBinAddr: 0x2B47C, symSize: 0x164 }
  - { offsetInCU: 0x46675, offset: 0x198DB8, size: 0x8, addend: 0x0, symName: __ZN8nlohmann6detail9iter_implIKNS_10basic_jsonINSt3__13mapENS3_6vectorENS3_12basic_stringIcNS3_11char_traitsIcEENS3_9allocatorIcEEEEbxydS9_NS_14adl_serializerENS5_IhNS9_IhEEEEEEEppEv, symObjAddr: 0xB0D8, symBinAddr: 0x2B2D8, symSize: 0x84 }
  - { offsetInCU: 0x46816, offset: 0x198F59, size: 0x8, addend: 0x0, symName: __ZN8nlohmann6detail13int_to_stringINSt3__112basic_stringIcNS2_11char_traitsIcEENS2_9allocatorIcEEEEEEvRT_m, symObjAddr: 0xB15C, symBinAddr: 0x2B35C, symSize: 0x50 }
  - { offsetInCU: 0x46822, offset: 0x198F65, size: 0x8, addend: 0x0, symName: __ZN8nlohmann6detail21iteration_proxy_valueINS0_9iter_implIKNS_10basic_jsonINSt3__13mapENS4_6vectorENS4_12basic_stringIcNS4_11char_traitsIcEENS4_9allocatorIcEEEEbxydSA_NS_14adl_serializerENS6_IhNSA_IhEEEEEEEEED1Ev, symObjAddr: 0x4858, symBinAddr: 0x27DB4, symSize: 0x40 }
  - { offsetInCU: 0x46B34, offset: 0x199277, size: 0x8, addend: 0x0, symName: __ZN8nlohmann6detail9iter_implIKNS_10basic_jsonINSt3__13mapENS3_6vectorENS3_12basic_stringIcNS3_11char_traitsIcEENS3_9allocatorIcEEEEbxydS9_NS_14adl_serializerENS5_IhNS9_IhEEEEEEEC2EPSG_, symObjAddr: 0xAD10, symBinAddr: 0x2B0B0, symSize: 0x48 }
  - { offsetInCU: 0x46BAB, offset: 0x1992EE, size: 0x8, addend: 0x0, symName: __ZN8nlohmann6detail9iter_implIKNS_10basic_jsonINSt3__13mapENS3_6vectorENS3_12basic_stringIcNS3_11char_traitsIcEENS3_9allocatorIcEEEEbxydS9_NS_14adl_serializerENS5_IhNS9_IhEEEEEEE9set_beginEv, symObjAddr: 0xAC88, symBinAddr: 0x2B028, symSize: 0x88 }
  - { offsetInCU: 0x46C65, offset: 0x1993A8, size: 0x8, addend: 0x0, symName: __ZN8nlohmann6detail21iteration_proxy_valueINS0_9iter_implIKNS_10basic_jsonINSt3__13mapENS4_6vectorENS4_12basic_stringIcNS4_11char_traitsIcEENS4_9allocatorIcEEEEbxydSA_NS_14adl_serializerENS6_IhNSA_IhEEEEEEEEEC2ESI_, symObjAddr: 0xAD58, symBinAddr: 0x2B0F8, symSize: 0x60 }
  - { offsetInCU: 0x46D7C, offset: 0x1994BF, size: 0x8, addend: 0x0, symName: __ZN8nlohmann6detail9iter_implIKNS_10basic_jsonINSt3__13mapENS3_6vectorENS3_12basic_stringIcNS3_11char_traitsIcEENS3_9allocatorIcEEEEbxydS9_NS_14adl_serializerENS5_IhNS9_IhEEEEEEE7set_endEv, symObjAddr: 0xADB8, symBinAddr: 0x2B158, symSize: 0x7C }
  - { offsetInCU: 0x46E48, offset: 0x19958B, size: 0x8, addend: 0x0, symName: __ZNK8nlohmann6detail9iter_implIKNS_10basic_jsonINSt3__13mapENS3_6vectorENS3_12basic_stringIcNS3_11char_traitsIcEENS3_9allocatorIcEEEEbxydS9_NS_14adl_serializerENS5_IhNS9_IhEEEEEEE3keyEv, symObjAddr: 0xB1AC, symBinAddr: 0x2B3AC, symSize: 0xD0 }
  - { offsetInCU: 0x47077, offset: 0x1997BA, size: 0x8, addend: 0x0, symName: __ZNK8nlohmann6detail21iteration_proxy_valueINS0_9iter_implIKNS_10basic_jsonINSt3__13mapENS4_6vectorENS4_12basic_stringIcNS4_11char_traitsIcEENS4_9allocatorIcEEEEbxydSA_NS_14adl_serializerENS6_IhNSA_IhEEEEEEEEE3keyEv.cold.1, symObjAddr: 0xB504, symBinAddr: 0x17BA04, symSize: 0x28 }
  - { offsetInCU: 0x475D8, offset: 0x199D1B, size: 0x8, addend: 0x0, symName: __ZNK8firebase9firestore6bundle16BundleSerializer22DecodeDocumentMetadataERNS0_4util10JsonReaderERKN8nlohmann10basic_jsonINSt3__13mapENS8_6vectorENS8_12basic_stringIcNS8_11char_traitsIcEENS8_9allocatorIcEEEEbxydSE_NS6_14adl_serializerENSA_IhNSE_IhEEEEEE, symObjAddr: 0x4898, symBinAddr: 0x27DF4, symSize: 0x410 }
  - { offsetInCU: 0x48971, offset: 0x19B0B4, size: 0x8, addend: 0x0, symName: __ZNK8nlohmann10basic_jsonINSt3__13mapENS1_6vectorENS1_12basic_stringIcNS1_11char_traitsIcEENS1_9allocatorIcEEEEbxydS7_NS_14adl_serializerENS3_IhNS7_IhEEEEE3getIS9_S9_Li0EEET0_v, symObjAddr: 0x4CA8, symBinAddr: 0x28204, symSize: 0x48 }
  - { offsetInCU: 0x48B85, offset: 0x19B2C8, size: 0x8, addend: 0x0, symName: __ZNSt3__114__split_bufferINS_12basic_stringIcNS_11char_traitsIcEENS_9allocatorIcEEEERNS4_IS6_EEED2Ev, symObjAddr: 0x5F78, symBinAddr: 0x28AF4, symSize: 0x34 }
  - { offsetInCU: 0x48F1E, offset: 0x19B661, size: 0x8, addend: 0x0, symName: __ZNK8firebase9firestore6bundle16BundleSerializer14DecodeDocumentERNS0_4util10JsonReaderERKN8nlohmann10basic_jsonINSt3__13mapENS8_6vectorENS8_12basic_stringIcNS8_11char_traitsIcEENS8_9allocatorIcEEEEbxydSE_NS6_14adl_serializerENSA_IhNSE_IhEEEEEE, symObjAddr: 0x4CF0, symBinAddr: 0x2824C, symSize: 0x264 }
  - { offsetInCU: 0x49FC5, offset: 0x19C708, size: 0x8, addend: 0x0, symName: __ZNSt3__16vectorINS_12basic_stringIcNS_11char_traitsIcEENS_9allocatorIcEEEENS4_IS6_EEE21__push_back_slow_pathIRKS6_EEvOT_, symObjAddr: 0x5CDC, symBinAddr: 0x28858, symSize: 0x114 }
  - { offsetInCU: 0x4B1D3, offset: 0x19D916, size: 0x8, addend: 0x0, symName: __ZNSt3__128__exception_guard_exceptionsINS_29_AllocatorDestroyRangeReverseINS_9allocatorINS_12basic_stringIcNS_11char_traitsIcEENS2_IcEEEEEENS_16reverse_iteratorIPS7_EEEEED2B8ue170006Ev, symObjAddr: 0x5F00, symBinAddr: 0x28A7C, symSize: 0x34 }
  - { offsetInCU: 0x4B211, offset: 0x19D954, size: 0x8, addend: 0x0, symName: __ZNKSt3__129_AllocatorDestroyRangeReverseINS_9allocatorINS_12basic_stringIcNS_11char_traitsIcEENS1_IcEEEEEENS_16reverse_iteratorIPS6_EEEclB8ue170006Ev, symObjAddr: 0x5F34, symBinAddr: 0x28AB0, symSize: 0x44 }
  - { offsetInCU: 0x4B40E, offset: 0x19DB51, size: 0x8, addend: 0x0, symName: __ZNSt3__114__split_bufferINS_12basic_stringIcNS_11char_traitsIcEENS_9allocatorIcEEEERNS4_IS6_EEE17__destruct_at_endB8ue170006EPS6_, symObjAddr: 0x5FAC, symBinAddr: 0x28B28, symSize: 0x54 }
  - { offsetInCU: 0x4B798, offset: 0x19DEDB, size: 0x8, addend: 0x0, symName: __ZNSt3__114__split_bufferIN8firebase9firestore4core7OrderByERNS_9allocatorIS4_EEED2Ev, symObjAddr: 0x6320, symBinAddr: 0x28E54, symSize: 0x30 }
  - { offsetInCU: 0x4B9E8, offset: 0x19E12B, size: 0x8, addend: 0x0, symName: __ZNSt3__128__exception_guard_exceptionsINS_29_AllocatorDestroyRangeReverseINS_9allocatorIN8firebase9firestore4core7OrderByEEENS_16reverse_iteratorIPS6_EEEEED2B8ue170006Ev, symObjAddr: 0x62A4, symBinAddr: 0x28DD8, symSize: 0x34 }
  - { offsetInCU: 0x4BA26, offset: 0x19E169, size: 0x8, addend: 0x0, symName: __ZNKSt3__129_AllocatorDestroyRangeReverseINS_9allocatorIN8firebase9firestore4core7OrderByEEENS_16reverse_iteratorIPS5_EEEclB8ue170006Ev, symObjAddr: 0x62D8, symBinAddr: 0x28E0C, symSize: 0x48 }
  - { offsetInCU: 0x4BCEB, offset: 0x19E42E, size: 0x8, addend: 0x0, symName: __ZNSt3__114__split_bufferIN8firebase9firestore4core7OrderByERNS_9allocatorIS4_EEE5clearB8ue170006Ev, symObjAddr: 0x6350, symBinAddr: 0x28E84, symSize: 0x50 }
  - { offsetInCU: 0x4C3A9, offset: 0x19EAEC, size: 0x8, addend: 0x0, symName: __ZNSt3__120__shared_ptr_emplaceIN8firebase9firestore4util18ThreadSafeMemoizerINS_6vectorINS2_4core7OrderByENS_9allocatorIS7_EEEEEENS8_ISB_EEED1Ev, symObjAddr: 0x67D0, symBinAddr: 0x29304, symSize: 0x14 }
  - { offsetInCU: 0x4C3CB, offset: 0x19EB0E, size: 0x8, addend: 0x0, symName: __ZNSt3__120__shared_ptr_emplaceIN8firebase9firestore4util18ThreadSafeMemoizerINS_6vectorINS2_4core7OrderByENS_9allocatorIS7_EEEEEENS8_ISB_EEED1Ev, symObjAddr: 0x67D0, symBinAddr: 0x29304, symSize: 0x14 }
  - { offsetInCU: 0x4C402, offset: 0x19EB45, size: 0x8, addend: 0x0, symName: __ZNSt3__120__shared_ptr_emplaceIN8firebase9firestore4util18ThreadSafeMemoizerINS_6vectorINS2_4core7OrderByENS_9allocatorIS7_EEEEEENS8_ISB_EEED0Ev, symObjAddr: 0x67E4, symBinAddr: 0x29318, symSize: 0x24 }
  - { offsetInCU: 0x4C494, offset: 0x19EBD7, size: 0x8, addend: 0x0, symName: __ZNSt3__120__shared_ptr_emplaceIN8firebase9firestore4util18ThreadSafeMemoizerINS_6vectorINS2_4core7OrderByENS_9allocatorIS7_EEEEEENS8_ISB_EEE16__on_zero_sharedEv, symObjAddr: 0x6808, symBinAddr: 0x2933C, symSize: 0x8 }
  - { offsetInCU: 0x4C4BB, offset: 0x19EBFE, size: 0x8, addend: 0x0, symName: __ZNSt3__120__shared_ptr_emplaceIN8firebase9firestore4util18ThreadSafeMemoizerINS_6vectorINS2_4core7OrderByENS_9allocatorIS7_EEEEEENS8_ISB_EEE16__on_zero_sharedEv, symObjAddr: 0x6808, symBinAddr: 0x2933C, symSize: 0x8 }
  - { offsetInCU: 0x4C555, offset: 0x19EC98, size: 0x8, addend: 0x0, symName: __ZNSt3__120__shared_ptr_emplaceIN8firebase9firestore4util18ThreadSafeMemoizerINS_6vectorINS2_4core7OrderByENS_9allocatorIS7_EEEEEENS8_ISB_EEE21__on_zero_shared_weakEv, symObjAddr: 0x6810, symBinAddr: 0x29344, symSize: 0x4 }
  - { offsetInCU: 0x4C586, offset: 0x19ECC9, size: 0x8, addend: 0x0, symName: __ZNSt3__120__shared_ptr_emplaceIN8firebase9firestore4util18ThreadSafeMemoizerINS_6vectorINS2_4core7OrderByENS_9allocatorIS7_EEEEEENS8_ISB_EEE21__on_zero_shared_weakEv, symObjAddr: 0x6810, symBinAddr: 0x29344, symSize: 0x4 }
  - { offsetInCU: 0x4C5A9, offset: 0x19ECEC, size: 0x8, addend: 0x0, symName: __ZNSt3__120__shared_ptr_emplaceIN8firebase9firestore4util18ThreadSafeMemoizerINS_6vectorINS2_4core7OrderByENS_9allocatorIS7_EEEEEENS8_ISB_EEE21__on_zero_shared_weakEv, symObjAddr: 0x6810, symBinAddr: 0x29344, symSize: 0x4 }
  - { offsetInCU: 0x4C5CC, offset: 0x19ED0F, size: 0x8, addend: 0x0, symName: __ZNSt3__120__shared_ptr_emplaceIN8firebase9firestore4util18ThreadSafeMemoizerINS_6vectorINS2_4core7OrderByENS_9allocatorIS7_EEEEEENS8_ISB_EEE21__on_zero_shared_weakEv, symObjAddr: 0x6810, symBinAddr: 0x29344, symSize: 0x4 }
  - { offsetInCU: 0x4C5F9, offset: 0x19ED3C, size: 0x8, addend: 0x0, symName: __ZNSt3__120__shared_ptr_emplaceIN8firebase9firestore4util18ThreadSafeMemoizerINS_6vectorINS2_4core7OrderByENS_9allocatorIS7_EEEEEENS8_ISB_EEE21__on_zero_shared_weakEv, symObjAddr: 0x6810, symBinAddr: 0x29344, symSize: 0x4 }
  - { offsetInCU: 0x4C620, offset: 0x19ED63, size: 0x8, addend: 0x0, symName: __ZNSt3__120__shared_ptr_emplaceIN8firebase9firestore4util18ThreadSafeMemoizerINS_6vectorINS2_4core7OrderByENS_9allocatorIS7_EEEEEENS8_ISB_EEE21__on_zero_shared_weakEv, symObjAddr: 0x6810, symBinAddr: 0x29344, symSize: 0x4 }
  - { offsetInCU: 0x4C84D, offset: 0x19EF90, size: 0x8, addend: 0x0, symName: __ZNSt3__120__shared_ptr_emplaceIN8firebase9firestore4util18ThreadSafeMemoizerINS2_4core6TargetEEENS_9allocatorIS7_EEED1Ev, symObjAddr: 0x6884, symBinAddr: 0x293B8, symSize: 0x14 }
  - { offsetInCU: 0x4C86F, offset: 0x19EFB2, size: 0x8, addend: 0x0, symName: __ZNSt3__120__shared_ptr_emplaceIN8firebase9firestore4util18ThreadSafeMemoizerINS2_4core6TargetEEENS_9allocatorIS7_EEED1Ev, symObjAddr: 0x6884, symBinAddr: 0x293B8, symSize: 0x14 }
  - { offsetInCU: 0x4C8A6, offset: 0x19EFE9, size: 0x8, addend: 0x0, symName: __ZNSt3__120__shared_ptr_emplaceIN8firebase9firestore4util18ThreadSafeMemoizerINS2_4core6TargetEEENS_9allocatorIS7_EEED0Ev, symObjAddr: 0x6898, symBinAddr: 0x293CC, symSize: 0x24 }
  - { offsetInCU: 0x4C938, offset: 0x19F07B, size: 0x8, addend: 0x0, symName: __ZNSt3__120__shared_ptr_emplaceIN8firebase9firestore4util18ThreadSafeMemoizerINS2_4core6TargetEEENS_9allocatorIS7_EEE16__on_zero_sharedEv, symObjAddr: 0x68BC, symBinAddr: 0x293F0, symSize: 0x8 }
  - { offsetInCU: 0x4C95F, offset: 0x19F0A2, size: 0x8, addend: 0x0, symName: __ZNSt3__120__shared_ptr_emplaceIN8firebase9firestore4util18ThreadSafeMemoizerINS2_4core6TargetEEENS_9allocatorIS7_EEE16__on_zero_sharedEv, symObjAddr: 0x68BC, symBinAddr: 0x293F0, symSize: 0x8 }
  - { offsetInCU: 0x4C9F9, offset: 0x19F13C, size: 0x8, addend: 0x0, symName: __ZNSt3__120__shared_ptr_emplaceIN8firebase9firestore4util18ThreadSafeMemoizerINS2_4core6TargetEEENS_9allocatorIS7_EEE21__on_zero_shared_weakEv, symObjAddr: 0x68C4, symBinAddr: 0x293F8, symSize: 0x4 }
  - { offsetInCU: 0x4CA2A, offset: 0x19F16D, size: 0x8, addend: 0x0, symName: __ZNSt3__120__shared_ptr_emplaceIN8firebase9firestore4util18ThreadSafeMemoizerINS2_4core6TargetEEENS_9allocatorIS7_EEE21__on_zero_shared_weakEv, symObjAddr: 0x68C4, symBinAddr: 0x293F8, symSize: 0x4 }
  - { offsetInCU: 0x4CA4D, offset: 0x19F190, size: 0x8, addend: 0x0, symName: __ZNSt3__120__shared_ptr_emplaceIN8firebase9firestore4util18ThreadSafeMemoizerINS2_4core6TargetEEENS_9allocatorIS7_EEE21__on_zero_shared_weakEv, symObjAddr: 0x68C4, symBinAddr: 0x293F8, symSize: 0x4 }
  - { offsetInCU: 0x4CA70, offset: 0x19F1B3, size: 0x8, addend: 0x0, symName: __ZNSt3__120__shared_ptr_emplaceIN8firebase9firestore4util18ThreadSafeMemoizerINS2_4core6TargetEEENS_9allocatorIS7_EEE21__on_zero_shared_weakEv, symObjAddr: 0x68C4, symBinAddr: 0x293F8, symSize: 0x4 }
  - { offsetInCU: 0x4CA9E, offset: 0x19F1E1, size: 0x8, addend: 0x0, symName: __ZNSt3__120__shared_ptr_emplaceIN8firebase9firestore4util18ThreadSafeMemoizerINS2_4core6TargetEEENS_9allocatorIS7_EEE21__on_zero_shared_weakEv, symObjAddr: 0x68C4, symBinAddr: 0x293F8, symSize: 0x4 }
  - { offsetInCU: 0x4CAC6, offset: 0x19F209, size: 0x8, addend: 0x0, symName: __ZNSt3__120__shared_ptr_emplaceIN8firebase9firestore4util18ThreadSafeMemoizerINS2_4core6TargetEEENS_9allocatorIS7_EEE21__on_zero_shared_weakEv, symObjAddr: 0x68C4, symBinAddr: 0x293F8, symSize: 0x4 }
  - { offsetInCU: 0x4DD08, offset: 0x1A044B, size: 0x8, addend: 0x0, symName: __ZN8firebase9firestore4util10JsonReader8ParseIntIiEET_RKN8nlohmann10basic_jsonINSt3__13mapENS7_6vectorENS7_12basic_stringIcNS7_11char_traitsIcEENS7_9allocatorIcEEEEbxydSD_NS5_14adl_serializerENS9_IhNSD_IhEEEEEERS2_, symObjAddr: 0x7B90, symBinAddr: 0x29DC4, symSize: 0xE4 }
  - { offsetInCU: 0x4E1B6, offset: 0x1A08F9, size: 0x8, addend: 0x0, symName: __ZN8firebase9firestore4util17internal_statusor12StatusOrDataINS_9TimestampEEC2EONS1_6StatusE, symObjAddr: 0x7794, symBinAddr: 0x299C8, symSize: 0x60 }
  - { offsetInCU: 0x4E592, offset: 0x1A0CD5, size: 0x8, addend: 0x0, symName: __ZN8firebase9firestore4util17internal_statusor12StatusOrDataINS_9TimestampEE6AssignEONS1_6StatusE, symObjAddr: 0x7898, symBinAddr: 0x29ACC, symSize: 0x5C }
  - { offsetInCU: 0x4E6CF, offset: 0x1A0E12, size: 0x8, addend: 0x0, symName: __ZN8firebase9firestore4util17internal_statusor12StatusOrDataINS_9TimestampEE6AssignEOS4_, symObjAddr: 0x7840, symBinAddr: 0x29A74, symSize: 0x58 }
  - { offsetInCU: 0x504C9, offset: 0x1A2C0C, size: 0x8, addend: 0x0, symName: __ZNSt3__120__shared_ptr_emplaceIN8firebase9firestore6nanopb7MessageINS2_31_google_firestore_v1_ArrayValueEEENS_9allocatorIS6_EEED1Ev, symObjAddr: 0x8B78, symBinAddr: 0x29EA8, symSize: 0x14 }
  - { offsetInCU: 0x504EB, offset: 0x1A2C2E, size: 0x8, addend: 0x0, symName: __ZNSt3__120__shared_ptr_emplaceIN8firebase9firestore6nanopb7MessageINS2_31_google_firestore_v1_ArrayValueEEENS_9allocatorIS6_EEED1Ev, symObjAddr: 0x8B78, symBinAddr: 0x29EA8, symSize: 0x14 }
  - { offsetInCU: 0x50522, offset: 0x1A2C65, size: 0x8, addend: 0x0, symName: __ZNSt3__120__shared_ptr_emplaceIN8firebase9firestore6nanopb7MessageINS2_31_google_firestore_v1_ArrayValueEEENS_9allocatorIS6_EEED0Ev, symObjAddr: 0x8B8C, symBinAddr: 0x29EBC, symSize: 0x24 }
  - { offsetInCU: 0x5059B, offset: 0x1A2CDE, size: 0x8, addend: 0x0, symName: __ZNSt3__120__shared_ptr_emplaceIN8firebase9firestore6nanopb7MessageINS2_31_google_firestore_v1_ArrayValueEEENS_9allocatorIS6_EEE16__on_zero_sharedEv, symObjAddr: 0x8BB0, symBinAddr: 0x29EE0, symSize: 0x8 }
  - { offsetInCU: 0x505C2, offset: 0x1A2D05, size: 0x8, addend: 0x0, symName: __ZNSt3__120__shared_ptr_emplaceIN8firebase9firestore6nanopb7MessageINS2_31_google_firestore_v1_ArrayValueEEENS_9allocatorIS6_EEE16__on_zero_sharedEv, symObjAddr: 0x8BB0, symBinAddr: 0x29EE0, symSize: 0x8 }
  - { offsetInCU: 0x5065C, offset: 0x1A2D9F, size: 0x8, addend: 0x0, symName: __ZNSt3__120__shared_ptr_emplaceIN8firebase9firestore6nanopb7MessageINS2_31_google_firestore_v1_ArrayValueEEENS_9allocatorIS6_EEE21__on_zero_shared_weakEv, symObjAddr: 0x8BB8, symBinAddr: 0x29EE8, symSize: 0x4 }
  - { offsetInCU: 0x5068D, offset: 0x1A2DD0, size: 0x8, addend: 0x0, symName: __ZNSt3__120__shared_ptr_emplaceIN8firebase9firestore6nanopb7MessageINS2_31_google_firestore_v1_ArrayValueEEENS_9allocatorIS6_EEE21__on_zero_shared_weakEv, symObjAddr: 0x8BB8, symBinAddr: 0x29EE8, symSize: 0x4 }
  - { offsetInCU: 0x506B0, offset: 0x1A2DF3, size: 0x8, addend: 0x0, symName: __ZNSt3__120__shared_ptr_emplaceIN8firebase9firestore6nanopb7MessageINS2_31_google_firestore_v1_ArrayValueEEENS_9allocatorIS6_EEE21__on_zero_shared_weakEv, symObjAddr: 0x8BB8, symBinAddr: 0x29EE8, symSize: 0x4 }
  - { offsetInCU: 0x506D3, offset: 0x1A2E16, size: 0x8, addend: 0x0, symName: __ZNSt3__120__shared_ptr_emplaceIN8firebase9firestore6nanopb7MessageINS2_31_google_firestore_v1_ArrayValueEEENS_9allocatorIS6_EEE21__on_zero_shared_weakEv, symObjAddr: 0x8BB8, symBinAddr: 0x29EE8, symSize: 0x4 }
  - { offsetInCU: 0x50700, offset: 0x1A2E43, size: 0x8, addend: 0x0, symName: __ZNSt3__120__shared_ptr_emplaceIN8firebase9firestore6nanopb7MessageINS2_31_google_firestore_v1_ArrayValueEEENS_9allocatorIS6_EEE21__on_zero_shared_weakEv, symObjAddr: 0x8BB8, symBinAddr: 0x29EE8, symSize: 0x4 }
  - { offsetInCU: 0x50727, offset: 0x1A2E6A, size: 0x8, addend: 0x0, symName: __ZNSt3__120__shared_ptr_emplaceIN8firebase9firestore6nanopb7MessageINS2_31_google_firestore_v1_ArrayValueEEENS_9allocatorIS6_EEE21__on_zero_shared_weakEv, symObjAddr: 0x8BB8, symBinAddr: 0x29EE8, symSize: 0x4 }
  - { offsetInCU: 0x508ED, offset: 0x1A3030, size: 0x8, addend: 0x0, symName: __ZNSt3__120__shared_ptr_emplaceIN8firebase9firestore6nanopb7MessageINS2_26_google_firestore_v1_ValueEEENS_9allocatorIS6_EEED1Ev, symObjAddr: 0x8D94, symBinAddr: 0x2A088, symSize: 0x14 }
  - { offsetInCU: 0x5090F, offset: 0x1A3052, size: 0x8, addend: 0x0, symName: __ZNSt3__120__shared_ptr_emplaceIN8firebase9firestore6nanopb7MessageINS2_26_google_firestore_v1_ValueEEENS_9allocatorIS6_EEED1Ev, symObjAddr: 0x8D94, symBinAddr: 0x2A088, symSize: 0x14 }
  - { offsetInCU: 0x50946, offset: 0x1A3089, size: 0x8, addend: 0x0, symName: __ZNSt3__120__shared_ptr_emplaceIN8firebase9firestore6nanopb7MessageINS2_26_google_firestore_v1_ValueEEENS_9allocatorIS6_EEED0Ev, symObjAddr: 0x8DA8, symBinAddr: 0x2A09C, symSize: 0x24 }
  - { offsetInCU: 0x509BF, offset: 0x1A3102, size: 0x8, addend: 0x0, symName: __ZNSt3__120__shared_ptr_emplaceIN8firebase9firestore6nanopb7MessageINS2_26_google_firestore_v1_ValueEEENS_9allocatorIS6_EEE16__on_zero_sharedEv, symObjAddr: 0x8DCC, symBinAddr: 0x2A0C0, symSize: 0x8 }
  - { offsetInCU: 0x509E6, offset: 0x1A3129, size: 0x8, addend: 0x0, symName: __ZNSt3__120__shared_ptr_emplaceIN8firebase9firestore6nanopb7MessageINS2_26_google_firestore_v1_ValueEEENS_9allocatorIS6_EEE16__on_zero_sharedEv, symObjAddr: 0x8DCC, symBinAddr: 0x2A0C0, symSize: 0x8 }
  - { offsetInCU: 0x50A80, offset: 0x1A31C3, size: 0x8, addend: 0x0, symName: __ZNSt3__120__shared_ptr_emplaceIN8firebase9firestore6nanopb7MessageINS2_26_google_firestore_v1_ValueEEENS_9allocatorIS6_EEE21__on_zero_shared_weakEv, symObjAddr: 0x8DD4, symBinAddr: 0x2A0C8, symSize: 0x4 }
  - { offsetInCU: 0x50AB1, offset: 0x1A31F4, size: 0x8, addend: 0x0, symName: __ZNSt3__120__shared_ptr_emplaceIN8firebase9firestore6nanopb7MessageINS2_26_google_firestore_v1_ValueEEENS_9allocatorIS6_EEE21__on_zero_shared_weakEv, symObjAddr: 0x8DD4, symBinAddr: 0x2A0C8, symSize: 0x4 }
  - { offsetInCU: 0x50AD4, offset: 0x1A3217, size: 0x8, addend: 0x0, symName: __ZNSt3__120__shared_ptr_emplaceIN8firebase9firestore6nanopb7MessageINS2_26_google_firestore_v1_ValueEEENS_9allocatorIS6_EEE21__on_zero_shared_weakEv, symObjAddr: 0x8DD4, symBinAddr: 0x2A0C8, symSize: 0x4 }
  - { offsetInCU: 0x50AF7, offset: 0x1A323A, size: 0x8, addend: 0x0, symName: __ZNSt3__120__shared_ptr_emplaceIN8firebase9firestore6nanopb7MessageINS2_26_google_firestore_v1_ValueEEENS_9allocatorIS6_EEE21__on_zero_shared_weakEv, symObjAddr: 0x8DD4, symBinAddr: 0x2A0C8, symSize: 0x4 }
  - { offsetInCU: 0x50B24, offset: 0x1A3267, size: 0x8, addend: 0x0, symName: __ZNSt3__120__shared_ptr_emplaceIN8firebase9firestore6nanopb7MessageINS2_26_google_firestore_v1_ValueEEENS_9allocatorIS6_EEE21__on_zero_shared_weakEv, symObjAddr: 0x8DD4, symBinAddr: 0x2A0C8, symSize: 0x4 }
  - { offsetInCU: 0x50B4B, offset: 0x1A328E, size: 0x8, addend: 0x0, symName: __ZNSt3__120__shared_ptr_emplaceIN8firebase9firestore6nanopb7MessageINS2_26_google_firestore_v1_ValueEEENS_9allocatorIS6_EEE21__on_zero_shared_weakEv, symObjAddr: 0x8DD4, symBinAddr: 0x2A0C8, symSize: 0x4 }
  - { offsetInCU: 0x51404, offset: 0x1A3B47, size: 0x8, addend: 0x0, symName: __ZNSt3__120__shared_ptr_emplaceINS_12basic_stringIcNS_11char_traitsIcEENS_9allocatorIcEEEENS4_IS6_EEEC2B8ue170006IJRS6_EEES7_DpOT_, symObjAddr: 0x97C4, symBinAddr: 0x2A748, symSize: 0x70 }
  - { offsetInCU: 0x5154A, offset: 0x1A3C8D, size: 0x8, addend: 0x0, symName: __ZNSt3__120__shared_ptr_emplaceINS_12basic_stringIcNS_11char_traitsIcEENS_9allocatorIcEEEENS4_IS6_EEED1Ev, symObjAddr: 0x9834, symBinAddr: 0x2A7B8, symSize: 0x14 }
  - { offsetInCU: 0x5156C, offset: 0x1A3CAF, size: 0x8, addend: 0x0, symName: __ZNSt3__120__shared_ptr_emplaceINS_12basic_stringIcNS_11char_traitsIcEENS_9allocatorIcEEEENS4_IS6_EEED1Ev, symObjAddr: 0x9834, symBinAddr: 0x2A7B8, symSize: 0x14 }
  - { offsetInCU: 0x515A3, offset: 0x1A3CE6, size: 0x8, addend: 0x0, symName: __ZNSt3__120__shared_ptr_emplaceINS_12basic_stringIcNS_11char_traitsIcEENS_9allocatorIcEEEENS4_IS6_EEED0Ev, symObjAddr: 0x9848, symBinAddr: 0x2A7CC, symSize: 0x24 }
  - { offsetInCU: 0x51608, offset: 0x1A3D4B, size: 0x8, addend: 0x0, symName: __ZNSt3__120__shared_ptr_emplaceINS_12basic_stringIcNS_11char_traitsIcEENS_9allocatorIcEEEENS4_IS6_EEE16__on_zero_sharedEv, symObjAddr: 0x986C, symBinAddr: 0x2A7F0, symSize: 0x14 }
  - { offsetInCU: 0x5165D, offset: 0x1A3DA0, size: 0x8, addend: 0x0, symName: __ZNSt3__120__shared_ptr_emplaceINS_12basic_stringIcNS_11char_traitsIcEENS_9allocatorIcEEEENS4_IS6_EEE16__on_zero_sharedEv, symObjAddr: 0x986C, symBinAddr: 0x2A7F0, symSize: 0x14 }
  - { offsetInCU: 0x51732, offset: 0x1A3E75, size: 0x8, addend: 0x0, symName: __ZNSt3__120__shared_ptr_emplaceINS_12basic_stringIcNS_11char_traitsIcEENS_9allocatorIcEEEENS4_IS6_EEE21__on_zero_shared_weakEv, symObjAddr: 0x9880, symBinAddr: 0x2A804, symSize: 0x4 }
  - { offsetInCU: 0x51763, offset: 0x1A3EA6, size: 0x8, addend: 0x0, symName: __ZNSt3__120__shared_ptr_emplaceINS_12basic_stringIcNS_11char_traitsIcEENS_9allocatorIcEEEENS4_IS6_EEE21__on_zero_shared_weakEv, symObjAddr: 0x9880, symBinAddr: 0x2A804, symSize: 0x4 }
  - { offsetInCU: 0x51786, offset: 0x1A3EC9, size: 0x8, addend: 0x0, symName: __ZNSt3__120__shared_ptr_emplaceINS_12basic_stringIcNS_11char_traitsIcEENS_9allocatorIcEEEENS4_IS6_EEE21__on_zero_shared_weakEv, symObjAddr: 0x9880, symBinAddr: 0x2A804, symSize: 0x4 }
  - { offsetInCU: 0x517A9, offset: 0x1A3EEC, size: 0x8, addend: 0x0, symName: __ZNSt3__120__shared_ptr_emplaceINS_12basic_stringIcNS_11char_traitsIcEENS_9allocatorIcEEEENS4_IS6_EEE21__on_zero_shared_weakEv, symObjAddr: 0x9880, symBinAddr: 0x2A804, symSize: 0x4 }
  - { offsetInCU: 0x517D6, offset: 0x1A3F19, size: 0x8, addend: 0x0, symName: __ZNSt3__120__shared_ptr_emplaceINS_12basic_stringIcNS_11char_traitsIcEENS_9allocatorIcEEEENS4_IS6_EEE21__on_zero_shared_weakEv, symObjAddr: 0x9880, symBinAddr: 0x2A804, symSize: 0x4 }
  - { offsetInCU: 0x517FD, offset: 0x1A3F40, size: 0x8, addend: 0x0, symName: __ZNSt3__120__shared_ptr_emplaceINS_12basic_stringIcNS_11char_traitsIcEENS_9allocatorIcEEEENS4_IS6_EEE21__on_zero_shared_weakEv, symObjAddr: 0x9880, symBinAddr: 0x2A804, symSize: 0x4 }
  - { offsetInCU: 0x51865, offset: 0x1A3FA8, size: 0x8, addend: 0x0, symName: __ZNSt3__110shared_ptrIN8firebase9firestore6nanopb7MessageINS2_31_google_firestore_v1_ArrayValueEEEEaSB8ue170006EOS7_, symObjAddr: 0x98D8, symBinAddr: 0x2A85C, symSize: 0x64 }
  - { offsetInCU: 0x51A98, offset: 0x1A41DB, size: 0x8, addend: 0x0, symName: __ZN4absl12lts_202206238AlphaNumC2Em, symObjAddr: 0x99D8, symBinAddr: 0x2A95C, symSize: 0x44 }
  - { offsetInCU: 0x51B80, offset: 0x1A42C3, size: 0x8, addend: 0x0, symName: __ZNSt3__16vectorINS_12basic_stringIcNS_11char_traitsIcEENS_9allocatorIcEEEENS4_IS6_EEE16__init_with_sizeB8ue170006INS_11__wrap_iterIPKS6_EESD_EEvT_T0_m, symObjAddr: 0x9A1C, symBinAddr: 0x2A9A0, symSize: 0x84 }
  - { offsetInCU: 0x51C3F, offset: 0x1A4382, size: 0x8, addend: 0x0, symName: __ZN4absl12lts_202206238AlphaNumC2Em.cold.1, symObjAddr: 0xB52C, symBinAddr: 0x17BA2C, symSize: 0x28 }
  - { offsetInCU: 0x54B1D, offset: 0x1A7260, size: 0x8, addend: 0x0, symName: __ZN8nlohmann6detail9from_jsonINS_10basic_jsonINSt3__13mapENS3_6vectorENS3_12basic_stringIcNS3_11char_traitsIcEENS3_9allocatorIcEEEEbxydS9_NS_14adl_serializerENS5_IhNS9_IhEEEEEEEEvRKT_RNSG_9boolean_tE, symObjAddr: 0xA900, symBinAddr: 0x2AD98, symSize: 0x120 }
  - { offsetInCU: 0x55576, offset: 0x1A7CB9, size: 0x8, addend: 0x0, symName: __ZNK8nlohmann6detail9iter_implIKNS_10basic_jsonINSt3__13mapENS3_6vectorENS3_12basic_stringIcNS3_11char_traitsIcEENS3_9allocatorIcEEEEbxydS9_NS_14adl_serializerENS5_IhNS9_IhEEEEEEEeqERKSH_.cold.1, symObjAddr: 0xB554, symBinAddr: 0x17BA54, symSize: 0x28 }
  - { offsetInCU: 0x55628, offset: 0x1A7D6B, size: 0x8, addend: 0x0, symName: __ZN8nlohmann6detail9iter_implIKNS_10basic_jsonINSt3__13mapENS3_6vectorENS3_12basic_stringIcNS3_11char_traitsIcEENS3_9allocatorIcEEEEbxydS9_NS_14adl_serializerENS5_IhNS9_IhEEEEEEEppEv.cold.1, symObjAddr: 0xB57C, symBinAddr: 0x17BA7C, symSize: 0x28 }
  - { offsetInCU: 0x556CD, offset: 0x1A7E10, size: 0x8, addend: 0x0, symName: __ZNK8nlohmann6detail9iter_implIKNS_10basic_jsonINSt3__13mapENS3_6vectorENS3_12basic_stringIcNS3_11char_traitsIcEENS3_9allocatorIcEEEEbxydS9_NS_14adl_serializerENS5_IhNS9_IhEEEEEEE3keyEv.cold.1, symObjAddr: 0xB5A4, symBinAddr: 0x17BAA4, symSize: 0x28 }
  - { offsetInCU: 0x556FE, offset: 0x1A7E41, size: 0x8, addend: 0x0, symName: __ZNK8nlohmann6detail9iter_implIKNS_10basic_jsonINSt3__13mapENS3_6vectorENS3_12basic_stringIcNS3_11char_traitsIcEENS3_9allocatorIcEEEEbxydS9_NS_14adl_serializerENS5_IhNS9_IhEEEEEEEdeEv.cold.3, symObjAddr: 0xB61C, symBinAddr: 0x17BB1C, symSize: 0x28 }
  - { offsetInCU: 0x55716, offset: 0x1A7E59, size: 0x8, addend: 0x0, symName: __ZNK8nlohmann6detail9iter_implIKNS_10basic_jsonINSt3__13mapENS3_6vectorENS3_12basic_stringIcNS3_11char_traitsIcEENS3_9allocatorIcEEEEbxydS9_NS_14adl_serializerENS5_IhNS9_IhEEEEEEEdeEv.cold.1, symObjAddr: 0xB5CC, symBinAddr: 0x17BACC, symSize: 0x28 }
  - { offsetInCU: 0x5572E, offset: 0x1A7E71, size: 0x8, addend: 0x0, symName: __ZNK8nlohmann6detail9iter_implIKNS_10basic_jsonINSt3__13mapENS3_6vectorENS3_12basic_stringIcNS3_11char_traitsIcEENS3_9allocatorIcEEEEbxydS9_NS_14adl_serializerENS5_IhNS9_IhEEEEEEEdeEv.cold.2, symObjAddr: 0xB5F4, symBinAddr: 0x17BAF4, symSize: 0x28 }
  - { offsetInCU: 0x2E6, offset: 0x1A81B4, size: 0x8, addend: 0x0, symName: __ZN8firebase9firestore4util17internal_statusor12PlacementNewINS1_6StatusEJS4_EEEvPvDpOT0_, symObjAddr: 0x708, symBinAddr: 0x2BEB0, symSize: 0x28 }
  - { offsetInCU: 0x558A, offset: 0x1AD458, size: 0x8, addend: 0x0, symName: __ZN8firebase9firestore4util15ByteStreamApple9ReadUntilEcm, symObjAddr: 0x0, symBinAddr: 0x2B7B4, symSize: 0x1FC }
  - { offsetInCU: 0x5F7C, offset: 0x1ADE4A, size: 0x8, addend: 0x0, symName: __ZN8firebase9firestore4util15ByteStreamApple12ReadToBufferEm, symObjAddr: 0x1FC, symBinAddr: 0x2B9B0, symSize: 0x104 }
  - { offsetInCU: 0x660D, offset: 0x1AE4DB, size: 0x8, addend: 0x0, symName: __ZN8firebase9firestore4util15ByteStreamApple13ConsumeBufferEv, symObjAddr: 0x3F8, symBinAddr: 0x2BBAC, symSize: 0xCC }
  - { offsetInCU: 0x6B78, offset: 0x1AEA46, size: 0x8, addend: 0x0, symName: __ZN8firebase9firestore4util15ByteStreamApple11ErrorResultEv, symObjAddr: 0x300, symBinAddr: 0x2BAB4, symSize: 0xF8 }
  - { offsetInCU: 0x73C6, offset: 0x1AF294, size: 0x8, addend: 0x0, symName: __ZN8firebase9firestore4util17internal_statusor12StatusOrDataINSt3__112basic_stringIcNS4_11char_traitsIcEENS4_9allocatorIcEEEEEC2EONS1_6StatusE, symObjAddr: 0x8B8, symBinAddr: 0x2BED8, symSize: 0x60 }
  - { offsetInCU: 0x7503, offset: 0x1AF3D1, size: 0x8, addend: 0x0, symName: __ZN8firebase9firestore4util17internal_statusor12StatusOrDataINSt3__112basic_stringIcNS4_11char_traitsIcEENS4_9allocatorIcEEEEEC2EONS1_6StatusE, symObjAddr: 0x8B8, symBinAddr: 0x2BED8, symSize: 0x60 }
  - { offsetInCU: 0x783B, offset: 0x1AF709, size: 0x8, addend: 0x0, symName: __ZNK8firebase9firestore4util15ByteStreamApple3eofEv, symObjAddr: 0x4C4, symBinAddr: 0x2BC78, symSize: 0x40 }
  - { offsetInCU: 0x78DF, offset: 0x1AF7AD, size: 0x8, addend: 0x0, symName: __ZN8firebase9firestore4util15ByteStreamApple4ReadEm, symObjAddr: 0x504, symBinAddr: 0x2BCB8, symSize: 0x170 }
  - { offsetInCU: 0x821A, offset: 0x1B00E8, size: 0x8, addend: 0x0, symName: __ZN8firebase9firestore4util15ByteStreamAppleD1Ev, symObjAddr: 0x674, symBinAddr: 0x2BE28, symSize: 0x44 }
  - { offsetInCU: 0x8397, offset: 0x1B0265, size: 0x8, addend: 0x0, symName: __ZN8firebase9firestore4util15ByteStreamAppleD0Ev, symObjAddr: 0x6B8, symBinAddr: 0x2BE6C, symSize: 0x44 }
  - { offsetInCU: 0x6521, offset: 0x1B6C00, size: 0x8, addend: 0x0, symName: __ZN8firebase9firestore4util13ByteStreamCpp9ReadUntilEcm, symObjAddr: 0x0, symBinAddr: 0x2BF38, symSize: 0xB0 }
  - { offsetInCU: 0x69F3, offset: 0x1B70D2, size: 0x8, addend: 0x0, symName: __ZN8firebase9firestore4util13ByteStreamCpp12ToReadResultERKNSt3__112basic_stringIcNS3_11char_traitsIcEENS3_9allocatorIcEEEE, symObjAddr: 0xB0, symBinAddr: 0x2BFE8, symSize: 0x1CC }
  - { offsetInCU: 0x8117, offset: 0x1B87F6, size: 0x8, addend: 0x0, symName: __ZN8firebase9firestore4util13ByteStreamCpp4ReadEm, symObjAddr: 0x27C, symBinAddr: 0x2C1B4, symSize: 0xA0 }
  - { offsetInCU: 0x8530, offset: 0x1B8C0F, size: 0x8, addend: 0x0, symName: __ZN8firebase9firestore4util13ByteStreamCppD1Ev, symObjAddr: 0x31C, symBinAddr: 0x2C254, symSize: 0x40 }
  - { offsetInCU: 0x860F, offset: 0x1B8CEE, size: 0x8, addend: 0x0, symName: __ZN8firebase9firestore4util13ByteStreamCppD0Ev, symObjAddr: 0x35C, symBinAddr: 0x2C294, symSize: 0x40 }
  - { offsetInCU: 0x5C, offset: 0x1B923F, size: 0x8, addend: 0x0, symName: __ZN8firebase9firestore6nanopb4swapERNS1_10ByteStringES3_, symObjAddr: 0x384, symBinAddr: 0x2C64C, symSize: 0x14 }
  - { offsetInCU: 0x94, offset: 0x1B9277, size: 0x8, addend: 0x0, symName: __ZN8firebase9firestore6nanopb4swapERNS1_10ByteStringES3_, symObjAddr: 0x384, symBinAddr: 0x2C64C, symSize: 0x14 }
  - { offsetInCU: 0xD2, offset: 0x1B92B5, size: 0x8, addend: 0x0, symName: __ZN8firebase9firestore6nanopblsERNSt3__113basic_ostreamIcNS2_11char_traitsIcEEEERKNS1_10ByteStringE, symObjAddr: 0x480, symBinAddr: 0x2C748, symSize: 0x8C }
  - { offsetInCU: 0x4008, offset: 0x1BD1EB, size: 0x8, addend: 0x0, symName: __ZNK8firebase9firestore6nanopb10ByteString4dataEv, symObjAddr: 0x1DC, symBinAddr: 0x2C4B0, symSize: 0x1C }
  - { offsetInCU: 0x402C, offset: 0x1BD20F, size: 0x8, addend: 0x0, symName: __ZZNK8firebase9firestore6nanopb10ByteString4dataEvE6kEmpty, symObjAddr: 0xA34, symBinAddr: 0x1831F6, symSize: 0x0 }
  - { offsetInCU: 0x5EDC, offset: 0x1BF0BF, size: 0x8, addend: 0x0, symName: __ZN8firebase9firestore6nanopb10ByteStringC2EPK16pb_bytes_array_s, symObjAddr: 0x0, symBinAddr: 0x2C2D4, symSize: 0x3C }
  - { offsetInCU: 0x5F40, offset: 0x1BF123, size: 0x8, addend: 0x0, symName: __ZN8firebase9firestore6nanopb10ByteStringC1EPK16pb_bytes_array_s, symObjAddr: 0x3C, symBinAddr: 0x2C310, symSize: 0x3C }
  - { offsetInCU: 0x5FAE, offset: 0x1BF191, size: 0x8, addend: 0x0, symName: __ZN8firebase9firestore6nanopb10ByteStringC2EPKvm, symObjAddr: 0x78, symBinAddr: 0x2C34C, symSize: 0x30 }
  - { offsetInCU: 0x602F, offset: 0x1BF212, size: 0x8, addend: 0x0, symName: __ZN8firebase9firestore6nanopb10ByteStringC1EPKvm, symObjAddr: 0xA8, symBinAddr: 0x2C37C, symSize: 0x30 }
  - { offsetInCU: 0x60AD, offset: 0x1BF290, size: 0x8, addend: 0x0, symName: __ZN8firebase9firestore6nanopb10ByteStringC2EN4absl12lts_2022062311string_viewE, symObjAddr: 0xD8, symBinAddr: 0x2C3AC, symSize: 0x30 }
  - { offsetInCU: 0x6163, offset: 0x1BF346, size: 0x8, addend: 0x0, symName: __ZN8firebase9firestore6nanopb10ByteStringC1EN4absl12lts_2022062311string_viewE, symObjAddr: 0x108, symBinAddr: 0x2C3DC, symSize: 0x30 }
  - { offsetInCU: 0x6216, offset: 0x1BF3F9, size: 0x8, addend: 0x0, symName: __ZN8firebase9firestore6nanopb10ByteStringC2ESt16initializer_listIhE, symObjAddr: 0x138, symBinAddr: 0x2C40C, symSize: 0x30 }
  - { offsetInCU: 0x629B, offset: 0x1BF47E, size: 0x8, addend: 0x0, symName: __ZN8firebase9firestore6nanopb10ByteStringC1ESt16initializer_listIhE, symObjAddr: 0x168, symBinAddr: 0x2C43C, symSize: 0x30 }
  - { offsetInCU: 0x637E, offset: 0x1BF561, size: 0x8, addend: 0x0, symName: __ZN8firebase9firestore6nanopb10ByteStringC2ERKS2_, symObjAddr: 0x198, symBinAddr: 0x2C46C, symSize: 0x44 }
  - { offsetInCU: 0x6425, offset: 0x1BF608, size: 0x8, addend: 0x0, symName: __ZN8firebase9firestore6nanopb10ByteStringC1ERKS2_, symObjAddr: 0x1F8, symBinAddr: 0x2C4CC, symSize: 0x44 }
  - { offsetInCU: 0x64FA, offset: 0x1BF6DD, size: 0x8, addend: 0x0, symName: __ZN8firebase9firestore6nanopb10ByteStringC2EOS2_, symObjAddr: 0x23C, symBinAddr: 0x2C510, symSize: 0x14 }
  - { offsetInCU: 0x6547, offset: 0x1BF72A, size: 0x8, addend: 0x0, symName: __ZN8firebase9firestore6nanopb10ByteStringC1EOS2_, symObjAddr: 0x250, symBinAddr: 0x2C524, symSize: 0x14 }
  - { offsetInCU: 0x6580, offset: 0x1BF763, size: 0x8, addend: 0x0, symName: __ZN8firebase9firestore6nanopb10ByteStringC1EOS2_, symObjAddr: 0x250, symBinAddr: 0x2C524, symSize: 0x14 }
  - { offsetInCU: 0x65A1, offset: 0x1BF784, size: 0x8, addend: 0x0, symName: __ZN8firebase9firestore6nanopb10ByteStringD2Ev, symObjAddr: 0x264, symBinAddr: 0x2C538, symSize: 0x28 }
  - { offsetInCU: 0x65DE, offset: 0x1BF7C1, size: 0x8, addend: 0x0, symName: __ZN8firebase9firestore6nanopb10ByteStringD1Ev, symObjAddr: 0x298, symBinAddr: 0x2C560, symSize: 0x28 }
  - { offsetInCU: 0x6626, offset: 0x1BF809, size: 0x8, addend: 0x0, symName: __ZN8firebase9firestore6nanopb10ByteStringaSERKS2_, symObjAddr: 0x2C0, symBinAddr: 0x2C588, symSize: 0x68 }
  - { offsetInCU: 0x669A, offset: 0x1BF87D, size: 0x8, addend: 0x0, symName: __ZN8firebase9firestore6nanopb10ByteStringaSEOS2_, symObjAddr: 0x328, symBinAddr: 0x2C5F0, symSize: 0x44 }
  - { offsetInCU: 0x6726, offset: 0x1BF909, size: 0x8, addend: 0x0, symName: __ZN8firebase9firestore6nanopb10ByteString4TakeEP16pb_bytes_array_s, symObjAddr: 0x36C, symBinAddr: 0x2C634, symSize: 0x8 }
  - { offsetInCU: 0x674C, offset: 0x1BF92F, size: 0x8, addend: 0x0, symName: __ZN8firebase9firestore6nanopb10ByteString4TakeEP16pb_bytes_array_s, symObjAddr: 0x36C, symBinAddr: 0x2C634, symSize: 0x8 }
  - { offsetInCU: 0x6774, offset: 0x1BF957, size: 0x8, addend: 0x0, symName: __ZN8firebase9firestore6nanopb10ByteString4TakeEP16pb_bytes_array_s, symObjAddr: 0x36C, symBinAddr: 0x2C634, symSize: 0x8 }
  - { offsetInCU: 0x679C, offset: 0x1BF97F, size: 0x8, addend: 0x0, symName: __ZN8firebase9firestore6nanopb10ByteString7releaseEv, symObjAddr: 0x374, symBinAddr: 0x2C63C, symSize: 0x10 }
  - { offsetInCU: 0x67F0, offset: 0x1BF9D3, size: 0x8, addend: 0x0, symName: __ZNK8firebase9firestore6nanopb10ByteString9CompareToERKS2_, symObjAddr: 0x398, symBinAddr: 0x2C660, symSize: 0x58 }
  - { offsetInCU: 0x68B3, offset: 0x1BFA96, size: 0x8, addend: 0x0, symName: __ZNK8firebase9firestore6nanopb10ByteString4HashEv, symObjAddr: 0x3F0, symBinAddr: 0x2C6B8, symSize: 0x6C }
  - { offsetInCU: 0x68DC, offset: 0x1BFABF, size: 0x8, addend: 0x0, symName: __ZNK8firebase9firestore6nanopb10ByteString4HashEv, symObjAddr: 0x3F0, symBinAddr: 0x2C6B8, symSize: 0x6C }
  - { offsetInCU: 0x68F7, offset: 0x1BFADA, size: 0x8, addend: 0x0, symName: __ZNK8firebase9firestore6nanopb10ByteString4HashEv, symObjAddr: 0x3F0, symBinAddr: 0x2C6B8, symSize: 0x6C }
  - { offsetInCU: 0x6A68, offset: 0x1BFC4B, size: 0x8, addend: 0x0, symName: __ZNK8firebase9firestore6nanopb10ByteString8ToStringEv, symObjAddr: 0x45C, symBinAddr: 0x2C724, symSize: 0x24 }
  - { offsetInCU: 0x6D0F, offset: 0x1BFEF2, size: 0x8, addend: 0x0, symName: __ZNK8firebase9firestore6nanopb10ByteString11ToHexStringEv, symObjAddr: 0x50C, symBinAddr: 0x2C7D4, symSize: 0xD8 }
  - { offsetInCU: 0xAFB, offset: 0x1C1387, size: 0x8, addend: 0x0, symName: __ZN8firebase9firestore4util20ThrowInvalidArgumentIJNSt3__112basic_stringIcNS3_11char_traitsIcEENS3_9allocatorIcEEEEmEEEvPKcDpRKT_, symObjAddr: 0xA0C, symBinAddr: 0x2D2B8, symSize: 0x50 }
  - { offsetInCU: 0xECA, offset: 0x1C1756, size: 0x8, addend: 0x0, symName: __ZN8firebase9firestore4util12StringFormatIJNSt3__112basic_stringIcNS3_11char_traitsIcEENS3_9allocatorIcEEEEmEEES9_PKcDpRKT_, symObjAddr: 0xA5C, symBinAddr: 0x2D308, symSize: 0x98 }
  - { offsetInCU: 0x2D28, offset: 0x1C35B4, size: 0x8, addend: 0x0, symName: __ZN8firebase9firestore3apieqERKNS1_19CollectionReferenceES4_, symObjAddr: 0x1DC, symBinAddr: 0x2CA88, symSize: 0x24 }
  - { offsetInCU: 0x2D68, offset: 0x1C35F4, size: 0x8, addend: 0x0, symName: __ZN8firebase9firestore3apieqERKNS1_19CollectionReferenceES4_, symObjAddr: 0x1DC, symBinAddr: 0x2CA88, symSize: 0x24 }
  - { offsetInCU: 0x2D8A, offset: 0x1C3616, size: 0x8, addend: 0x0, symName: __ZN8firebase9firestore3apieqERKNS1_19CollectionReferenceES4_, symObjAddr: 0x1DC, symBinAddr: 0x2CA88, symSize: 0x24 }
  - { offsetInCU: 0xB833, offset: 0x1CC0BF, size: 0x8, addend: 0x0, symName: __ZNSt3__121__unwrap_and_dispatchB8ue170006INS_10__overloadINS_11__copy_loopINS_17_ClassicAlgPolicyEEENS_14__copy_trivialEEENS_11__wrap_iterIPKNS_12basic_stringIcNS_11char_traitsIcEENS_9allocatorIcEEEEEESG_PSD_Li0EEENS_4pairIT0_T2_EESJ_T1_SK_, symObjAddr: 0x1C98, symBinAddr: 0x2D9E0, symSize: 0x5C }
  - { offsetInCU: 0xBC77, offset: 0x1CC503, size: 0x8, addend: 0x0, symName: __ZNSt3__142__uninitialized_allocator_move_if_noexceptB8ue170006INS_9allocatorINS_12basic_stringIcNS_11char_traitsIcEENS1_IcEEEEEEPS6_S8_S8_EET2_RT_T0_T1_S9_, symObjAddr: 0x1D90, symBinAddr: 0x2DA3C, symSize: 0x7C }
  - { offsetInCU: 0xC730, offset: 0x1CCFBC, size: 0x8, addend: 0x0, symName: __ZNSt3__16vectorINS_12basic_stringIcNS_11char_traitsIcEENS_9allocatorIcEEEENS4_IS6_EEE26__swap_out_circular_bufferERNS_14__split_bufferIS6_RS7_EEPS6_, symObjAddr: 0x1B5C, symBinAddr: 0x2D8A4, symSize: 0xB0 }
  - { offsetInCU: 0xEC3C, offset: 0x1CF4C8, size: 0x8, addend: 0x0, symName: __ZN8firebase9firestore3api19CollectionReferenceC2ENS0_5model12ResourcePathENSt3__110shared_ptrINS1_9FirestoreEEE, symObjAddr: 0x0, symBinAddr: 0x2C8AC, symSize: 0x1D8 }
  - { offsetInCU: 0xF6C5, offset: 0x1CFF51, size: 0x8, addend: 0x0, symName: __ZN8firebase9firestore4core5QueryC2ENS0_5model12ResourcePathENSt3__110shared_ptrIKNS5_12basic_stringIcNS5_11char_traitsIcEENS5_9allocatorIcEEEEEE, symObjAddr: 0xB38, symBinAddr: 0x2D3A0, symSize: 0x240 }
  - { offsetInCU: 0x10B21, offset: 0x1D13AD, size: 0x8, addend: 0x0, symName: __ZN8firebase9firestore3api19CollectionReferenceC1ENS0_5model12ResourcePathENSt3__110shared_ptrINS1_9FirestoreEEE, symObjAddr: 0x1D8, symBinAddr: 0x2CA84, symSize: 0x4 }
  - { offsetInCU: 0x10B6A, offset: 0x1D13F6, size: 0x8, addend: 0x0, symName: __ZN8firebase9firestore3api19CollectionReferenceC1ENS0_5model12ResourcePathENSt3__110shared_ptrINS1_9FirestoreEEE, symObjAddr: 0x1D8, symBinAddr: 0x2CA84, symSize: 0x4 }
  - { offsetInCU: 0x10D6E, offset: 0x1D15FA, size: 0x8, addend: 0x0, symName: __ZNK8firebase9firestore3api19CollectionReference4HashEv, symObjAddr: 0x200, symBinAddr: 0x2CAAC, symSize: 0x68 }
  - { offsetInCU: 0x10F87, offset: 0x1D1813, size: 0x8, addend: 0x0, symName: __ZNK8firebase9firestore3api19CollectionReference13collection_idEv, symObjAddr: 0x268, symBinAddr: 0x2CB14, symSize: 0x8 }
  - { offsetInCU: 0x10FB0, offset: 0x1D183C, size: 0x8, addend: 0x0, symName: __ZNK8firebase9firestore3api19CollectionReference13collection_idEv, symObjAddr: 0x268, symBinAddr: 0x2CB14, symSize: 0x8 }
  - { offsetInCU: 0x10FD7, offset: 0x1D1863, size: 0x8, addend: 0x0, symName: __ZNK8firebase9firestore5model4impl8BasePathINS1_12ResourcePathEE12last_segmentEv, symObjAddr: 0x270, symBinAddr: 0x2CB1C, symSize: 0x8C }
  - { offsetInCU: 0x1155F, offset: 0x1D1DEB, size: 0x8, addend: 0x0, symName: __ZNK8firebase9firestore3api19CollectionReference6parentEv, symObjAddr: 0x2FC, symBinAddr: 0x2CBA8, symSize: 0xC8 }
  - { offsetInCU: 0x11B3A, offset: 0x1D23C6, size: 0x8, addend: 0x0, symName: __ZNK8firebase9firestore5model4impl8BasePathINS1_12ResourcePathEE7PopLastEv, symObjAddr: 0x3C4, symBinAddr: 0x2CC70, symSize: 0xAC }
  - { offsetInCU: 0x12217, offset: 0x1D2AA3, size: 0x8, addend: 0x0, symName: __ZNK8firebase9firestore3api19CollectionReference4pathEv, symObjAddr: 0x470, symBinAddr: 0x2CD1C, symSize: 0x8 }
  - { offsetInCU: 0x12240, offset: 0x1D2ACC, size: 0x8, addend: 0x0, symName: __ZNK8firebase9firestore3api19CollectionReference4pathEv, symObjAddr: 0x470, symBinAddr: 0x2CD1C, symSize: 0x8 }
  - { offsetInCU: 0x1225A, offset: 0x1D2AE6, size: 0x8, addend: 0x0, symName: __ZNK8firebase9firestore3api19CollectionReference8DocumentERKNSt3__112basic_stringIcNS3_11char_traitsIcEENS3_9allocatorIcEEEE, symObjAddr: 0x478, symBinAddr: 0x2CD24, symSize: 0x13C }
  - { offsetInCU: 0x12B01, offset: 0x1D338D, size: 0x8, addend: 0x0, symName: __ZNK8firebase9firestore5model4impl8BasePathINS1_12ResourcePathEE6AppendERKS4_, symObjAddr: 0x5B4, symBinAddr: 0x2CE60, symSize: 0xB0 }
  - { offsetInCU: 0x13119, offset: 0x1D39A5, size: 0x8, addend: 0x0, symName: __ZNSt3__16vectorINS_12basic_stringIcNS_11char_traitsIcEENS_9allocatorIcEEEENS4_IS6_EEE18__insert_with_sizeB8ue170006INS_11__wrap_iterIPKS6_EESD_EENSA_IPS6_EESD_T_T0_l, symObjAddr: 0x1898, symBinAddr: 0x2D5E0, symSize: 0x1C8 }
  - { offsetInCU: 0x137C2, offset: 0x1D404E, size: 0x8, addend: 0x0, symName: __ZNK8firebase9firestore3api19CollectionReference11AddDocumentEONS0_4core13ParsedSetDataENSt3__18functionIFvNS0_4util6StatusEEEE, symObjAddr: 0x664, symBinAddr: 0x2CF10, symSize: 0xFC }
  - { offsetInCU: 0x13A9A, offset: 0x1D4326, size: 0x8, addend: 0x0, symName: __ZNK8firebase9firestore3api19CollectionReference8DocumentEv, symObjAddr: 0x760, symBinAddr: 0x2D00C, symSize: 0x10C }
  - { offsetInCU: 0x14230, offset: 0x1D4ABC, size: 0x8, addend: 0x0, symName: __ZNSt3__110__function12__value_funcIFvN8firebase9firestore4util6StatusEEEC2B8ue170006EOS7_, symObjAddr: 0x1F0C, symBinAddr: 0x2DAB8, symSize: 0x64 }
  - { offsetInCU: 0x142E6, offset: 0x1D4B72, size: 0x8, addend: 0x0, symName: __ZNK8firebase9firestore5model4impl8BasePathINS1_12ResourcePathEE6AppendEONSt3__112basic_stringIcNS6_11char_traitsIcEENS6_9allocatorIcEEEE, symObjAddr: 0x86C, symBinAddr: 0x2D118, symSize: 0x1A0 }
  - { offsetInCU: 0x1500A, offset: 0x1D5896, size: 0x8, addend: 0x0, symName: __ZN8firebase9firestore4core5QueryC2ENS0_5model12ResourcePathENSt3__110shared_ptrIKNS5_12basic_stringIcNS5_11char_traitsIcEENS5_9allocatorIcEEEEEE, symObjAddr: 0xB38, symBinAddr: 0x2D3A0, symSize: 0x240 }
  - { offsetInCU: 0x169D9, offset: 0x1D7265, size: 0x8, addend: 0x0, symName: __ZNSt3__16vectorINS_12basic_stringIcNS_11char_traitsIcEENS_9allocatorIcEEEENS4_IS6_EEE12__move_rangeEPS6_S9_S9_, symObjAddr: 0x1A60, symBinAddr: 0x2D7A8, symSize: 0x6C }
  - { offsetInCU: 0x16C51, offset: 0x1D74DD, size: 0x8, addend: 0x0, symName: __ZNSt3__114__split_bufferINS_12basic_stringIcNS_11char_traitsIcEENS_9allocatorIcEEEERNS4_IS6_EEE28__construct_at_end_with_sizeINS_11__wrap_iterIPKS6_EEEEvT_m, symObjAddr: 0x1ACC, symBinAddr: 0x2D814, symSize: 0x90 }
  - { offsetInCU: 0x16E4C, offset: 0x1D76D8, size: 0x8, addend: 0x0, symName: __ZNKSt3__120__move_backward_loopINS_17_ClassicAlgPolicyEEclB8ue170006IPNS_12basic_stringIcNS_11char_traitsIcEENS_9allocatorIcEEEESA_SA_EENS_4pairIT_T1_EESC_T0_SD_, symObjAddr: 0x1C0C, symBinAddr: 0x2D954, symSize: 0x8C }
  - { offsetInCU: 0x26, offset: 0x1D7D31, size: 0x8, addend: 0x0, symName: __ZNK8firebase9firestore33_google_firestore_v1_DocumentMask8ToStringEi, symObjAddr: 0x0, symBinAddr: 0x2DB1C, symSize: 0x220 }
  - { offsetInCU: 0x4A, offset: 0x1D7D55, size: 0x8, addend: 0x0, symName: __ZN8firebase9firestore39google_firestore_v1_DocumentMask_fieldsE, symObjAddr: 0x1958, symBinAddr: 0x183200, symSize: 0x0 }
  - { offsetInCU: 0x64, offset: 0x1D7D6F, size: 0x8, addend: 0x0, symName: __ZN8firebase9firestore39google_firestore_v1_Precondition_fieldsE, symObjAddr: 0x19D8, symBinAddr: 0x22DC60, symSize: 0x0 }
  - { offsetInCU: 0x7E, offset: 0x1D7D89, size: 0x8, addend: 0x0, symName: __ZN8firebase9firestore45google_firestore_v1_TransactionOptions_fieldsE, symObjAddr: 0x1A78, symBinAddr: 0x22DD00, symSize: 0x0 }
  - { offsetInCU: 0x98, offset: 0x1D7DA3, size: 0x8, addend: 0x0, symName: __ZN8firebase9firestore55google_firestore_v1_TransactionOptions_ReadWrite_fieldsE, symObjAddr: 0x1998, symBinAddr: 0x183240, symSize: 0x0 }
  - { offsetInCU: 0xB2, offset: 0x1D7DBD, size: 0x8, addend: 0x0, symName: __ZN8firebase9firestore54google_firestore_v1_TransactionOptions_ReadOnly_fieldsE, symObjAddr: 0x1A38, symBinAddr: 0x22DCC0, symSize: 0x0 }
  - { offsetInCU: 0x1222, offset: 0x1D8F2D, size: 0x8, addend: 0x0, symName: __ZN8firebase9firestore6nanopb17PrintMessageFieldINS0_48_google_firestore_v1_TransactionOptions_ReadOnlyEEENSt3__112basic_stringIcNS4_11char_traitsIcEENS4_9allocatorIcEEEEN4absl12lts_2022062311string_viewERKT_ib, symObjAddr: 0xCF4, symBinAddr: 0x2E1BC, symSize: 0x274 }
  - { offsetInCU: 0x1EC8, offset: 0x1D9BD3, size: 0x8, addend: 0x0, symName: __ZN8firebase9firestore6nanopb17PrintMessageFieldINS0_49_google_firestore_v1_TransactionOptions_ReadWriteEEENSt3__112basic_stringIcNS4_11char_traitsIcEENS4_9allocatorIcEEEEN4absl12lts_2022062311string_viewERKT_ib, symObjAddr: 0xF68, symBinAddr: 0x2E430, symSize: 0x274 }
  - { offsetInCU: 0x778C, offset: 0x1DF497, size: 0x8, addend: 0x0, symName: __ZNK8firebase9firestore33_google_firestore_v1_DocumentMask8ToStringEi, symObjAddr: 0x0, symBinAddr: 0x2DB1C, symSize: 0x220 }
  - { offsetInCU: 0x8A2A, offset: 0x1E0735, size: 0x8, addend: 0x0, symName: __ZNK8firebase9firestore33_google_firestore_v1_Precondition8ToStringEi, symObjAddr: 0x474, symBinAddr: 0x2DD3C, symSize: 0x240 }
  - { offsetInCU: 0x96AE, offset: 0x1E13B9, size: 0x8, addend: 0x0, symName: __ZNK8firebase9firestore39_google_firestore_v1_TransactionOptions8ToStringEi, symObjAddr: 0xAB4, symBinAddr: 0x2DF7C, symSize: 0x240 }
  - { offsetInCU: 0xA31A, offset: 0x1E2025, size: 0x8, addend: 0x0, symName: __ZNK8firebase9firestore48_google_firestore_v1_TransactionOptions_ReadOnly8ToStringEi, symObjAddr: 0x13B8, symBinAddr: 0x2E880, symSize: 0x200 }
  - { offsetInCU: 0xAFCB, offset: 0x1E2CD6, size: 0x8, addend: 0x0, symName: __ZNK8firebase9firestore49_google_firestore_v1_TransactionOptions_ReadWrite8ToStringEi, symObjAddr: 0x11DC, symBinAddr: 0x2E6A4, symSize: 0x1DC }
  - { offsetInCU: 0x26, offset: 0x1E3B8F, size: 0x8, addend: 0x0, symName: __ZNK8firebase9firestore4util10ComparatorIN4absl12lts_2022062311string_viewEE7CompareES5_S5_, symObjAddr: 0x0, symBinAddr: 0x2EA80, symSize: 0x38 }
  - { offsetInCU: 0x196, offset: 0x1E3CFF, size: 0x8, addend: 0x0, symName: __ZN8firebase9firestore4util18CompareMixedNumberEdx, symObjAddr: 0x138, symBinAddr: 0x2EBB8, symSize: 0x74 }
  - { offsetInCU: 0x254, offset: 0x1E3DBD, size: 0x8, addend: 0x0, symName: __ZN8firebase9firestore4util10DoubleBitsEd, symObjAddr: 0x1AC, symBinAddr: 0x2EC2C, symSize: 0x18 }
  - { offsetInCU: 0x2A2, offset: 0x1E3E0B, size: 0x8, addend: 0x0, symName: __ZN8firebase9firestore4util19DoubleBitwiseEqualsEdd, symObjAddr: 0x1C4, symBinAddr: 0x2EC44, symSize: 0x2C }
  - { offsetInCU: 0x2E1, offset: 0x1E3E4A, size: 0x8, addend: 0x0, symName: __ZN8firebase9firestore4util19DoubleBitwiseEqualsEdd, symObjAddr: 0x1C4, symBinAddr: 0x2EC44, symSize: 0x2C }
  - { offsetInCU: 0x341, offset: 0x1E3EAA, size: 0x8, addend: 0x0, symName: __ZN8firebase9firestore4util17DoubleBitwiseHashEd, symObjAddr: 0x1F0, symBinAddr: 0x2EC70, symSize: 0x1C }
  - { offsetInCU: 0x381, offset: 0x1E3EEA, size: 0x8, addend: 0x0, symName: __ZN8firebase9firestore4util17DoubleBitwiseHashEd, symObjAddr: 0x1F0, symBinAddr: 0x2EC70, symSize: 0x1C }
  - { offsetInCU: 0x446E, offset: 0x1E7FD7, size: 0x8, addend: 0x0, symName: __ZNK8firebase9firestore4util10ComparatorIN4absl12lts_2022062311string_viewEE7CompareES5_S5_, symObjAddr: 0x0, symBinAddr: 0x2EA80, symSize: 0x38 }
  - { offsetInCU: 0x44EC, offset: 0x1E8055, size: 0x8, addend: 0x0, symName: __ZNK4absl12lts_2022062311string_view7compareES1_, symObjAddr: 0x38, symBinAddr: 0x2EAB8, symSize: 0x54 }
  - { offsetInCU: 0x473B, offset: 0x1E82A4, size: 0x8, addend: 0x0, symName: __ZNK8firebase9firestore4util10ComparatorINSt3__112basic_stringIcNS3_11char_traitsIcEENS3_9allocatorIcEEEEE7CompareERKS9_SC_, symObjAddr: 0x8C, symBinAddr: 0x2EB0C, symSize: 0x7C }
  - { offsetInCU: 0x4913, offset: 0x1E847C, size: 0x8, addend: 0x0, symName: __ZNK8firebase9firestore4util10ComparatorIdE7CompareEdd, symObjAddr: 0x108, symBinAddr: 0x2EB88, symSize: 0x30 }
  - { offsetInCU: 0x26, offset: 0x1E8589, size: 0x8, addend: 0x0, symName: __ZN8firebase9firestore4core15CompositeFilter6CreateEONSt3__16vectorINS1_6FilterENS3_9allocatorIS5_EEEENS2_8OperatorE, symObjAddr: 0x0, symBinAddr: 0x2EC8C, symSize: 0x178 }
  - { offsetInCU: 0x7854, offset: 0x1EFDB7, size: 0x8, addend: 0x0, symName: __ZNSt3__115allocate_sharedB8ue170006IKN8firebase9firestore4core15CompositeFilter3RepENS_9allocatorIS6_EEJS5_EvEENS_10shared_ptrIT_EERKT0_DpOT1_, symObjAddr: 0xE58, symBinAddr: 0x2F7D8, symSize: 0x58 }
  - { offsetInCU: 0x8E66, offset: 0x1F13C9, size: 0x8, addend: 0x0, symName: __ZNSt3__117__call_once_proxyB8ue170006INS_5tupleIJOZN8firebase9firestore4util18ThreadSafeMemoizerINS_6vectorINS3_4core11FieldFilterENS_9allocatorIS8_EEEEE7memoizeENS_8functionIFSB_vEEEEUlvE_EEEEEvPv, symObjAddr: 0x1440, symBinAddr: 0x2FD28, symSize: 0x4 }
  - { offsetInCU: 0x8EA2, offset: 0x1F1405, size: 0x8, addend: 0x0, symName: __ZNSt3__117__call_once_proxyB8ue170006INS_5tupleIJOZN8firebase9firestore4util18ThreadSafeMemoizerINS_6vectorINS3_4core11FieldFilterENS_9allocatorIS8_EEEEE7memoizeENS_8functionIFSB_vEEEEUlvE_EEEEEvPv, symObjAddr: 0x1440, symBinAddr: 0x2FD28, symSize: 0x4 }
  - { offsetInCU: 0x8EC0, offset: 0x1F1423, size: 0x8, addend: 0x0, symName: __ZNSt3__117__call_once_proxyB8ue170006INS_5tupleIJOZN8firebase9firestore4util18ThreadSafeMemoizerINS_6vectorINS3_4core11FieldFilterENS_9allocatorIS8_EEEEE7memoizeENS_8functionIFSB_vEEEEUlvE_EEEEEvPv, symObjAddr: 0x1440, symBinAddr: 0x2FD28, symSize: 0x4 }
  - { offsetInCU: 0x9148, offset: 0x1F16AB, size: 0x8, addend: 0x0, symName: __ZNSt3__121__unwrap_and_dispatchB8ue170006INS_10__overloadINS_11__copy_loopINS_17_ClassicAlgPolicyEEENS_14__copy_trivialEEENS_11__wrap_iterIPKN8firebase9firestore4core11FieldFilterEEESE_NS_20back_insert_iteratorINS_6vectorISB_NS_9allocatorISB_EEEEEELi0EEENS_4pairIT0_T2_EESM_T1_SN_, symObjAddr: 0x16C0, symBinAddr: 0x2FFA8, symSize: 0x60 }
  - { offsetInCU: 0x9461, offset: 0x1F19C4, size: 0x8, addend: 0x0, symName: __ZNSt3__119__allocate_at_leastB8ue170006INS_9allocatorIN8firebase9firestore4core11FieldFilterEEEEENS_19__allocation_resultINS_16allocator_traitsIT_E7pointerEEERS9_m, symObjAddr: 0x18C4, symBinAddr: 0x301AC, symSize: 0x34 }
  - { offsetInCU: 0x94FF, offset: 0x1F1A62, size: 0x8, addend: 0x0, symName: __ZNSt3__114__split_bufferIN8firebase9firestore4core11FieldFilterERNS_9allocatorIS4_EEED2Ev, symObjAddr: 0x18F8, symBinAddr: 0x301E0, symSize: 0x4C }
  - { offsetInCU: 0x9BBD, offset: 0x1F2120, size: 0x8, addend: 0x0, symName: __ZN8firebase9firestore4util12StringFormatIJPKcNSt3__112basic_stringIcNS5_11char_traitsIcEENS5_9allocatorIcEEEEEEESB_S4_DpRKT_, symObjAddr: 0x704, symBinAddr: 0x2F390, symSize: 0xB0 }
  - { offsetInCU: 0xB0B2, offset: 0x1F3615, size: 0x8, addend: 0x0, symName: __ZNSt3__16vectorIN8firebase9firestore4core6FilterENS_9allocatorIS4_EEE26__swap_out_circular_bufferERNS_14__split_bufferIS4_RS6_EEPS4_, symObjAddr: 0x1228, symBinAddr: 0x2FBA8, symSize: 0xA4 }
  - { offsetInCU: 0xB418, offset: 0x1F397B, size: 0x8, addend: 0x0, symName: __ZN8firebase9firestore4util18ThreadSafeMemoizerINSt3__16vectorINS0_4core11FieldFilterENS3_9allocatorIS6_EEEEE7memoizeENS3_8functionIFS9_vEEE, symObjAddr: 0xA48, symBinAddr: 0x2F6D4, symSize: 0x5C }
  - { offsetInCU: 0xB65F, offset: 0x1F3BC2, size: 0x8, addend: 0x0, symName: __ZNK8firebase9firestore4core15CompositeFilter3Rep19GetFlattenedFiltersEv, symObjAddr: 0x96C, symBinAddr: 0x2F5F8, symSize: 0xDC }
  - { offsetInCU: 0xDC1E, offset: 0x1F6181, size: 0x8, addend: 0x0, symName: __ZN8firebase9firestore4core15CompositeFilter6CreateEONSt3__16vectorINS1_6FilterENS3_9allocatorIS5_EEEENS2_8OperatorE, symObjAddr: 0x0, symBinAddr: 0x2EC8C, symSize: 0x178 }
  - { offsetInCU: 0xE211, offset: 0x1F6774, size: 0x8, addend: 0x0, symName: __ZN8firebase9firestore4core15CompositeFilter3RepD1Ev, symObjAddr: 0x1F0, symBinAddr: 0x2EE7C, symSize: 0x5C }
  - { offsetInCU: 0xE32E, offset: 0x1F6891, size: 0x8, addend: 0x0, symName: __ZN8firebase9firestore4core15CompositeFilter3RepC1EONSt3__16vectorINS1_6FilterENS4_9allocatorIS6_EEEENS2_8OperatorE, symObjAddr: 0x178, symBinAddr: 0x2EE04, symSize: 0x54 }
  - { offsetInCU: 0xE3D5, offset: 0x1F6938, size: 0x8, addend: 0x0, symName: __ZN8firebase9firestore4core15CompositeFilterC1EONSt3__110shared_ptrIKNS1_6Filter3RepEEE, symObjAddr: 0x1CC, symBinAddr: 0x2EE58, symSize: 0x24 }
  - { offsetInCU: 0xE3FE, offset: 0x1F6961, size: 0x8, addend: 0x0, symName: __ZN8firebase9firestore4core15CompositeFilterC1EONSt3__110shared_ptrIKNS1_6Filter3RepEEE, symObjAddr: 0x1CC, symBinAddr: 0x2EE58, symSize: 0x24 }
  - { offsetInCU: 0xE420, offset: 0x1F6983, size: 0x8, addend: 0x0, symName: __ZN8firebase9firestore4core15CompositeFilterC1EONSt3__110shared_ptrIKNS1_6Filter3RepEEE, symObjAddr: 0x1CC, symBinAddr: 0x2EE58, symSize: 0x24 }
  - { offsetInCU: 0xE442, offset: 0x1F69A5, size: 0x8, addend: 0x0, symName: __ZN8firebase9firestore4core15CompositeFilterC1EONSt3__110shared_ptrIKNS1_6Filter3RepEEE, symObjAddr: 0x1CC, symBinAddr: 0x2EE58, symSize: 0x24 }
  - { offsetInCU: 0xE464, offset: 0x1F69C7, size: 0x8, addend: 0x0, symName: __ZN8firebase9firestore4core15CompositeFilterC1EONSt3__110shared_ptrIKNS1_6Filter3RepEEE, symObjAddr: 0x1CC, symBinAddr: 0x2EE58, symSize: 0x24 }
  - { offsetInCU: 0xE532, offset: 0x1F6A95, size: 0x8, addend: 0x0, symName: __ZN8firebase9firestore4core15CompositeFilterC2EONSt3__110shared_ptrIKNS1_6Filter3RepEEE, symObjAddr: 0x24C, symBinAddr: 0x2EED8, symSize: 0x24 }
  - { offsetInCU: 0xE55B, offset: 0x1F6ABE, size: 0x8, addend: 0x0, symName: __ZN8firebase9firestore4core15CompositeFilterC2EONSt3__110shared_ptrIKNS1_6Filter3RepEEE, symObjAddr: 0x24C, symBinAddr: 0x2EED8, symSize: 0x24 }
  - { offsetInCU: 0xE57D, offset: 0x1F6AE0, size: 0x8, addend: 0x0, symName: __ZN8firebase9firestore4core15CompositeFilterC2EONSt3__110shared_ptrIKNS1_6Filter3RepEEE, symObjAddr: 0x24C, symBinAddr: 0x2EED8, symSize: 0x24 }
  - { offsetInCU: 0xE59F, offset: 0x1F6B02, size: 0x8, addend: 0x0, symName: __ZN8firebase9firestore4core15CompositeFilterC2EONSt3__110shared_ptrIKNS1_6Filter3RepEEE, symObjAddr: 0x24C, symBinAddr: 0x2EED8, symSize: 0x24 }
  - { offsetInCU: 0xE61C, offset: 0x1F6B7F, size: 0x8, addend: 0x0, symName: __ZN8firebase9firestore4core15CompositeFilter3RepC2EONSt3__16vectorINS1_6FilterENS4_9allocatorIS6_EEEENS2_8OperatorE, symObjAddr: 0x270, symBinAddr: 0x2EEFC, symSize: 0x54 }
  - { offsetInCU: 0xE7FB, offset: 0x1F6D5E, size: 0x8, addend: 0x0, symName: __ZN8firebase9firestore4core15CompositeFilterC2ERKNS1_6FilterE, symObjAddr: 0x2C4, symBinAddr: 0x2EF50, symSize: 0xC0 }
  - { offsetInCU: 0xEBA5, offset: 0x1F7108, size: 0x8, addend: 0x0, symName: __ZN8firebase9firestore4core15CompositeFilterC1ERKNS1_6FilterE, symObjAddr: 0x384, symBinAddr: 0x2F010, symSize: 0x4 }
  - { offsetInCU: 0xEBDF, offset: 0x1F7142, size: 0x8, addend: 0x0, symName: __ZN8firebase9firestore4core15CompositeFilterC1ERKNS1_6FilterE, symObjAddr: 0x384, symBinAddr: 0x2F010, symSize: 0x4 }
  - { offsetInCU: 0xEBF9, offset: 0x1F715C, size: 0x8, addend: 0x0, symName: __ZNK8firebase9firestore4core15CompositeFilter3Rep13IsConjunctionEv, symObjAddr: 0x388, symBinAddr: 0x2F014, symSize: 0x10 }
  - { offsetInCU: 0xEC1B, offset: 0x1F717E, size: 0x8, addend: 0x0, symName: __ZNK8firebase9firestore4core15CompositeFilter3Rep13IsDisjunctionEv, symObjAddr: 0x398, symBinAddr: 0x2F024, symSize: 0x10 }
  - { offsetInCU: 0xEC72, offset: 0x1F71D5, size: 0x8, addend: 0x0, symName: __ZNK8firebase9firestore4core15CompositeFilter3Rep6IsFlatEv, symObjAddr: 0x3A8, symBinAddr: 0x2F034, symSize: 0x50 }
  - { offsetInCU: 0xEDD9, offset: 0x1F733C, size: 0x8, addend: 0x0, symName: __ZNK8firebase9firestore4core15CompositeFilter3Rep7MatchesERKNS0_5model8DocumentE, symObjAddr: 0x3F8, symBinAddr: 0x2F084, symSize: 0xA4 }
  - { offsetInCU: 0xF079, offset: 0x1F75DC, size: 0x8, addend: 0x0, symName: __ZNK8firebase9firestore4core15CompositeFilter3Rep11CanonicalIdEv, symObjAddr: 0x49C, symBinAddr: 0x2F128, symSize: 0x268 }
  - { offsetInCU: 0x101B0, offset: 0x1F8713, size: 0x8, addend: 0x0, symName: __ZNK8firebase9firestore4core15CompositeFilter3Rep6EqualsERKNS1_6Filter3RepE, symObjAddr: 0x7B4, symBinAddr: 0x2F440, symSize: 0x9C }
  - { offsetInCU: 0x10471, offset: 0x1F89D4, size: 0x8, addend: 0x0, symName: __ZN8firebase9firestore4core15CompositeFilter16WithAddedFiltersERKNSt3__16vectorINS1_6FilterENS3_9allocatorIS5_EEEE, symObjAddr: 0x850, symBinAddr: 0x2F4DC, symSize: 0xB0 }
  - { offsetInCU: 0x10A61, offset: 0x1F8FC4, size: 0x8, addend: 0x0, symName: __ZNSt3__16vectorIN8firebase9firestore4core6FilterENS_9allocatorIS4_EEE18__insert_with_sizeB8ue170006INS_11__wrap_iterIPKS4_EESC_EENS9_IPS4_EESC_T_T0_l, symObjAddr: 0xFC0, symBinAddr: 0x2F940, symSize: 0x1EC }
  - { offsetInCU: 0x11395, offset: 0x1F98F8, size: 0x8, addend: 0x0, symName: __ZNK8firebase9firestore4core15CompositeFilter3Rep23FindFirstMatchingFilterERKNSt3__18functionIFbRKNS1_11FieldFilterEEEE, symObjAddr: 0x900, symBinAddr: 0x2F58C, symSize: 0x6C }
  - { offsetInCU: 0x114AC, offset: 0x1F9A0F, size: 0x8, addend: 0x0, symName: __ZNK8firebase9firestore4core15CompositeFilter3Rep19GetFlattenedFiltersEv, symObjAddr: 0x96C, symBinAddr: 0x2F5F8, symSize: 0xDC }
  - { offsetInCU: 0x118EA, offset: 0x1F9E4D, size: 0x8, addend: 0x0, symName: __ZN8firebase9firestore4core15CompositeFilter3RepD0Ev, symObjAddr: 0xAA4, symBinAddr: 0x2F730, symSize: 0x60 }
  - { offsetInCU: 0x11A2D, offset: 0x1F9F90, size: 0x8, addend: 0x0, symName: __ZNK8firebase9firestore4core15CompositeFilter3Rep4typeEv, symObjAddr: 0xB04, symBinAddr: 0x2F790, symSize: 0x8 }
  - { offsetInCU: 0x11A52, offset: 0x1F9FB5, size: 0x8, addend: 0x0, symName: __ZNK8firebase9firestore4core15CompositeFilter3Rep18IsACompositeFilterEv, symObjAddr: 0xB14, symBinAddr: 0x2F798, symSize: 0x8 }
  - { offsetInCU: 0x11A77, offset: 0x1F9FDA, size: 0x8, addend: 0x0, symName: __ZNK8firebase9firestore4core15CompositeFilter3Rep8ToStringEv, symObjAddr: 0xB24, symBinAddr: 0x2F7A0, symSize: 0xC }
  - { offsetInCU: 0x11AC9, offset: 0x1FA02C, size: 0x8, addend: 0x0, symName: __ZNK8firebase9firestore4core15CompositeFilter3Rep7IsEmptyEv, symObjAddr: 0xB30, symBinAddr: 0x2F7AC, symSize: 0x10 }
  - { offsetInCU: 0x11AF0, offset: 0x1FA053, size: 0x8, addend: 0x0, symName: __ZNK8firebase9firestore4core15CompositeFilter3Rep7IsEmptyEv, symObjAddr: 0xB30, symBinAddr: 0x2F7AC, symSize: 0x10 }
  - { offsetInCU: 0x11B0C, offset: 0x1FA06F, size: 0x8, addend: 0x0, symName: __ZNK8firebase9firestore4core15CompositeFilter3Rep10GetFiltersEv, symObjAddr: 0xB40, symBinAddr: 0x2F7BC, symSize: 0x1C }
  - { offsetInCU: 0x11B33, offset: 0x1FA096, size: 0x8, addend: 0x0, symName: __ZNK8firebase9firestore4core15CompositeFilter3Rep10GetFiltersEv, symObjAddr: 0xB40, symBinAddr: 0x2F7BC, symSize: 0x1C }
  - { offsetInCU: 0x11B57, offset: 0x1FA0BA, size: 0x8, addend: 0x0, symName: __ZNK8firebase9firestore4core15CompositeFilter3Rep10GetFiltersEv, symObjAddr: 0xB40, symBinAddr: 0x2F7BC, symSize: 0x1C }
  - { offsetInCU: 0x12211, offset: 0x1FA774, size: 0x8, addend: 0x0, symName: __ZNSt3__120__shared_ptr_emplaceIKN8firebase9firestore4core15CompositeFilter3RepENS_9allocatorIS6_EEEC2B8ue170006IJS5_EEES8_DpOT_, symObjAddr: 0xEB0, symBinAddr: 0x2F830, symSize: 0xC8 }
  - { offsetInCU: 0x1255D, offset: 0x1FAAC0, size: 0x8, addend: 0x0, symName: __ZNSt3__120__shared_ptr_emplaceIKN8firebase9firestore4core15CompositeFilter3RepENS_9allocatorIS6_EEED1Ev, symObjAddr: 0xF78, symBinAddr: 0x2F8F8, symSize: 0x14 }
  - { offsetInCU: 0x1257F, offset: 0x1FAAE2, size: 0x8, addend: 0x0, symName: __ZNSt3__120__shared_ptr_emplaceIKN8firebase9firestore4core15CompositeFilter3RepENS_9allocatorIS6_EEED1Ev, symObjAddr: 0xF78, symBinAddr: 0x2F8F8, symSize: 0x14 }
  - { offsetInCU: 0x125B6, offset: 0x1FAB19, size: 0x8, addend: 0x0, symName: __ZNSt3__120__shared_ptr_emplaceIKN8firebase9firestore4core15CompositeFilter3RepENS_9allocatorIS6_EEED0Ev, symObjAddr: 0xF8C, symBinAddr: 0x2F90C, symSize: 0x24 }
  - { offsetInCU: 0x1261B, offset: 0x1FAB7E, size: 0x8, addend: 0x0, symName: __ZNSt3__120__shared_ptr_emplaceIKN8firebase9firestore4core15CompositeFilter3RepENS_9allocatorIS6_EEE16__on_zero_sharedEv, symObjAddr: 0xFB0, symBinAddr: 0x2F930, symSize: 0xC }
  - { offsetInCU: 0x1264C, offset: 0x1FABAF, size: 0x8, addend: 0x0, symName: __ZNSt3__120__shared_ptr_emplaceIKN8firebase9firestore4core15CompositeFilter3RepENS_9allocatorIS6_EEE21__on_zero_shared_weakEv, symObjAddr: 0xFBC, symBinAddr: 0x2F93C, symSize: 0x4 }
  - { offsetInCU: 0x1267D, offset: 0x1FABE0, size: 0x8, addend: 0x0, symName: __ZNSt3__120__shared_ptr_emplaceIKN8firebase9firestore4core15CompositeFilter3RepENS_9allocatorIS6_EEE21__on_zero_shared_weakEv, symObjAddr: 0xFBC, symBinAddr: 0x2F93C, symSize: 0x4 }
  - { offsetInCU: 0x126A0, offset: 0x1FAC03, size: 0x8, addend: 0x0, symName: __ZNSt3__120__shared_ptr_emplaceIKN8firebase9firestore4core15CompositeFilter3RepENS_9allocatorIS6_EEE21__on_zero_shared_weakEv, symObjAddr: 0xFBC, symBinAddr: 0x2F93C, symSize: 0x4 }
  - { offsetInCU: 0x126C3, offset: 0x1FAC26, size: 0x8, addend: 0x0, symName: __ZNSt3__120__shared_ptr_emplaceIKN8firebase9firestore4core15CompositeFilter3RepENS_9allocatorIS6_EEE21__on_zero_shared_weakEv, symObjAddr: 0xFBC, symBinAddr: 0x2F93C, symSize: 0x4 }
  - { offsetInCU: 0x126F0, offset: 0x1FAC53, size: 0x8, addend: 0x0, symName: __ZNSt3__120__shared_ptr_emplaceIKN8firebase9firestore4core15CompositeFilter3RepENS_9allocatorIS6_EEE21__on_zero_shared_weakEv, symObjAddr: 0xFBC, symBinAddr: 0x2F93C, symSize: 0x4 }
  - { offsetInCU: 0x12717, offset: 0x1FAC7A, size: 0x8, addend: 0x0, symName: __ZNSt3__120__shared_ptr_emplaceIKN8firebase9firestore4core15CompositeFilter3RepENS_9allocatorIS6_EEE21__on_zero_shared_weakEv, symObjAddr: 0xFBC, symBinAddr: 0x2F93C, symSize: 0x4 }
  - { offsetInCU: 0x12C8A, offset: 0x1FB1ED, size: 0x8, addend: 0x0, symName: __ZNSt3__16vectorIN8firebase9firestore4core6FilterENS_9allocatorIS4_EEE12__move_rangeEPS4_S8_S8_, symObjAddr: 0x11AC, symBinAddr: 0x2FB2C, symSize: 0x7C }
  - { offsetInCU: 0x12F36, offset: 0x1FB499, size: 0x8, addend: 0x0, symName: __ZNSt3__110shared_ptrIKN8firebase9firestore4core6Filter3RepEEaSB8ue170006ERKS7_, symObjAddr: 0x1330, symBinAddr: 0x2FCB0, symSize: 0x78 }
  - { offsetInCU: 0x13285, offset: 0x1FB7E8, size: 0x8, addend: 0x0, symName: __ZNSt3__110shared_ptrIKN8firebase9firestore4core6Filter3RepEEaSB8ue170006EOS7_, symObjAddr: 0x12CC, symBinAddr: 0x2FC4C, symSize: 0x64 }
  - { offsetInCU: 0x134BF, offset: 0x1FBA22, size: 0x8, addend: 0x0, symName: __ZNSt3__117__call_once_paramINS_5tupleIJOZN8firebase9firestore4util18ThreadSafeMemoizerINS_6vectorINS3_4core11FieldFilterENS_9allocatorIS8_EEEEE7memoizeENS_8functionIFSB_vEEEEUlvE_EEEE9__executeB8ue170006IJEEEvNS_15__tuple_indicesIJXspT_EEEE, symObjAddr: 0x1444, symBinAddr: 0x2FD2C, symSize: 0x78 }
  - { offsetInCU: 0x13647, offset: 0x1FBBAA, size: 0x8, addend: 0x0, symName: __ZNSt3__16vectorIN8firebase9firestore4core11FieldFilterENS_9allocatorIS4_EEE13__vdeallocateEv, symObjAddr: 0x14BC, symBinAddr: 0x2FDA4, symSize: 0x5C }
  - { offsetInCU: 0x13749, offset: 0x1FBCAC, size: 0x8, addend: 0x0, symName: __ZNSt3__16vectorIN8firebase9firestore4core11FieldFilterENS_9allocatorIS4_EEE13__vdeallocateEv, symObjAddr: 0x14BC, symBinAddr: 0x2FDA4, symSize: 0x5C }
  - { offsetInCU: 0x13978, offset: 0x1FBEDB, size: 0x8, addend: 0x0, symName: __ZNSt3__16vectorIN8firebase9firestore4core11FieldFilterENS_9allocatorIS4_EEE16__destroy_vectorclB8ue170006Ev, symObjAddr: 0x1518, symBinAddr: 0x2FE00, symSize: 0x70 }
  - { offsetInCU: 0x13CA1, offset: 0x1FC204, size: 0x8, addend: 0x0, symName: '__ZNSt3__110__function6__funcIZNK8firebase9firestore4core15CompositeFilter3Rep19GetFlattenedFiltersEvE3$_5NS_9allocatorIS7_EEFNS_6vectorINS4_11FieldFilterENS8_ISB_EEEEvEED1Ev', symObjAddr: 0x1588, symBinAddr: 0x2FE70, symSize: 0x4 }
  - { offsetInCU: 0x13CCC, offset: 0x1FC22F, size: 0x8, addend: 0x0, symName: '__ZNSt3__110__function6__funcIZNK8firebase9firestore4core15CompositeFilter3Rep19GetFlattenedFiltersEvE3$_5NS_9allocatorIS7_EEFNS_6vectorINS4_11FieldFilterENS8_ISB_EEEEvEED0Ev', symObjAddr: 0x158C, symBinAddr: 0x2FE74, symSize: 0x4 }
  - { offsetInCU: 0x13EC4, offset: 0x1FC427, size: 0x8, addend: 0x0, symName: '__ZNKSt3__110__function6__funcIZNK8firebase9firestore4core15CompositeFilter3Rep19GetFlattenedFiltersEvE3$_5NS_9allocatorIS7_EEFNS_6vectorINS4_11FieldFilterENS8_ISB_EEEEvEE7__cloneEv', symObjAddr: 0x1590, symBinAddr: 0x2FE78, symSize: 0x34 }
  - { offsetInCU: 0x141B4, offset: 0x1FC717, size: 0x8, addend: 0x0, symName: '__ZNKSt3__110__function6__funcIZNK8firebase9firestore4core15CompositeFilter3Rep19GetFlattenedFiltersEvE3$_5NS_9allocatorIS7_EEFNS_6vectorINS4_11FieldFilterENS8_ISB_EEEEvEE7__cloneEPNS0_6__baseISE_EE', symObjAddr: 0x15C4, symBinAddr: 0x2FEAC, symSize: 0x14 }
  - { offsetInCU: 0x141EB, offset: 0x1FC74E, size: 0x8, addend: 0x0, symName: '__ZNKSt3__110__function6__funcIZNK8firebase9firestore4core15CompositeFilter3Rep19GetFlattenedFiltersEvE3$_5NS_9allocatorIS7_EEFNS_6vectorINS4_11FieldFilterENS8_ISB_EEEEvEE7__cloneEPNS0_6__baseISE_EE', symObjAddr: 0x15C4, symBinAddr: 0x2FEAC, symSize: 0x14 }
  - { offsetInCU: 0x14219, offset: 0x1FC77C, size: 0x8, addend: 0x0, symName: '__ZNKSt3__110__function6__funcIZNK8firebase9firestore4core15CompositeFilter3Rep19GetFlattenedFiltersEvE3$_5NS_9allocatorIS7_EEFNS_6vectorINS4_11FieldFilterENS8_ISB_EEEEvEE7__cloneEPNS0_6__baseISE_EE', symObjAddr: 0x15C4, symBinAddr: 0x2FEAC, symSize: 0x14 }
  - { offsetInCU: 0x14247, offset: 0x1FC7AA, size: 0x8, addend: 0x0, symName: '__ZNKSt3__110__function6__funcIZNK8firebase9firestore4core15CompositeFilter3Rep19GetFlattenedFiltersEvE3$_5NS_9allocatorIS7_EEFNS_6vectorINS4_11FieldFilterENS8_ISB_EEEEvEE7__cloneEPNS0_6__baseISE_EE', symObjAddr: 0x15C4, symBinAddr: 0x2FEAC, symSize: 0x14 }
  - { offsetInCU: 0x1425C, offset: 0x1FC7BF, size: 0x8, addend: 0x0, symName: '__ZNKSt3__110__function6__funcIZNK8firebase9firestore4core15CompositeFilter3Rep19GetFlattenedFiltersEvE3$_5NS_9allocatorIS7_EEFNS_6vectorINS4_11FieldFilterENS8_ISB_EEEEvEE7__cloneEPNS0_6__baseISE_EE', symObjAddr: 0x15C4, symBinAddr: 0x2FEAC, symSize: 0x14 }
  - { offsetInCU: 0x14270, offset: 0x1FC7D3, size: 0x8, addend: 0x0, symName: '__ZNKSt3__110__function6__funcIZNK8firebase9firestore4core15CompositeFilter3Rep19GetFlattenedFiltersEvE3$_5NS_9allocatorIS7_EEFNS_6vectorINS4_11FieldFilterENS8_ISB_EEEEvEE7__cloneEPNS0_6__baseISE_EE', symObjAddr: 0x15C4, symBinAddr: 0x2FEAC, symSize: 0x14 }
  - { offsetInCU: 0x14284, offset: 0x1FC7E7, size: 0x8, addend: 0x0, symName: '__ZNKSt3__110__function6__funcIZNK8firebase9firestore4core15CompositeFilter3Rep19GetFlattenedFiltersEvE3$_5NS_9allocatorIS7_EEFNS_6vectorINS4_11FieldFilterENS8_ISB_EEEEvEE7__cloneEPNS0_6__baseISE_EE', symObjAddr: 0x15C4, symBinAddr: 0x2FEAC, symSize: 0x14 }
  - { offsetInCU: 0x14299, offset: 0x1FC7FC, size: 0x8, addend: 0x0, symName: '__ZNKSt3__110__function6__funcIZNK8firebase9firestore4core15CompositeFilter3Rep19GetFlattenedFiltersEvE3$_5NS_9allocatorIS7_EEFNS_6vectorINS4_11FieldFilterENS8_ISB_EEEEvEE7__cloneEPNS0_6__baseISE_EE', symObjAddr: 0x15C4, symBinAddr: 0x2FEAC, symSize: 0x14 }
  - { offsetInCU: 0x142B0, offset: 0x1FC813, size: 0x8, addend: 0x0, symName: '__ZNSt3__110__function6__funcIZNK8firebase9firestore4core15CompositeFilter3Rep19GetFlattenedFiltersEvE3$_5NS_9allocatorIS7_EEFNS_6vectorINS4_11FieldFilterENS8_ISB_EEEEvEE7destroyEv', symObjAddr: 0x15D8, symBinAddr: 0x2FEC0, symSize: 0x4 }
  - { offsetInCU: 0x142FE, offset: 0x1FC861, size: 0x8, addend: 0x0, symName: '__ZNSt3__110__function6__funcIZNK8firebase9firestore4core15CompositeFilter3Rep19GetFlattenedFiltersEvE3$_5NS_9allocatorIS7_EEFNS_6vectorINS4_11FieldFilterENS8_ISB_EEEEvEE18destroy_deallocateEv', symObjAddr: 0x15DC, symBinAddr: 0x2FEC4, symSize: 0x4 }
  - { offsetInCU: 0x14332, offset: 0x1FC895, size: 0x8, addend: 0x0, symName: '__ZNSt3__110__function6__funcIZNK8firebase9firestore4core15CompositeFilter3Rep19GetFlattenedFiltersEvE3$_5NS_9allocatorIS7_EEFNS_6vectorINS4_11FieldFilterENS8_ISB_EEEEvEE18destroy_deallocateEv', symObjAddr: 0x15DC, symBinAddr: 0x2FEC4, symSize: 0x4 }
  - { offsetInCU: 0x14355, offset: 0x1FC8B8, size: 0x8, addend: 0x0, symName: '__ZNSt3__110__function6__funcIZNK8firebase9firestore4core15CompositeFilter3Rep19GetFlattenedFiltersEvE3$_5NS_9allocatorIS7_EEFNS_6vectorINS4_11FieldFilterENS8_ISB_EEEEvEE18destroy_deallocateEv', symObjAddr: 0x15DC, symBinAddr: 0x2FEC4, symSize: 0x4 }
  - { offsetInCU: 0x14381, offset: 0x1FC8E4, size: 0x8, addend: 0x0, symName: '__ZNSt3__110__function6__funcIZNK8firebase9firestore4core15CompositeFilter3Rep19GetFlattenedFiltersEvE3$_5NS_9allocatorIS7_EEFNS_6vectorINS4_11FieldFilterENS8_ISB_EEEEvEE18destroy_deallocateEv', symObjAddr: 0x15DC, symBinAddr: 0x2FEC4, symSize: 0x4 }
  - { offsetInCU: 0x143A7, offset: 0x1FC90A, size: 0x8, addend: 0x0, symName: '__ZNSt3__110__function6__funcIZNK8firebase9firestore4core15CompositeFilter3Rep19GetFlattenedFiltersEvE3$_5NS_9allocatorIS7_EEFNS_6vectorINS4_11FieldFilterENS8_ISB_EEEEvEE18destroy_deallocateEv', symObjAddr: 0x15DC, symBinAddr: 0x2FEC4, symSize: 0x4 }
  - { offsetInCU: 0x14520, offset: 0x1FCA83, size: 0x8, addend: 0x0, symName: '__ZNSt3__110__function6__funcIZNK8firebase9firestore4core15CompositeFilter3Rep19GetFlattenedFiltersEvE3$_5NS_9allocatorIS7_EEFNS_6vectorINS4_11FieldFilterENS8_ISB_EEEEvEEclEv', symObjAddr: 0x15E0, symBinAddr: 0x2FEC8, symSize: 0x98 }
  - { offsetInCU: 0x1484A, offset: 0x1FCDAD, size: 0x8, addend: 0x0, symName: '__ZNKSt3__110__function6__funcIZNK8firebase9firestore4core15CompositeFilter3Rep19GetFlattenedFiltersEvE3$_5NS_9allocatorIS7_EEFNS_6vectorINS4_11FieldFilterENS8_ISB_EEEEvEE6targetERKSt9type_info', symObjAddr: 0x1678, symBinAddr: 0x2FF60, symSize: 0x3C }
  - { offsetInCU: 0x148E0, offset: 0x1FCE43, size: 0x8, addend: 0x0, symName: '__ZNKSt3__110__function6__funcIZNK8firebase9firestore4core15CompositeFilter3Rep19GetFlattenedFiltersEvE3$_5NS_9allocatorIS7_EEFNS_6vectorINS4_11FieldFilterENS8_ISB_EEEEvEE11target_typeEv', symObjAddr: 0x16B4, symBinAddr: 0x2FF9C, symSize: 0xC }
  - { offsetInCU: 0x14A0A, offset: 0x1FCF6D, size: 0x8, addend: 0x0, symName: __ZNSt3__120back_insert_iteratorINS_6vectorIN8firebase9firestore4core11FieldFilterENS_9allocatorIS5_EEEEEaSB8ue170006ERKS5_, symObjAddr: 0x1720, symBinAddr: 0x30008, symSize: 0x60 }
  - { offsetInCU: 0x14D8D, offset: 0x1FD2F0, size: 0x8, addend: 0x0, symName: __ZNSt3__16vectorIN8firebase9firestore4core11FieldFilterENS_9allocatorIS4_EEE21__push_back_slow_pathIRKS4_EEvOT_, symObjAddr: 0x1780, symBinAddr: 0x30068, symSize: 0x130 }
  - { offsetInCU: 0x152CA, offset: 0x1FD82D, size: 0x8, addend: 0x0, symName: __ZNKSt3__16vectorIN8firebase9firestore4core11FieldFilterENS_9allocatorIS4_EEE20__throw_length_errorB8ue170006Ev, symObjAddr: 0x18B0, symBinAddr: 0x30198, symSize: 0x14 }
  - { offsetInCU: 0x15578, offset: 0x1FDADB, size: 0x8, addend: 0x0, symName: __ZNSt3__114__split_bufferIN8firebase9firestore4core11FieldFilterERNS_9allocatorIS4_EEED2Ev, symObjAddr: 0x18F8, symBinAddr: 0x301E0, symSize: 0x4C }
  - { offsetInCU: 0x1576A, offset: 0x1FDCCD, size: 0x8, addend: 0x0, symName: __ZNKSt3__16vectorIN8firebase9firestore4core11FieldFilterENS_9allocatorIS4_EEE20__throw_length_errorB8ue170006Ev, symObjAddr: 0x18B0, symBinAddr: 0x30198, symSize: 0x14 }
  - { offsetInCU: 0x15792, offset: 0x1FDCF5, size: 0x8, addend: 0x0, symName: __ZNSt3__119__allocate_at_leastB8ue170006INS_9allocatorIN8firebase9firestore4core11FieldFilterEEEEENS_19__allocation_resultINS_16allocator_traitsIT_E7pointerEEERS9_m, symObjAddr: 0x18C4, symBinAddr: 0x301AC, symSize: 0x34 }
  - { offsetInCU: 0x26, offset: 0x1FDE8A, size: 0x8, addend: 0x0, symName: __ZN8firebase9firestore6remote19ConnectivityMonitor16SetInitialStatusENS2_13NetworkStatusE, symObjAddr: 0x0, symBinAddr: 0x3022C, symSize: 0x90 }
  - { offsetInCU: 0x7135, offset: 0x204F99, size: 0x8, addend: 0x0, symName: __ZN8firebase9firestore6remote19ConnectivityMonitor16SetInitialStatusENS2_13NetworkStatusE, symObjAddr: 0x0, symBinAddr: 0x3022C, symSize: 0x90 }
  - { offsetInCU: 0x733D, offset: 0x2051A1, size: 0x8, addend: 0x0, symName: __ZN8firebase9firestore6remote19ConnectivityMonitor20MaybeInvokeCallbacksENS2_13NetworkStatusE, symObjAddr: 0x90, symBinAddr: 0x302BC, symSize: 0x1C }
  - { offsetInCU: 0x7371, offset: 0x2051D5, size: 0x8, addend: 0x0, symName: __ZN8firebase9firestore6remote19ConnectivityMonitor20MaybeInvokeCallbacksENS2_13NetworkStatusE, symObjAddr: 0x90, symBinAddr: 0x302BC, symSize: 0x1C }
  - { offsetInCU: 0x738F, offset: 0x2051F3, size: 0x8, addend: 0x0, symName: __ZN8firebase9firestore6remote19ConnectivityMonitor20MaybeInvokeCallbacksENS2_13NetworkStatusE, symObjAddr: 0x90, symBinAddr: 0x302BC, symSize: 0x1C }
  - { offsetInCU: 0x73B9, offset: 0x20521D, size: 0x8, addend: 0x0, symName: __ZN8firebase9firestore6remote19ConnectivityMonitor15InvokeCallbacksENS2_13NetworkStatusE, symObjAddr: 0xAC, symBinAddr: 0x302D8, symSize: 0x80 }
  - { offsetInCU: 0x7384, offset: 0x20C7C5, size: 0x8, addend: 0x0, symName: __ZN8firebase9firestore6remote12_GLOBAL__N_129OnReachabilityChangedCallbackEPK23__SCNetworkReachabilityjPv, symObjAddr: 0x37C, symBinAddr: 0x306D4, symSize: 0x80 }
  - { offsetInCU: 0x79FF, offset: 0x20CE40, size: 0x8, addend: 0x0, symName: __ZN8firebase9firestore6remote24ConnectivityMonitorApple21OnReachabilityChangedEj, symObjAddr: 0x618, symBinAddr: 0x30964, symSize: 0xDC }
  - { offsetInCU: 0x7EDF, offset: 0x20D320, size: 0x8, addend: 0x0, symName: __ZN8firebase9firestore6remote24ConnectivityMonitorApple19OnEnteredForegroundEv, symObjAddr: 0x404, symBinAddr: 0x3075C, symSize: 0xF0 }
  - { offsetInCU: 0xA287, offset: 0x20F6C8, size: 0x8, addend: 0x0, symName: __ZN8firebase9firestore6remote19ConnectivityMonitor6CreateERKNSt3__110shared_ptrINS0_4util10AsyncQueueEEE, symObjAddr: 0x0, symBinAddr: 0x30358, symSize: 0x54 }
  - { offsetInCU: 0xA387, offset: 0x20F7C8, size: 0x8, addend: 0x0, symName: __ZN8firebase9firestore6remote24ConnectivityMonitorAppleC2ERKNSt3__110shared_ptrINS0_4util10AsyncQueueEEE, symObjAddr: 0x54, symBinAddr: 0x303AC, symSize: 0x328 }
  - { offsetInCU: 0xAC8B, offset: 0x2100CC, size: 0x8, addend: 0x0, symName: __ZN8firebase9firestore6remote19ConnectivityMonitorD2Ev, symObjAddr: 0x4F4, symBinAddr: 0x3084C, symSize: 0x54 }
  - { offsetInCU: 0xADD0, offset: 0x210211, size: 0x8, addend: 0x0, symName: ____ZN8firebase9firestore6remote24ConnectivityMonitorAppleC2ERKNSt3__110shared_ptrINS0_4util10AsyncQueueEEE_block_invoke, symObjAddr: 0x3FC, symBinAddr: 0x30754, symSize: 0x8 }
  - { offsetInCU: 0xB246, offset: 0x210687, size: 0x8, addend: 0x0, symName: __ZNSt3__16vectorINS_8functionIFvN8firebase9firestore6remote19ConnectivityMonitor13NetworkStatusEEEENS_9allocatorIS8_EEE16__destroy_vectorclB8ue170006Ev, symObjAddr: 0x8EC, symBinAddr: 0x30BF0, symSize: 0x98 }
  - { offsetInCU: 0xB423, offset: 0x210864, size: 0x8, addend: 0x0, symName: __ZNSt3__110shared_ptrIN8firebase9firestore4util10AsyncQueueEED2B8ue170006Ev, symObjAddr: 0x984, symBinAddr: 0x30C88, symSize: 0x58 }
  - { offsetInCU: 0xB4B5, offset: 0x2108F6, size: 0x8, addend: 0x0, symName: __ZN8firebase9firestore6remote24ConnectivityMonitorAppleD1Ev, symObjAddr: 0x548, symBinAddr: 0x308A0, symSize: 0x4 }
  - { offsetInCU: 0xB4D8, offset: 0x210919, size: 0x8, addend: 0x0, symName: __ZN8firebase9firestore6remote24ConnectivityMonitorAppleD1Ev, symObjAddr: 0x548, symBinAddr: 0x308A0, symSize: 0x4 }
  - { offsetInCU: 0xB4EB, offset: 0x21092C, size: 0x8, addend: 0x0, symName: __ZN8firebase9firestore6remote24ConnectivityMonitorAppleD2Ev, symObjAddr: 0x9DC, symBinAddr: 0x30CE0, symSize: 0xEC }
  - { offsetInCU: 0xB80B, offset: 0x210C4C, size: 0x8, addend: 0x0, symName: __ZN8firebase9firestore6remote24ConnectivityMonitorAppleD0Ev, symObjAddr: 0x54C, symBinAddr: 0x308A4, symSize: 0x14 }
  - { offsetInCU: 0xB87D, offset: 0x210CBE, size: 0x8, addend: 0x0, symName: __ZN8firebase9firestore6remote19ConnectivityMonitorD1Ev, symObjAddr: 0x560, symBinAddr: 0x308B8, symSize: 0x54 }
  - { offsetInCU: 0xB99D, offset: 0x210DDE, size: 0x8, addend: 0x0, symName: __ZN8firebase9firestore6remote19ConnectivityMonitorD0Ev, symObjAddr: 0x5B4, symBinAddr: 0x3090C, symSize: 0x58 }
  - { offsetInCU: 0xBDD1, offset: 0x211212, size: 0x8, addend: 0x0, symName: __ZNSt3__110__function6__funcIZN8firebase9firestore6remote24ConnectivityMonitorApple21OnReachabilityChangedEjEUlvE_NS_9allocatorIS6_EEFvvEED1Ev, symObjAddr: 0x6F4, symBinAddr: 0x30A40, symSize: 0x4 }
  - { offsetInCU: 0xBDFC, offset: 0x21123D, size: 0x8, addend: 0x0, symName: __ZNSt3__110__function6__funcIZN8firebase9firestore6remote24ConnectivityMonitorApple21OnReachabilityChangedEjEUlvE_NS_9allocatorIS6_EEFvvEED0Ev, symObjAddr: 0x6F8, symBinAddr: 0x30A44, symSize: 0x4 }
  - { offsetInCU: 0xBFF4, offset: 0x211435, size: 0x8, addend: 0x0, symName: __ZNKSt3__110__function6__funcIZN8firebase9firestore6remote24ConnectivityMonitorApple21OnReachabilityChangedEjEUlvE_NS_9allocatorIS6_EEFvvEE7__cloneEv, symObjAddr: 0x6FC, symBinAddr: 0x30A48, symSize: 0x38 }
  - { offsetInCU: 0xC311, offset: 0x211752, size: 0x8, addend: 0x0, symName: __ZNKSt3__110__function6__funcIZN8firebase9firestore6remote24ConnectivityMonitorApple21OnReachabilityChangedEjEUlvE_NS_9allocatorIS6_EEFvvEE7__cloneEPNS0_6__baseIS9_EE, symObjAddr: 0x734, symBinAddr: 0x30A80, symSize: 0x18 }
  - { offsetInCU: 0xC348, offset: 0x211789, size: 0x8, addend: 0x0, symName: __ZNKSt3__110__function6__funcIZN8firebase9firestore6remote24ConnectivityMonitorApple21OnReachabilityChangedEjEUlvE_NS_9allocatorIS6_EEFvvEE7__cloneEPNS0_6__baseIS9_EE, symObjAddr: 0x734, symBinAddr: 0x30A80, symSize: 0x18 }
  - { offsetInCU: 0xC376, offset: 0x2117B7, size: 0x8, addend: 0x0, symName: __ZNKSt3__110__function6__funcIZN8firebase9firestore6remote24ConnectivityMonitorApple21OnReachabilityChangedEjEUlvE_NS_9allocatorIS6_EEFvvEE7__cloneEPNS0_6__baseIS9_EE, symObjAddr: 0x734, symBinAddr: 0x30A80, symSize: 0x18 }
  - { offsetInCU: 0xC48C, offset: 0x2118CD, size: 0x8, addend: 0x0, symName: __ZNSt3__110__function6__funcIZN8firebase9firestore6remote24ConnectivityMonitorApple21OnReachabilityChangedEjEUlvE_NS_9allocatorIS6_EEFvvEE7destroyEv, symObjAddr: 0x74C, symBinAddr: 0x30A98, symSize: 0x4 }
  - { offsetInCU: 0xC4DC, offset: 0x21191D, size: 0x8, addend: 0x0, symName: __ZNSt3__110__function6__funcIZN8firebase9firestore6remote24ConnectivityMonitorApple21OnReachabilityChangedEjEUlvE_NS_9allocatorIS6_EEFvvEE18destroy_deallocateEv, symObjAddr: 0x750, symBinAddr: 0x30A9C, symSize: 0x4 }
  - { offsetInCU: 0xC510, offset: 0x211951, size: 0x8, addend: 0x0, symName: __ZNSt3__110__function6__funcIZN8firebase9firestore6remote24ConnectivityMonitorApple21OnReachabilityChangedEjEUlvE_NS_9allocatorIS6_EEFvvEE18destroy_deallocateEv, symObjAddr: 0x750, symBinAddr: 0x30A9C, symSize: 0x4 }
  - { offsetInCU: 0xC533, offset: 0x211974, size: 0x8, addend: 0x0, symName: __ZNSt3__110__function6__funcIZN8firebase9firestore6remote24ConnectivityMonitorApple21OnReachabilityChangedEjEUlvE_NS_9allocatorIS6_EEFvvEE18destroy_deallocateEv, symObjAddr: 0x750, symBinAddr: 0x30A9C, symSize: 0x4 }
  - { offsetInCU: 0xC55F, offset: 0x2119A0, size: 0x8, addend: 0x0, symName: __ZNSt3__110__function6__funcIZN8firebase9firestore6remote24ConnectivityMonitorApple21OnReachabilityChangedEjEUlvE_NS_9allocatorIS6_EEFvvEE18destroy_deallocateEv, symObjAddr: 0x750, symBinAddr: 0x30A9C, symSize: 0x4 }
  - { offsetInCU: 0xC585, offset: 0x2119C6, size: 0x8, addend: 0x0, symName: __ZNSt3__110__function6__funcIZN8firebase9firestore6remote24ConnectivityMonitorApple21OnReachabilityChangedEjEUlvE_NS_9allocatorIS6_EEFvvEE18destroy_deallocateEv, symObjAddr: 0x750, symBinAddr: 0x30A9C, symSize: 0x4 }
  - { offsetInCU: 0xC5FF, offset: 0x211A40, size: 0x8, addend: 0x0, symName: __ZNSt3__110__function6__funcIZN8firebase9firestore6remote24ConnectivityMonitorApple21OnReachabilityChangedEjEUlvE_NS_9allocatorIS6_EEFvvEEclEv, symObjAddr: 0x754, symBinAddr: 0x30AA0, symSize: 0x28 }
  - { offsetInCU: 0xC6C0, offset: 0x211B01, size: 0x8, addend: 0x0, symName: __ZNKSt3__110__function6__funcIZN8firebase9firestore6remote24ConnectivityMonitorApple21OnReachabilityChangedEjEUlvE_NS_9allocatorIS6_EEFvvEE6targetERKSt9type_info, symObjAddr: 0x77C, symBinAddr: 0x30AC8, symSize: 0x3C }
  - { offsetInCU: 0xC756, offset: 0x211B97, size: 0x8, addend: 0x0, symName: __ZNKSt3__110__function6__funcIZN8firebase9firestore6remote24ConnectivityMonitorApple21OnReachabilityChangedEjEUlvE_NS_9allocatorIS6_EEFvvEE11target_typeEv, symObjAddr: 0x7B8, symBinAddr: 0x30B04, symSize: 0xC }
  - { offsetInCU: 0xC7AF, offset: 0x211BF0, size: 0x8, addend: 0x0, symName: __ZNSt3__110__function6__funcIZN8firebase9firestore6remote24ConnectivityMonitorApple19OnEnteredForegroundEvEUlvE_NS_9allocatorIS6_EEFvvEED1Ev, symObjAddr: 0x80C, symBinAddr: 0x30B10, symSize: 0x4 }
  - { offsetInCU: 0xC7DA, offset: 0x211C1B, size: 0x8, addend: 0x0, symName: __ZNSt3__110__function6__funcIZN8firebase9firestore6remote24ConnectivityMonitorApple19OnEnteredForegroundEvEUlvE_NS_9allocatorIS6_EEFvvEED0Ev, symObjAddr: 0x810, symBinAddr: 0x30B14, symSize: 0x4 }
  - { offsetInCU: 0xC9D2, offset: 0x211E13, size: 0x8, addend: 0x0, symName: __ZNKSt3__110__function6__funcIZN8firebase9firestore6remote24ConnectivityMonitorApple19OnEnteredForegroundEvEUlvE_NS_9allocatorIS6_EEFvvEE7__cloneEv, symObjAddr: 0x814, symBinAddr: 0x30B18, symSize: 0x38 }
  - { offsetInCU: 0xCCEF, offset: 0x212130, size: 0x8, addend: 0x0, symName: __ZNKSt3__110__function6__funcIZN8firebase9firestore6remote24ConnectivityMonitorApple19OnEnteredForegroundEvEUlvE_NS_9allocatorIS6_EEFvvEE7__cloneEPNS0_6__baseIS9_EE, symObjAddr: 0x84C, symBinAddr: 0x30B50, symSize: 0x18 }
  - { offsetInCU: 0xCD26, offset: 0x212167, size: 0x8, addend: 0x0, symName: __ZNKSt3__110__function6__funcIZN8firebase9firestore6remote24ConnectivityMonitorApple19OnEnteredForegroundEvEUlvE_NS_9allocatorIS6_EEFvvEE7__cloneEPNS0_6__baseIS9_EE, symObjAddr: 0x84C, symBinAddr: 0x30B50, symSize: 0x18 }
  - { offsetInCU: 0xCD54, offset: 0x212195, size: 0x8, addend: 0x0, symName: __ZNKSt3__110__function6__funcIZN8firebase9firestore6remote24ConnectivityMonitorApple19OnEnteredForegroundEvEUlvE_NS_9allocatorIS6_EEFvvEE7__cloneEPNS0_6__baseIS9_EE, symObjAddr: 0x84C, symBinAddr: 0x30B50, symSize: 0x18 }
  - { offsetInCU: 0xCE6A, offset: 0x2122AB, size: 0x8, addend: 0x0, symName: __ZNSt3__110__function6__funcIZN8firebase9firestore6remote24ConnectivityMonitorApple19OnEnteredForegroundEvEUlvE_NS_9allocatorIS6_EEFvvEE7destroyEv, symObjAddr: 0x864, symBinAddr: 0x30B68, symSize: 0x4 }
  - { offsetInCU: 0xCEBA, offset: 0x2122FB, size: 0x8, addend: 0x0, symName: __ZNSt3__110__function6__funcIZN8firebase9firestore6remote24ConnectivityMonitorApple19OnEnteredForegroundEvEUlvE_NS_9allocatorIS6_EEFvvEE18destroy_deallocateEv, symObjAddr: 0x868, symBinAddr: 0x30B6C, symSize: 0x4 }
  - { offsetInCU: 0xCEEE, offset: 0x21232F, size: 0x8, addend: 0x0, symName: __ZNSt3__110__function6__funcIZN8firebase9firestore6remote24ConnectivityMonitorApple19OnEnteredForegroundEvEUlvE_NS_9allocatorIS6_EEFvvEE18destroy_deallocateEv, symObjAddr: 0x868, symBinAddr: 0x30B6C, symSize: 0x4 }
  - { offsetInCU: 0xCF11, offset: 0x212352, size: 0x8, addend: 0x0, symName: __ZNSt3__110__function6__funcIZN8firebase9firestore6remote24ConnectivityMonitorApple19OnEnteredForegroundEvEUlvE_NS_9allocatorIS6_EEFvvEE18destroy_deallocateEv, symObjAddr: 0x868, symBinAddr: 0x30B6C, symSize: 0x4 }
  - { offsetInCU: 0xCF3D, offset: 0x21237E, size: 0x8, addend: 0x0, symName: __ZNSt3__110__function6__funcIZN8firebase9firestore6remote24ConnectivityMonitorApple19OnEnteredForegroundEvEUlvE_NS_9allocatorIS6_EEFvvEE18destroy_deallocateEv, symObjAddr: 0x868, symBinAddr: 0x30B6C, symSize: 0x4 }
  - { offsetInCU: 0xCF63, offset: 0x2123A4, size: 0x8, addend: 0x0, symName: __ZNSt3__110__function6__funcIZN8firebase9firestore6remote24ConnectivityMonitorApple19OnEnteredForegroundEvEUlvE_NS_9allocatorIS6_EEFvvEE18destroy_deallocateEv, symObjAddr: 0x868, symBinAddr: 0x30B6C, symSize: 0x4 }
  - { offsetInCU: 0xCFA1, offset: 0x2123E2, size: 0x8, addend: 0x0, symName: __ZNSt3__110__function6__funcIZN8firebase9firestore6remote24ConnectivityMonitorApple19OnEnteredForegroundEvEUlvE_NS_9allocatorIS6_EEFvvEEclEv, symObjAddr: 0x86C, symBinAddr: 0x30B70, symSize: 0x8 }
  - { offsetInCU: 0xCFF3, offset: 0x212434, size: 0x8, addend: 0x0, symName: __ZNSt3__128__invoke_void_return_wrapperIvLb1EE6__callB8ue170006IJRZN8firebase9firestore6remote24ConnectivityMonitorApple19OnEnteredForegroundEvEUlvE_EEEvDpOT_, symObjAddr: 0x8BC, symBinAddr: 0x30BC0, symSize: 0x30 }
  - { offsetInCU: 0xD07F, offset: 0x2124C0, size: 0x8, addend: 0x0, symName: __ZNKSt3__110__function6__funcIZN8firebase9firestore6remote24ConnectivityMonitorApple19OnEnteredForegroundEvEUlvE_NS_9allocatorIS6_EEFvvEE6targetERKSt9type_info, symObjAddr: 0x874, symBinAddr: 0x30B78, symSize: 0x3C }
  - { offsetInCU: 0xD0CC, offset: 0x21250D, size: 0x8, addend: 0x0, symName: __ZNKSt3__110__function6__funcIZN8firebase9firestore6remote24ConnectivityMonitorApple19OnEnteredForegroundEvEUlvE_NS_9allocatorIS6_EEFvvEE11target_typeEv, symObjAddr: 0x8B0, symBinAddr: 0x30BB4, symSize: 0xC }
  - { offsetInCU: 0x27, offset: 0x21292D, size: 0x8, addend: 0x0, symName: __ZN8firebase9firestore3api12MakeGeoPointEP11FIRGeoPoint, symObjAddr: 0x0, symBinAddr: 0x30DCC, symSize: 0x70 }
  - { offsetInCU: 0x128, offset: 0x212A2E, size: 0x8, addend: 0x0, symName: __ZN8firebase9firestore3api12MakeGeoPointEP11FIRGeoPoint, symObjAddr: 0x0, symBinAddr: 0x30DCC, symSize: 0x70 }
  - { offsetInCU: 0x155, offset: 0x212A5B, size: 0x8, addend: 0x0, symName: __ZN8firebase9firestore3api15MakeFIRGeoPointERKNS0_8GeoPointE, symObjAddr: 0x70, symBinAddr: 0x30E3C, symSize: 0x30 }
  - { offsetInCU: 0x19E, offset: 0x212AA4, size: 0x8, addend: 0x0, symName: __ZN8firebase9firestore3api13MakeTimestampEP12FIRTimestamp, symObjAddr: 0xA0, symBinAddr: 0x30E6C, symSize: 0x68 }
  - { offsetInCU: 0x1CB, offset: 0x212AD1, size: 0x8, addend: 0x0, symName: __ZN8firebase9firestore3api13MakeTimestampEP6NSDate, symObjAddr: 0x108, symBinAddr: 0x30ED4, symSize: 0x6C }
  - { offsetInCU: 0x215, offset: 0x212B1B, size: 0x8, addend: 0x0, symName: __ZN8firebase9firestore3api16MakeFIRTimestampERKNS_9TimestampE, symObjAddr: 0x174, symBinAddr: 0x30F40, symSize: 0x34 }
  - { offsetInCU: 0x82A, offset: 0x213130, size: 0x8, addend: 0x0, symName: __ZN8firebase9firestore3api24MakeFIRDocumentReferenceERKNS0_5model11DocumentKeyENSt3__110shared_ptrINS1_9FirestoreEEE, symObjAddr: 0x1A8, symBinAddr: 0x30F74, symSize: 0x100 }
  - { offsetInCU: 0x5B, offset: 0x21890A, size: 0x8, addend: 0x0, symName: __ZN8firebase9firestore5model10DatabaseId8kDefaultE, symObjAddr: 0x1730, symBinAddr: 0x22E058, symSize: 0x0 }
  - { offsetInCU: 0x443, offset: 0x218CF2, size: 0x8, addend: 0x0, symName: __ZN8firebase9firestore5modellsERNSt3__113basic_ostreamIcNS2_11char_traitsIcEEEERKNS1_10DatabaseIdE, symObjAddr: 0x660, symBinAddr: 0x31668, symSize: 0x88 }
  - { offsetInCU: 0x8A5, offset: 0x219154, size: 0x8, addend: 0x0, symName: __ZN8firebase9firestore4util12StringFormatIJmEEENSt3__112basic_stringIcNS3_11char_traitsIcEENS3_9allocatorIcEEEEPKcDpRKT_, symObjAddr: 0x9B0, symBinAddr: 0x31814, symSize: 0x7C }
  - { offsetInCU: 0x843C, offset: 0x220CEB, size: 0x8, addend: 0x0, symName: __ZN8firebase9firestore5model10DatabaseIdC2ENSt3__112basic_stringIcNS3_11char_traitsIcEENS3_9allocatorIcEEEES9_, symObjAddr: 0x0, symBinAddr: 0x31074, symSize: 0xE8 }
  - { offsetInCU: 0x8876, offset: 0x221125, size: 0x8, addend: 0x0, symName: __ZNSt3__110shared_ptrIKN8firebase9firestore5model10DatabaseId3RepEEaSB8ue170006IS5_vEERS7_ONS0_IT_EE, symObjAddr: 0xE8, symBinAddr: 0x3115C, symSize: 0x64 }
  - { offsetInCU: 0x89DC, offset: 0x22128B, size: 0x8, addend: 0x0, symName: __ZNSt3__110shared_ptrIKN8firebase9firestore5model10DatabaseId3RepEED2B8ue170006Ev, symObjAddr: 0x8D8, symBinAddr: 0x3173C, symSize: 0x58 }
  - { offsetInCU: 0x8B09, offset: 0x2213B8, size: 0x8, addend: 0x0, symName: __ZN8firebase9firestore5model10DatabaseIdC1ENSt3__112basic_stringIcNS3_11char_traitsIcEENS3_9allocatorIcEEEES9_, symObjAddr: 0x14C, symBinAddr: 0x311C0, symSize: 0x4 }
  - { offsetInCU: 0x8B3C, offset: 0x2213EB, size: 0x8, addend: 0x0, symName: __ZN8firebase9firestore5model10DatabaseIdC1ENSt3__112basic_stringIcNS3_11char_traitsIcEENS3_9allocatorIcEEEES9_, symObjAddr: 0x14C, symBinAddr: 0x311C0, symSize: 0x4 }
  - { offsetInCU: 0x8F1A, offset: 0x2217C9, size: 0x8, addend: 0x0, symName: __ZN8firebase9firestore5model10DatabaseId8FromNameERKNSt3__112basic_stringIcNS3_11char_traitsIcEENS3_9allocatorIcEEEE, symObjAddr: 0x150, symBinAddr: 0x311C4, symSize: 0x2F0 }
  - { offsetInCU: 0x9C28, offset: 0x2224D7, size: 0x8, addend: 0x0, symName: __ZNK8firebase9firestore5model4impl8BasePathINS1_12ResourcePathEEixEm, symObjAddr: 0x440, symBinAddr: 0x314B4, symSize: 0xA4 }
  - { offsetInCU: 0xA1EE, offset: 0x222A9D, size: 0x8, addend: 0x0, symName: __ZNK8firebase9firestore5model10DatabaseId9CompareToERKS2_, symObjAddr: 0x550, symBinAddr: 0x31558, symSize: 0x54 }
  - { offsetInCU: 0xA397, offset: 0x222C46, size: 0x8, addend: 0x0, symName: __ZNK8firebase9firestore5model10DatabaseId8ToStringEv, symObjAddr: 0x5A4, symBinAddr: 0x315AC, symSize: 0xBC }
  - { offsetInCU: 0xA58A, offset: 0x222E39, size: 0x8, addend: 0x0, symName: __ZNK8firebase9firestore5model10DatabaseId4HashEv, symObjAddr: 0x6E8, symBinAddr: 0x316F0, symSize: 0x4C }
  - { offsetInCU: 0xAB35, offset: 0x2233E4, size: 0x8, addend: 0x0, symName: __ZNSt3__120__shared_ptr_emplaceIN8firebase9firestore5model10DatabaseId3RepENS_9allocatorIS5_EEED1Ev, symObjAddr: 0x930, symBinAddr: 0x31794, symSize: 0x14 }
  - { offsetInCU: 0xAB57, offset: 0x223406, size: 0x8, addend: 0x0, symName: __ZNSt3__120__shared_ptr_emplaceIN8firebase9firestore5model10DatabaseId3RepENS_9allocatorIS5_EEED1Ev, symObjAddr: 0x930, symBinAddr: 0x31794, symSize: 0x14 }
  - { offsetInCU: 0xAB8E, offset: 0x22343D, size: 0x8, addend: 0x0, symName: __ZNSt3__120__shared_ptr_emplaceIN8firebase9firestore5model10DatabaseId3RepENS_9allocatorIS5_EEED0Ev, symObjAddr: 0x944, symBinAddr: 0x317A8, symSize: 0x24 }
  - { offsetInCU: 0xAC29, offset: 0x2234D8, size: 0x8, addend: 0x0, symName: __ZNSt3__120__shared_ptr_emplaceIN8firebase9firestore5model10DatabaseId3RepENS_9allocatorIS5_EEE16__on_zero_sharedEv, symObjAddr: 0x968, symBinAddr: 0x317CC, symSize: 0x44 }
  - { offsetInCU: 0xAF00, offset: 0x2237AF, size: 0x8, addend: 0x0, symName: __ZNSt3__120__shared_ptr_emplaceIN8firebase9firestore5model10DatabaseId3RepENS_9allocatorIS5_EEE21__on_zero_shared_weakEv, symObjAddr: 0x9AC, symBinAddr: 0x31810, symSize: 0x4 }
  - { offsetInCU: 0xAF31, offset: 0x2237E0, size: 0x8, addend: 0x0, symName: __ZNSt3__120__shared_ptr_emplaceIN8firebase9firestore5model10DatabaseId3RepENS_9allocatorIS5_EEE21__on_zero_shared_weakEv, symObjAddr: 0x9AC, symBinAddr: 0x31810, symSize: 0x4 }
  - { offsetInCU: 0xAF54, offset: 0x223803, size: 0x8, addend: 0x0, symName: __ZNSt3__120__shared_ptr_emplaceIN8firebase9firestore5model10DatabaseId3RepENS_9allocatorIS5_EEE21__on_zero_shared_weakEv, symObjAddr: 0x9AC, symBinAddr: 0x31810, symSize: 0x4 }
  - { offsetInCU: 0xAF77, offset: 0x223826, size: 0x8, addend: 0x0, symName: __ZNSt3__120__shared_ptr_emplaceIN8firebase9firestore5model10DatabaseId3RepENS_9allocatorIS5_EEE21__on_zero_shared_weakEv, symObjAddr: 0x9AC, symBinAddr: 0x31810, symSize: 0x4 }
  - { offsetInCU: 0xAFA4, offset: 0x223853, size: 0x8, addend: 0x0, symName: __ZNSt3__120__shared_ptr_emplaceIN8firebase9firestore5model10DatabaseId3RepENS_9allocatorIS5_EEE21__on_zero_shared_weakEv, symObjAddr: 0x9AC, symBinAddr: 0x31810, symSize: 0x4 }
  - { offsetInCU: 0xAFCB, offset: 0x22387A, size: 0x8, addend: 0x0, symName: __ZNSt3__120__shared_ptr_emplaceIN8firebase9firestore5model10DatabaseId3RepENS_9allocatorIS5_EEE21__on_zero_shared_weakEv, symObjAddr: 0x9AC, symBinAddr: 0x31810, symSize: 0x4 }
  - { offsetInCU: 0x26, offset: 0x2246AC, size: 0x8, addend: 0x0, symName: __ZN8firebase9firestore4core12DatabaseInfoC2ENS0_5model10DatabaseIdENSt3__112basic_stringIcNS5_11char_traitsIcEENS5_9allocatorIcEEEESB_b, symObjAddr: 0x0, symBinAddr: 0x31890, symSize: 0x44 }
  - { offsetInCU: 0x430C, offset: 0x228992, size: 0x8, addend: 0x0, symName: __ZN8firebase9firestore4core12DatabaseInfoC2ENS0_5model10DatabaseIdENSt3__112basic_stringIcNS5_11char_traitsIcEENS5_9allocatorIcEEEESB_b, symObjAddr: 0x0, symBinAddr: 0x31890, symSize: 0x44 }
  - { offsetInCU: 0x434C, offset: 0x2289D2, size: 0x8, addend: 0x0, symName: __ZN8firebase9firestore4core12DatabaseInfoC2ENS0_5model10DatabaseIdENSt3__112basic_stringIcNS5_11char_traitsIcEENS5_9allocatorIcEEEESB_b, symObjAddr: 0x0, symBinAddr: 0x31890, symSize: 0x44 }
  - { offsetInCU: 0x436E, offset: 0x2289F4, size: 0x8, addend: 0x0, symName: __ZN8firebase9firestore4core12DatabaseInfoC2ENS0_5model10DatabaseIdENSt3__112basic_stringIcNS5_11char_traitsIcEENS5_9allocatorIcEEEESB_b, symObjAddr: 0x0, symBinAddr: 0x31890, symSize: 0x44 }
  - { offsetInCU: 0x4390, offset: 0x228A16, size: 0x8, addend: 0x0, symName: __ZN8firebase9firestore4core12DatabaseInfoC2ENS0_5model10DatabaseIdENSt3__112basic_stringIcNS5_11char_traitsIcEENS5_9allocatorIcEEEESB_b, symObjAddr: 0x0, symBinAddr: 0x31890, symSize: 0x44 }
  - { offsetInCU: 0x43B2, offset: 0x228A38, size: 0x8, addend: 0x0, symName: __ZN8firebase9firestore4core12DatabaseInfoC2ENS0_5model10DatabaseIdENSt3__112basic_stringIcNS5_11char_traitsIcEENS5_9allocatorIcEEEESB_b, symObjAddr: 0x0, symBinAddr: 0x31890, symSize: 0x44 }
  - { offsetInCU: 0x44F2, offset: 0x228B78, size: 0x8, addend: 0x0, symName: __ZN8firebase9firestore4core12DatabaseInfoC1ENS0_5model10DatabaseIdENSt3__112basic_stringIcNS5_11char_traitsIcEENS5_9allocatorIcEEEESB_b, symObjAddr: 0x44, symBinAddr: 0x318D4, symSize: 0x44 }
  - { offsetInCU: 0x455B, offset: 0x228BE1, size: 0x8, addend: 0x0, symName: __ZN8firebase9firestore4core12DatabaseInfoC1ENS0_5model10DatabaseIdENSt3__112basic_stringIcNS5_11char_traitsIcEENS5_9allocatorIcEEEESB_b, symObjAddr: 0x44, symBinAddr: 0x318D4, symSize: 0x44 }
  - { offsetInCU: 0x458E, offset: 0x228C14, size: 0x8, addend: 0x0, symName: __ZN8firebase9firestore4core12DatabaseInfoC1ENS0_5model10DatabaseIdENSt3__112basic_stringIcNS5_11char_traitsIcEENS5_9allocatorIcEEEESB_b, symObjAddr: 0x44, symBinAddr: 0x318D4, symSize: 0x44 }
  - { offsetInCU: 0x45B0, offset: 0x228C36, size: 0x8, addend: 0x0, symName: __ZN8firebase9firestore4core12DatabaseInfoC1ENS0_5model10DatabaseIdENSt3__112basic_stringIcNS5_11char_traitsIcEENS5_9allocatorIcEEEESB_b, symObjAddr: 0x44, symBinAddr: 0x318D4, symSize: 0x44 }
  - { offsetInCU: 0x45D2, offset: 0x228C58, size: 0x8, addend: 0x0, symName: __ZN8firebase9firestore4core12DatabaseInfoC1ENS0_5model10DatabaseIdENSt3__112basic_stringIcNS5_11char_traitsIcEENS5_9allocatorIcEEEESB_b, symObjAddr: 0x44, symBinAddr: 0x318D4, symSize: 0x44 }
  - { offsetInCU: 0x45F4, offset: 0x228C7A, size: 0x8, addend: 0x0, symName: __ZN8firebase9firestore4core12DatabaseInfoC1ENS0_5model10DatabaseIdENSt3__112basic_stringIcNS5_11char_traitsIcEENS5_9allocatorIcEEEESB_b, symObjAddr: 0x44, symBinAddr: 0x318D4, symSize: 0x44 }
  - { offsetInCU: 0xE8, offset: 0x228E57, size: 0x8, addend: 0x0, symName: __ZN8firebase9firestore6remote12_GLOBAL__N_119LogGrpcCallFinishedEN4absl12lts_2022062311string_viewEPNS1_8GrpcCallERKNS0_4util6StatusE, symObjAddr: 0x53E0, symBinAddr: 0x36038, symSize: 0x1D4 }
  - { offsetInCU: 0x30B4, offset: 0x22BE23, size: 0x8, addend: 0x0, symName: __ZN8firebase9firestore6remote14MakeByteBufferINS0_34_google_firestore_v1_CommitRequestEEEN4grpc10ByteBufferERKNS0_6nanopb7MessageIT_EE, symObjAddr: 0x133C, symBinAddr: 0x32C54, symSize: 0x94 }
  - { offsetInCU: 0x332E, offset: 0x22C09D, size: 0x8, addend: 0x0, symName: __ZN8firebase9firestore6remote14MakeByteBufferINS0_45_google_firestore_v1_BatchGetDocumentsRequestEEEN4grpc10ByteBufferERKNS0_6nanopb7MessageIT_EE, symObjAddr: 0x1BFC, symBinAddr: 0x33514, symSize: 0x94 }
  - { offsetInCU: 0x3552, offset: 0x22C2C1, size: 0x8, addend: 0x0, symName: __ZN8firebase9firestore6remote14MakeByteBufferINS0_47_google_firestore_v1_RunAggregationQueryRequestEEEN4grpc10ByteBufferERKNS0_6nanopb7MessageIT_EE, symObjAddr: 0x2310, symBinAddr: 0x33C28, symSize: 0x94 }
  - { offsetInCU: 0x4339, offset: 0x22D0A8, size: 0x8, addend: 0x0, symName: __ZN8firebase9firestore4util17internal_statusor12PlacementNewINS0_11credentials9AuthTokenEJRKS5_EEEvPvDpOT0_, symObjAddr: 0x8B8C, symBinAddr: 0x394E8, symSize: 0x98 }
  - { offsetInCU: 0x567A, offset: 0x22E3E9, size: 0x8, addend: 0x0, symName: __ZN8firebase9firestore4util12StringFormatIJNS0_5ErrorEEEENSt3__112basic_stringIcNS4_11char_traitsIcEENS4_9allocatorIcEEEEPKcDpRKT_, symObjAddr: 0x279C, symBinAddr: 0x340B4, symSize: 0x7C }
  - { offsetInCU: 0x5908, offset: 0x22E677, size: 0x8, addend: 0x0, symName: __ZN8firebase9firestore4util12StringFormatIJN4absl12lts_2022062311string_viewENS0_5ErrorENSt3__112basic_stringIcNS7_11char_traitsIcEENS7_9allocatorIcEEEEEEESD_PKcDpRKT_, symObjAddr: 0x55B4, symBinAddr: 0x3620C, symSize: 0xAC }
  - { offsetInCU: 0x36006, offset: 0x25ED75, size: 0x8, addend: 0x0, symName: __ZNSt3__1L19piecewise_constructE, symObjAddr: 0xC3E4, symBinAddr: 0x18381E, symSize: 0x0 }
  - { offsetInCU: 0x42C93, offset: 0x26BA02, size: 0x8, addend: 0x0, symName: __ZNSt3__115allocate_sharedB8ue170006IN8firebase9firestore6remote11WatchStreamENS_9allocatorIS4_EEJRNS_10shared_ptrINS2_4util10AsyncQueueEEERNS7_INS2_11credentials19CredentialsProviderINSC_9AuthTokenENSC_4UserEEEEERNS7_INSD_INS_12basic_stringIcNS_11char_traitsIcEENS5_IcEEEESN_EEEERKNS3_10SerializerEPNS3_14GrpcConnectionERPNS3_19WatchStreamCallbackEEvEENS7_IT_EERKT0_DpOT1_, symObjAddr: 0x4338, symBinAddr: 0x34FDC, symSize: 0x98 }
  - { offsetInCU: 0x43084, offset: 0x26BDF3, size: 0x8, addend: 0x0, symName: __ZNSt3__115allocate_sharedB8ue170006IN8firebase9firestore6remote11WriteStreamENS_9allocatorIS4_EEJRNS_10shared_ptrINS2_4util10AsyncQueueEEERNS7_INS2_11credentials19CredentialsProviderINSC_9AuthTokenENSC_4UserEEEEERNS7_INSD_INS_12basic_stringIcNS_11char_traitsIcEENS5_IcEEEESN_EEEERKNS3_10SerializerEPNS3_14GrpcConnectionERPNS3_19WriteStreamCallbackEEvEENS7_IT_EERKT0_DpOT1_, symObjAddr: 0x4654, symBinAddr: 0x352F8, symSize: 0x98 }
  - { offsetInCU: 0x446CC, offset: 0x26D43B, size: 0x8, addend: 0x0, symName: __ZNSt3__115allocate_sharedB8ue170006IN8firebase9firestore6remote9Datastore15CallCredentialsENS_9allocatorIS5_EEJEvEENS_10shared_ptrIT_EERKT0_DpOT1_, symObjAddr: 0x7F08, symBinAddr: 0x38864, symSize: 0x48 }
  - { offsetInCU: 0x45064, offset: 0x26DDD3, size: 0x8, addend: 0x0, symName: __ZNSt3__119__allocate_at_leastB8ue170006INS_9allocatorINS_10unique_ptrIN8firebase9firestore6remote8GrpcCallENS_14default_deleteIS6_EEEEEEEENS_19__allocation_resultINS_16allocator_traitsIT_E7pointerEEERSD_m, symObjAddr: 0x50A8, symBinAddr: 0x35D00, symSize: 0x34 }
  - { offsetInCU: 0x4510C, offset: 0x26DE7B, size: 0x8, addend: 0x0, symName: __ZNSt3__114__split_bufferINS_10unique_ptrIN8firebase9firestore6remote8GrpcCallENS_14default_deleteIS5_EEEERNS_9allocatorIS8_EEED2Ev, symObjAddr: 0x50DC, symBinAddr: 0x35D34, symSize: 0x60 }
  - { offsetInCU: 0x471FD, offset: 0x26FF6C, size: 0x8, addend: 0x0, symName: __ZNSt3__121__unwrap_and_dispatchB8ue170006INS_10__overloadINS_11__move_loopINS_17_ClassicAlgPolicyEEENS_14__move_trivialEEEPNS_10unique_ptrIN8firebase9firestore6remote8GrpcCallENS_14default_deleteISB_EEEESF_SF_Li0EEENS_4pairIT0_T2_EESH_T1_SI_, symObjAddr: 0x947C, symBinAddr: 0x39DD8, symSize: 0x70 }
  - { offsetInCU: 0x48C8E, offset: 0x2719FD, size: 0x8, addend: 0x0, symName: __ZNSt3__119__allocate_at_leastB8ue170006INS_9allocatorIN8firebase9firestore5model8MutationEEEEENS_19__allocation_resultINS_16allocator_traitsIT_E7pointerEEERS9_m, symObjAddr: 0x4A64, symBinAddr: 0x35708, symSize: 0x34 }
  - { offsetInCU: 0x48D36, offset: 0x271AA5, size: 0x8, addend: 0x0, symName: __ZNSt3__110shared_ptrIN8firebase9firestore5model8Mutation3RepEED2B8ue170006Ev, symObjAddr: 0x4A98, symBinAddr: 0x3573C, symSize: 0x58 }
  - { offsetInCU: 0x49314, offset: 0x272083, size: 0x8, addend: 0x0, symName: __ZNSt3__119__allocate_at_leastB8ue170006INS_9allocatorIN8firebase9firestore5model11DocumentKeyEEEEENS_19__allocation_resultINS_16allocator_traitsIT_E7pointerEEERS9_m, symObjAddr: 0x57F8, symBinAddr: 0x363EC, symSize: 0x34 }
  - { offsetInCU: 0x49AAC, offset: 0x27281B, size: 0x8, addend: 0x0, symName: __ZNSt3__135__uninitialized_allocator_copy_implB8ue170006INS_9allocatorIN8firebase9firestore5model14AggregateFieldEEEPS5_S7_S7_EET2_RT_T0_T1_S8_, symObjAddr: 0x6670, symBinAddr: 0x370D0, symSize: 0xA8 }
  - { offsetInCU: 0x49C81, offset: 0x2729F0, size: 0x8, addend: 0x0, symName: __ZNSt3__119__allocate_at_leastB8ue170006INS_9allocatorIN8firebase9firestore5model14AggregateFieldEEEEENS_19__allocation_resultINS_16allocator_traitsIT_E7pointerEEERS9_m, symObjAddr: 0x6628, symBinAddr: 0x37088, symSize: 0x48 }
  - { offsetInCU: 0x49D29, offset: 0x272A98, size: 0x8, addend: 0x0, symName: __ZNSt3__135__uninitialized_allocator_copy_implB8ue170006INS_9allocatorIN8firebase9firestore5model14AggregateFieldEEEPS5_S7_S7_EET2_RT_T0_T1_S8_, symObjAddr: 0x6670, symBinAddr: 0x370D0, symSize: 0xA8 }
  - { offsetInCU: 0x4A2A9, offset: 0x273018, size: 0x8, addend: 0x0, symName: __ZNSt3__120__throw_bad_weak_ptrB8ue170006Ev, symObjAddr: 0x7E7C, symBinAddr: 0x387D8, symSize: 0x34 }
  - { offsetInCU: 0x4EBC4, offset: 0x277933, size: 0x8, addend: 0x0, symName: __ZN4absl12lts_2022062318container_internal10DeallocateILm8ENSt3__19allocatorINS3_4pairIKNS3_12basic_stringIcNS3_11char_traitsIcEENS4_IcEEEESA_EEEEEEvPT0_Pvm, symObjAddr: 0x3DB8, symBinAddr: 0x34B9C, symSize: 0x18 }
  - { offsetInCU: 0x4ECBF, offset: 0x277A2E, size: 0x8, addend: 0x0, symName: __ZN4absl12lts_2022062316allocator_traitsINSt3__19allocatorINS2_4pairIKNS2_12basic_stringIcNS2_11char_traitsIcEENS3_IcEEEES9_EEEEE12destroy_implINS4_IS9_S9_EEEEvcRSC_PT_, symObjAddr: 0x3DD0, symBinAddr: 0x34BB4, symSize: 0x44 }
  - { offsetInCU: 0x4F3BB, offset: 0x27812A, size: 0x8, addend: 0x0, symName: __ZN4absl12lts_2022062318container_internaleqERKNS1_12raw_hash_setINS1_17FlatHashMapPolicyINSt3__112basic_stringIcNS4_11char_traitsIcEENS4_9allocatorIcEEEESA_EENS1_10StringHashENS1_8StringEqENS8_INS4_4pairIKSA_SA_EEEEE8iteratorESL_, symObjAddr: 0x7A7C, symBinAddr: 0x383D8, symSize: 0x40 }
  - { offsetInCU: 0x4F467, offset: 0x2781D6, size: 0x8, addend: 0x0, symName: __ZNSt3__14pairINS_12basic_stringIcNS_11char_traitsIcEENS_9allocatorIcEEEES6_EC2B8ue170006IKS6_S6_LPv0EEERKNS0_IT_T0_EE, symObjAddr: 0x7ABC, symBinAddr: 0x38418, symSize: 0x94 }
  - { offsetInCU: 0x4F585, offset: 0x2782F4, size: 0x8, addend: 0x0, symName: __ZN4absl12lts_2022062318container_internal8AllocateILm8ENSt3__19allocatorINS3_4pairIKNS3_12basic_stringIcNS3_11char_traitsIcEENS4_IcEEEESA_EEEEEEPvPT0_m, symObjAddr: 0x75F0, symBinAddr: 0x37F4C, symSize: 0x30 }
  - { offsetInCU: 0x4F658, offset: 0x2783C7, size: 0x8, addend: 0x0, symName: __ZN4absl12lts_2022062318container_internal12raw_hash_setINS1_17FlatHashMapPolicyINSt3__112basic_stringIcNS4_11char_traitsIcEENS4_9allocatorIcEEEESA_EENS1_10StringHashENS1_8StringEqENS8_INS4_4pairIKSA_SA_EEEEE17reset_growth_leftEv, symObjAddr: 0x7620, symBinAddr: 0x37F7C, symSize: 0x48 }
  - { offsetInCU: 0x5E3BA, offset: 0x287129, size: 0x8, addend: 0x0, symName: __ZN8firebase9firestore6remote9Datastore29GetAllowlistedHeadersAsStringERKNSt3__18multimapIN4grpc10string_refES6_NS3_4lessIS6_EENS3_9allocatorINS3_4pairIKS6_S6_EEEEEE, symObjAddr: 0x285C, symBinAddr: 0x34174, symSize: 0x320 }
  - { offsetInCU: 0x5E3DE, offset: 0x28714D, size: 0x8, addend: 0x0, symName: __ZZN8firebase9firestore6remote9Datastore29GetAllowlistedHeadersAsStringERKNSt3__18multimapIN4grpc10string_refES6_NS3_4lessIS6_EENS3_9allocatorINS3_4pairIKS6_S6_EEEEEEE9allowlist, symObjAddr: 0x305ED8, symBinAddr: 0x242C90, symSize: 0x0 }
  - { offsetInCU: 0x5F68B, offset: 0x2883FA, size: 0x8, addend: 0x0, symName: __ZN8firebase9firestore6remote9Datastore5StartEv, symObjAddr: 0x38C, symBinAddr: 0x31CA4, symSize: 0xE0 }
  - { offsetInCU: 0x5FAA8, offset: 0x288817, size: 0x8, addend: 0x0, symName: __ZN8firebase9firestore6remote9Datastore8ShutdownEv, symObjAddr: 0x46C, symBinAddr: 0x31D84, symSize: 0xF8 }
  - { offsetInCU: 0x5FDFF, offset: 0x288B6E, size: 0x8, addend: 0x0, symName: __ZNSt3__110shared_ptrIN8firebase9firestore6remote11WatchStreamEE18__enable_weak_thisB8ue170006INS3_6StreamES4_vEEvPKNS_23enable_shared_from_thisIT_EEPT0_, symObjAddr: 0x45A4, symBinAddr: 0x35248, symSize: 0xB0 }
  - { offsetInCU: 0x601A1, offset: 0x288F10, size: 0x8, addend: 0x0, symName: __ZNSt3__110shared_ptrIN8firebase9firestore6remote11WriteStreamEE18__enable_weak_thisB8ue170006INS3_6StreamES4_vEEvPKNS_23enable_shared_from_thisIT_EEPT0_, symObjAddr: 0x48C0, symBinAddr: 0x35564, symSize: 0xB0 }
  - { offsetInCU: 0x604F4, offset: 0x289263, size: 0x8, addend: 0x0, symName: __ZN8firebase9firestore6remote9Datastore15CommitMutationsERKNSt3__16vectorINS0_5model8MutationENS3_9allocatorIS6_EEEEONS3_8functionIFvRKNS0_4util6StatusEEEE, symObjAddr: 0x720, symBinAddr: 0x32038, symSize: 0x1C0 }
  - { offsetInCU: 0x6105C, offset: 0x289DCB, size: 0x8, addend: 0x0, symName: __ZN8firebase9firestore6remote9Datastore30CommitMutationsWithCredentialsERKNS0_11credentials9AuthTokenERKNSt3__112basic_stringIcNS7_11char_traitsIcEENS7_9allocatorIcEEEERKNS7_6vectorINS0_5model8MutationENSB_ISI_EEEEONS7_8functionIFvRKNS0_4util6StatusEEEE, symObjAddr: 0xFF0, symBinAddr: 0x32908, symSize: 0x34C }
  - { offsetInCU: 0x621F3, offset: 0x28AF62, size: 0x8, addend: 0x0, symName: __ZN8firebase9firestore6remote9Datastore15LookupDocumentsERKNSt3__16vectorINS0_5model11DocumentKeyENS3_9allocatorIS6_EEEEONS3_8functionIFvRKNS0_4util8StatusOrINS4_INS5_8DocumentENS7_ISF_EEEEEEEEE, symObjAddr: 0x13D0, symBinAddr: 0x32CE8, symSize: 0x1C0 }
  - { offsetInCU: 0x62D1F, offset: 0x28BA8E, size: 0x8, addend: 0x0, symName: __ZN8firebase9firestore6remote9Datastore30LookupDocumentsWithCredentialsERKNS0_11credentials9AuthTokenERKNSt3__112basic_stringIcNS7_11char_traitsIcEENS7_9allocatorIcEEEERKNS7_6vectorINS0_5model11DocumentKeyENSB_ISI_EEEEONS7_8functionIFvRKNS0_4util8StatusOrINSG_INSH_8DocumentENSB_ISQ_EEEEEEEEE, symObjAddr: 0x15F8, symBinAddr: 0x32F10, symSize: 0x604 }
  - { offsetInCU: 0x64C62, offset: 0x28D9D1, size: 0x8, addend: 0x0, symName: __ZN8firebase9firestore6remote9Datastore17RunAggregateQueryERKNS0_4core5QueryERKNSt3__16vectorINS0_5model14AggregateFieldENS7_9allocatorISA_EEEEONS7_8functionIFvRKNS0_4util8StatusOrINS9_11ObjectValueEEEEEE, symObjAddr: 0x1C90, symBinAddr: 0x335A8, symSize: 0x244 }
  - { offsetInCU: 0x658BD, offset: 0x28E62C, size: 0x8, addend: 0x0, symName: __ZN8firebase9firestore6remote9Datastore32RunAggregateQueryWithCredentialsERKNS0_11credentials9AuthTokenERKNSt3__112basic_stringIcNS7_11char_traitsIcEENS7_9allocatorIcEEEERKNS0_4core5QueryERKNS7_6vectorINS0_5model14AggregateFieldENSB_ISM_EEEEONS7_8functionIFvRKNS0_4util8StatusOrINSL_11ObjectValueEEEEEE, symObjAddr: 0x1F44, symBinAddr: 0x3385C, symSize: 0x3CC }
  - { offsetInCU: 0x66FAF, offset: 0x28FD1E, size: 0x8, addend: 0x0, symName: __ZN8firebase9firestore6remote9Datastore24ResumeRpcWithCredentialsERKNSt3__18functionIFvRKNS0_4util8StatusOrINS0_11credentials9AuthTokenEEERKNS3_12basic_stringIcNS3_11char_traitsIcEENS3_9allocatorIcEEEEEEE, symObjAddr: 0x8E0, symBinAddr: 0x321F8, symSize: 0x6A8 }
  - { offsetInCU: 0x68FF9, offset: 0x291D68, size: 0x8, addend: 0x0, symName: '__ZZN8firebase9firestore6remote9Datastore24ResumeRpcWithCredentialsERKNSt3__18functionIFvRKNS0_4util8StatusOrINS0_11credentials9AuthTokenEEERKNS3_12basic_stringIcNS3_11char_traitsIcEENS3_9allocatorIcEEEEEEEENK3$_9clERKN4absl12lts_202206238optionalIS9_EERKNSR_ISH_EE', symObjAddr: 0x85EC, symBinAddr: 0x38F48, symSize: 0x3D8 }
  - { offsetInCU: 0x6CCB2, offset: 0x295A21, size: 0x8, addend: 0x0, symName: __ZN8firebase9firestore6remote9DatastoreC2ERKNS0_4core12DatabaseInfoERKNSt3__110shared_ptrINS0_4util10AsyncQueueEEENS8_INS0_11credentials19CredentialsProviderINSE_9AuthTokenENSE_4UserEEEEENS8_INSF_INS7_12basic_stringIcNS7_11char_traitsIcEENS7_9allocatorIcEEEESP_EEEEPNS1_19ConnectivityMonitorEPNS1_24FirebaseMetadataProviderE, symObjAddr: 0x0, symBinAddr: 0x31918, symSize: 0x2F8 }
  - { offsetInCU: 0x6D809, offset: 0x296578, size: 0x8, addend: 0x0, symName: __ZN4grpc15CompletionQueueC2ERK32grpc_completion_queue_attributes, symObjAddr: 0x2B94, symBinAddr: 0x344AC, symSize: 0xF8 }
  - { offsetInCU: 0x6DEA2, offset: 0x296C11, size: 0x8, addend: 0x0, symName: __ZNSt3__110shared_ptrIN8firebase9firestore11credentials19CredentialsProviderINS_12basic_stringIcNS_11char_traitsIcEENS_9allocatorIcEEEESA_EEED2B8ue170006Ev, symObjAddr: 0x408C, symBinAddr: 0x34D78, symSize: 0x58 }
  - { offsetInCU: 0x6DF0A, offset: 0x296C79, size: 0x8, addend: 0x0, symName: __ZNSt3__16vectorINS_10unique_ptrIN8firebase9firestore6remote8GrpcCallENS_14default_deleteIS5_EEEENS_9allocatorIS8_EEE16__destroy_vectorclB8ue170006Ev, symObjAddr: 0x413C, symBinAddr: 0x34E28, symSize: 0x7C }
  - { offsetInCU: 0x6E10C, offset: 0x296E7B, size: 0x8, addend: 0x0, symName: __ZN8firebase9firestore6remote14GrpcConnectionD1Ev, symObjAddr: 0x2F8, symBinAddr: 0x31C10, symSize: 0x4C }
  - { offsetInCU: 0x6E33D, offset: 0x2970AC, size: 0x8, addend: 0x0, symName: __ZN8firebase9firestore4core12DatabaseInfoD1Ev, symObjAddr: 0x344, symBinAddr: 0x31C5C, symSize: 0x40 }
  - { offsetInCU: 0x6E63C, offset: 0x2973AB, size: 0x8, addend: 0x0, symName: __ZN4grpc15CompletionQueueD2Ev, symObjAddr: 0x30A0, symBinAddr: 0x34828, symSize: 0x70 }
  - { offsetInCU: 0x6E731, offset: 0x2974A0, size: 0x8, addend: 0x0, symName: __ZNSt3__110shared_ptrIN8firebase9firestore11credentials19CredentialsProviderINS3_9AuthTokenENS3_4UserEEEED2B8ue170006Ev, symObjAddr: 0x40E4, symBinAddr: 0x34DD0, symSize: 0x58 }
  - { offsetInCU: 0x6E7BB, offset: 0x29752A, size: 0x8, addend: 0x0, symName: __ZNSt3__110shared_ptrIN8firebase9firestore11credentials19CredentialsProviderINS_12basic_stringIcNS_11char_traitsIcEENS_9allocatorIcEEEESA_EEED2B8ue170006Ev, symObjAddr: 0x408C, symBinAddr: 0x34D78, symSize: 0x58 }
  - { offsetInCU: 0x6E9F7, offset: 0x297766, size: 0x8, addend: 0x0, symName: __ZNSt3__110unique_ptrIN4grpc20TemplatedGenericStubINS1_10ByteBufferES3_EENS_14default_deleteIS4_EEE5resetB8ue170006EPS4_, symObjAddr: 0x2FC4, symBinAddr: 0x3474C, symSize: 0x2C }
  - { offsetInCU: 0x6EABB, offset: 0x29782A, size: 0x8, addend: 0x0, symName: __ZNSt3__110shared_ptrIN4grpc7ChannelEED2B8ue170006Ev, symObjAddr: 0x3048, symBinAddr: 0x347D0, symSize: 0x58 }
  - { offsetInCU: 0x6EB68, offset: 0x2978D7, size: 0x8, addend: 0x0, symName: __ZN4grpc15CompletionQueueD1Ev, symObjAddr: 0x384, symBinAddr: 0x31C9C, symSize: 0x4 }
  - { offsetInCU: 0x6EB8B, offset: 0x2978FA, size: 0x8, addend: 0x0, symName: __ZN4grpc15CompletionQueueD1Ev, symObjAddr: 0x384, symBinAddr: 0x31C9C, symSize: 0x4 }
  - { offsetInCU: 0x6EB9E, offset: 0x29790D, size: 0x8, addend: 0x0, symName: __ZN8firebase9firestore6remote9DatastoreC1ERKNS0_4core12DatabaseInfoERKNSt3__110shared_ptrINS0_4util10AsyncQueueEEENS8_INS0_11credentials19CredentialsProviderINSE_9AuthTokenENSE_4UserEEEEENS8_INSF_INS7_12basic_stringIcNS7_11char_traitsIcEENS7_9allocatorIcEEEESP_EEEEPNS1_19ConnectivityMonitorEPNS1_24FirebaseMetadataProviderE, symObjAddr: 0x388, symBinAddr: 0x31CA0, symSize: 0x4 }
  - { offsetInCU: 0x6EC1B, offset: 0x29798A, size: 0x8, addend: 0x0, symName: __ZN8firebase9firestore6remote9DatastoreC1ERKNS0_4core12DatabaseInfoERKNSt3__110shared_ptrINS0_4util10AsyncQueueEEENS8_INS0_11credentials19CredentialsProviderINSE_9AuthTokenENSE_4UserEEEEENS8_INSF_INS7_12basic_stringIcNS7_11char_traitsIcEENS7_9allocatorIcEEEESP_EEEEPNS1_19ConnectivityMonitorEPNS1_24FirebaseMetadataProviderE, symObjAddr: 0x388, symBinAddr: 0x31CA0, symSize: 0x4 }
  - { offsetInCU: 0x6F091, offset: 0x297E00, size: 0x8, addend: 0x0, symName: __ZN8firebase9firestore6remote9Datastore13PollGrpcQueueEv, symObjAddr: 0x564, symBinAddr: 0x31E7C, symSize: 0x134 }
  - { offsetInCU: 0x6F249, offset: 0x297FB8, size: 0x8, addend: 0x0, symName: __ZN8firebase9firestore6remote9Datastore17CreateWatchStreamEPNS1_19WatchStreamCallbackE, symObjAddr: 0x698, symBinAddr: 0x31FB0, symSize: 0x44 }
  - { offsetInCU: 0x6F2EE, offset: 0x29805D, size: 0x8, addend: 0x0, symName: __ZN8firebase9firestore6remote9Datastore17CreateWriteStreamEPNS1_19WriteStreamCallbackE, symObjAddr: 0x6DC, symBinAddr: 0x31FF4, symSize: 0x44 }
  - { offsetInCU: 0x6FB6E, offset: 0x2988DD, size: 0x8, addend: 0x0, symName: __ZNSt3__16vectorIN8firebase9firestore5model8MutationENS_9allocatorIS4_EEE16__init_with_sizeB8ue170006IPS4_S9_EEvT_T0_m, symObjAddr: 0x4970, symBinAddr: 0x35614, symSize: 0xA0 }
  - { offsetInCU: 0x6FEF5, offset: 0x298C64, size: 0x8, addend: 0x0, symName: __ZNSt3__110__function12__value_funcIFvRKN8firebase9firestore4util6StatusEEEC2B8ue170006ERKS9_, symObjAddr: 0x4B60, symBinAddr: 0x35804, symSize: 0x64 }
  - { offsetInCU: 0x6FF4E, offset: 0x298CBD, size: 0x8, addend: 0x0, symName: __ZNSt3__110__function12__value_funcIFvRKN8firebase9firestore4util6StatusEEEC2B8ue170006EOS9_, symObjAddr: 0x4DE0, symBinAddr: 0x35A84, symSize: 0x64 }
  - { offsetInCU: 0x6FF9B, offset: 0x298D0A, size: 0x8, addend: 0x0, symName: __ZNSt3__16vectorIN8firebase9firestore5model8MutationENS_9allocatorIS4_EEE16__destroy_vectorclB8ue170006Ev, symObjAddr: 0x4AF0, symBinAddr: 0x35794, symSize: 0x70 }
  - { offsetInCU: 0x7015F, offset: 0x298ECE, size: 0x8, addend: 0x0, symName: '__ZZN8firebase9firestore6remote9Datastore15CommitMutationsERKNSt3__16vectorINS0_5model8MutationENS3_9allocatorIS6_EEEEONS3_8functionIFvRKNS0_4util6StatusEEEEEN3$_2D1Ev', symObjAddr: 0xF88, symBinAddr: 0x328A0, symSize: 0x68 }
  - { offsetInCU: 0x71225, offset: 0x299F94, size: 0x8, addend: 0x0, symName: __ZNSt3__110shared_ptrIN8firebase9firestore6remote9DatastoreEEC2B8ue170006IS4_vEERKNS_8weak_ptrIT_EE, symObjAddr: 0x7E3C, symBinAddr: 0x38798, symSize: 0x40 }
  - { offsetInCU: 0x71261, offset: 0x299FD0, size: 0x8, addend: 0x0, symName: __ZNSt3__120__throw_bad_weak_ptrB8ue170006Ev, symObjAddr: 0x7E7C, symBinAddr: 0x387D8, symSize: 0x34 }
  - { offsetInCU: 0x71278, offset: 0x299FE7, size: 0x8, addend: 0x0, symName: __ZNSt3__110__function12__value_funcIFvRKN8firebase9firestore4util8StatusOrINS3_11credentials9AuthTokenEEERKNS_12basic_stringIcNS_11char_traitsIcEENS_9allocatorIcEEEEEEC2B8ue170006ERKSK_, symObjAddr: 0x820C, symBinAddr: 0x38B68, symSize: 0x64 }
  - { offsetInCU: 0x712C2, offset: 0x29A031, size: 0x8, addend: 0x0, symName: __ZNSt3__110shared_ptrIN8firebase9firestore6remote9Datastore15CallCredentialsEED2B8ue170006Ev, symObjAddr: 0x81B4, symBinAddr: 0x38B10, symSize: 0x58 }
  - { offsetInCU: 0x7134C, offset: 0x29A0BB, size: 0x8, addend: 0x0, symName: '__ZZN8firebase9firestore6remote9Datastore24ResumeRpcWithCredentialsERKNSt3__18functionIFvRKNS0_4util8StatusOrINS0_11credentials9AuthTokenEEERKNS3_12basic_stringIcNS3_11char_traitsIcEENS3_9allocatorIcEEEEEEEEN4$_11D1Ev', symObjAddr: 0x2464, symBinAddr: 0x33D7C, symSize: 0x64 }
  - { offsetInCU: 0x714B8, offset: 0x29A227, size: 0x8, addend: 0x0, symName: '__ZZN8firebase9firestore6remote9Datastore24ResumeRpcWithCredentialsERKNSt3__18functionIFvRKNS0_4util8StatusOrINS0_11credentials9AuthTokenEEERKNS3_12basic_stringIcNS3_11char_traitsIcEENS3_9allocatorIcEEEEEEEEN4$_10D1Ev', symObjAddr: 0x2400, symBinAddr: 0x33D18, symSize: 0x64 }
  - { offsetInCU: 0x71624, offset: 0x29A393, size: 0x8, addend: 0x0, symName: '__ZZN8firebase9firestore6remote9Datastore24ResumeRpcWithCredentialsERKNSt3__18functionIFvRKNS0_4util8StatusOrINS0_11credentials9AuthTokenEEERKNS3_12basic_stringIcNS3_11char_traitsIcEENS3_9allocatorIcEEEEEEEEN3$_9D1Ev', symObjAddr: 0x24C8, symBinAddr: 0x33DE0, symSize: 0x64 }
  - { offsetInCU: 0x7229D, offset: 0x29B00C, size: 0x8, addend: 0x0, symName: __ZN8firebase9firestore6nanopb7MessageINS0_34_google_firestore_v1_CommitRequestEED2Ev, symObjAddr: 0x4F78, symBinAddr: 0x35BD0, symSize: 0x3C }
  - { offsetInCU: 0x722F7, offset: 0x29B066, size: 0x8, addend: 0x0, symName: __ZNSt3__114__split_bufferINS_10unique_ptrIN8firebase9firestore6remote8GrpcCallENS_14default_deleteIS5_EEEERNS_9allocatorIS8_EEED2Ev, symObjAddr: 0x50DC, symBinAddr: 0x35D34, symSize: 0x60 }
  - { offsetInCU: 0x724DB, offset: 0x29B24A, size: 0x8, addend: 0x0, symName: __ZNKSt3__16vectorINS_10unique_ptrIN8firebase9firestore6remote8GrpcCallENS_14default_deleteIS5_EEEENS_9allocatorIS8_EEE20__throw_length_errorB8ue170006Ev, symObjAddr: 0x5094, symBinAddr: 0x35CEC, symSize: 0x14 }
  - { offsetInCU: 0x72502, offset: 0x29B271, size: 0x8, addend: 0x0, symName: __ZNSt3__119__allocate_at_leastB8ue170006INS_9allocatorINS_10unique_ptrIN8firebase9firestore6remote8GrpcCallENS_14default_deleteIS6_EEEEEEEENS_19__allocation_resultINS_16allocator_traitsIT_E7pointerEEERSD_m, symObjAddr: 0x50A8, symBinAddr: 0x35D00, symSize: 0x34 }
  - { offsetInCU: 0x7250E, offset: 0x29B27D, size: 0x8, addend: 0x0, symName: __ZN4grpc10ByteBufferD2Ev, symObjAddr: 0x3110, symBinAddr: 0x34898, symSize: 0x44 }
  - { offsetInCU: 0x726A4, offset: 0x29B413, size: 0x8, addend: 0x0, symName: __ZNSt3__16vectorIN4grpc5SliceENS_9allocatorIS2_EEE16__destroy_vectorclB8ue170006Ev, symObjAddr: 0x4FB4, symBinAddr: 0x35C0C, symSize: 0x40 }
  - { offsetInCU: 0x72F11, offset: 0x29BC80, size: 0x8, addend: 0x0, symName: __ZNSt3__16vectorIN8firebase9firestore5model11DocumentKeyENS_9allocatorIS4_EEE16__init_with_sizeB8ue170006IPS4_S9_EEvT_T0_m, symObjAddr: 0x5704, symBinAddr: 0x362F8, symSize: 0xA0 }
  - { offsetInCU: 0x73298, offset: 0x29C007, size: 0x8, addend: 0x0, symName: __ZNSt3__110__function12__value_funcIFvRKN8firebase9firestore4util8StatusOrINS_6vectorINS3_5model8DocumentENS_9allocatorIS8_EEEEEEEEC2B8ue170006ERKSG_, symObjAddr: 0x58F4, symBinAddr: 0x36490, symSize: 0x64 }
  - { offsetInCU: 0x732E2, offset: 0x29C051, size: 0x8, addend: 0x0, symName: __ZNSt3__110__function12__value_funcIFvRKN8firebase9firestore4util8StatusOrINS_6vectorINS3_5model8DocumentENS_9allocatorIS8_EEEEEEEEC2B8ue170006EOSG_, symObjAddr: 0x5BBC, symBinAddr: 0x36758, symSize: 0x64 }
  - { offsetInCU: 0x7332F, offset: 0x29C09E, size: 0x8, addend: 0x0, symName: __ZNSt3__16vectorIN8firebase9firestore5model11DocumentKeyENS_9allocatorIS4_EEE16__destroy_vectorclB8ue170006Ev, symObjAddr: 0x5884, symBinAddr: 0x36420, symSize: 0x70 }
  - { offsetInCU: 0x734F3, offset: 0x29C262, size: 0x8, addend: 0x0, symName: '__ZZN8firebase9firestore6remote9Datastore15LookupDocumentsERKNSt3__16vectorINS0_5model11DocumentKeyENS3_9allocatorIS6_EEEEONS3_8functionIFvRKNS0_4util8StatusOrINS4_INS5_8DocumentENS7_ISF_EEEEEEEEEEN3$_4D1Ev', symObjAddr: 0x1590, symBinAddr: 0x32EA8, symSize: 0x68 }
  - { offsetInCU: 0x741C6, offset: 0x29CF35, size: 0x8, addend: 0x0, symName: __ZN8firebase9firestore6nanopb7MessageINS0_45_google_firestore_v1_BatchGetDocumentsRequestEED2Ev, symObjAddr: 0x5F84, symBinAddr: 0x369E4, symSize: 0x3C }
  - { offsetInCU: 0x749EB, offset: 0x29D75A, size: 0x8, addend: 0x0, symName: __ZN8firebase9firestore4core5QueryC2ERKS2_, symObjAddr: 0x3154, symBinAddr: 0x348DC, symSize: 0x204 }
  - { offsetInCU: 0x754C8, offset: 0x29E237, size: 0x8, addend: 0x0, symName: __ZNSt3__16vectorIN8firebase9firestore5model14AggregateFieldENS_9allocatorIS4_EEE16__init_with_sizeB8ue170006IPS4_S9_EEvT_T0_m, symObjAddr: 0x653C, symBinAddr: 0x36F9C, symSize: 0x84 }
  - { offsetInCU: 0x75746, offset: 0x29E4B5, size: 0x8, addend: 0x0, symName: __ZNSt3__110__function12__value_funcIFvRKN8firebase9firestore4util8StatusOrINS3_5model11ObjectValueEEEEEC2B8ue170006ERKSC_, symObjAddr: 0x6908, symBinAddr: 0x372A0, symSize: 0x64 }
  - { offsetInCU: 0x7579F, offset: 0x29E50E, size: 0x8, addend: 0x0, symName: __ZNSt3__110__function12__value_funcIFvRKN8firebase9firestore4util8StatusOrINS3_5model11ObjectValueEEEEEC2B8ue170006EOSC_, symObjAddr: 0x6BE4, symBinAddr: 0x3757C, symSize: 0x64 }
  - { offsetInCU: 0x75C1A, offset: 0x29E989, size: 0x8, addend: 0x0, symName: '__ZZN8firebase9firestore6remote9Datastore17RunAggregateQueryERKNS0_4core5QueryERKNSt3__16vectorINS0_5model14AggregateFieldENS7_9allocatorISA_EEEEONS7_8functionIFvRKNS0_4util8StatusOrINS9_11ObjectValueEEEEEEEN3$_7D1Ev', symObjAddr: 0x1ED4, symBinAddr: 0x337EC, symSize: 0x70 }
  - { offsetInCU: 0x7653C, offset: 0x29F2AB, size: 0x8, addend: 0x0, symName: __ZN8firebase9firestore6nanopb7MessageINS0_47_google_firestore_v1_RunAggregationQueryRequestEED2Ev, symObjAddr: 0x6E38, symBinAddr: 0x37794, symSize: 0x3C }
  - { offsetInCU: 0x76596, offset: 0x29F305, size: 0x8, addend: 0x0, symName: __ZN4absl12lts_2022062318container_internal12raw_hash_setINS1_17FlatHashMapPolicyINSt3__112basic_stringIcNS4_11char_traitsIcEENS4_9allocatorIcEEEESA_EENS1_10StringHashENS1_8StringEqENS8_INS4_4pairIKSA_SA_EEEEE13destroy_slotsEv, symObjAddr: 0x3CFC, symBinAddr: 0x34AE0, symSize: 0xBC }
  - { offsetInCU: 0x7670A, offset: 0x29F479, size: 0x8, addend: 0x0, symName: __ZN4absl12lts_2022062318container_internal10DeallocateILm8ENSt3__19allocatorINS3_4pairIKNS3_12basic_stringIcNS3_11char_traitsIcEENS4_IcEEEESA_EEEEEEvPT0_Pvm, symObjAddr: 0x3DB8, symBinAddr: 0x34B9C, symSize: 0x18 }
  - { offsetInCU: 0x76716, offset: 0x29F485, size: 0x8, addend: 0x0, symName: '__ZZN8firebase9firestore6remote9Datastore32RunAggregateQueryWithCredentialsERKNS0_11credentials9AuthTokenERKNSt3__112basic_stringIcNS7_11char_traitsIcEENS7_9allocatorIcEEEERKNS0_4core5QueryERKNS7_6vectorINS0_5model14AggregateFieldENSB_ISM_EEEEONS7_8functionIFvRKNS0_4util8StatusOrINSL_11ObjectValueEEEEEEEN3$_8D1Ev', symObjAddr: 0x23A4, symBinAddr: 0x33CBC, symSize: 0x5C }
  - { offsetInCU: 0x768A4, offset: 0x29F613, size: 0x8, addend: 0x0, symName: __ZN8firebase9firestore6remote9Datastore16HandleCallStatusERKNS0_4util6StatusE, symObjAddr: 0x252C, symBinAddr: 0x33E44, symSize: 0x5C }
  - { offsetInCU: 0x769B6, offset: 0x29F725, size: 0x8, addend: 0x0, symName: __ZN8firebase9firestore6remote9Datastore14RemoveGrpcCallEPNS1_8GrpcCallE, symObjAddr: 0x2588, symBinAddr: 0x33EA0, symSize: 0xF4 }
  - { offsetInCU: 0x76FE7, offset: 0x29FD56, size: 0x8, addend: 0x0, symName: __ZN8firebase9firestore6remote9Datastore14IsAbortedErrorERKNS0_4util6StatusE, symObjAddr: 0x267C, symBinAddr: 0x33F94, symSize: 0x24 }
  - { offsetInCU: 0x7701E, offset: 0x29FD8D, size: 0x8, addend: 0x0, symName: __ZN8firebase9firestore6remote9Datastore14IsAbortedErrorERKNS0_4util6StatusE, symObjAddr: 0x267C, symBinAddr: 0x33F94, symSize: 0x24 }
  - { offsetInCU: 0x77039, offset: 0x29FDA8, size: 0x8, addend: 0x0, symName: __ZN8firebase9firestore6remote9Datastore14IsAbortedErrorERKNS0_4util6StatusE, symObjAddr: 0x267C, symBinAddr: 0x33F94, symSize: 0x24 }
  - { offsetInCU: 0x7705B, offset: 0x29FDCA, size: 0x8, addend: 0x0, symName: __ZN8firebase9firestore6remote9Datastore14IsAbortedErrorERKNS0_4util6StatusE, symObjAddr: 0x267C, symBinAddr: 0x33F94, symSize: 0x24 }
  - { offsetInCU: 0x77079, offset: 0x29FDE8, size: 0x8, addend: 0x0, symName: __ZN8firebase9firestore6remote9Datastore16IsPermanentErrorERKNS0_4util6StatusE, symObjAddr: 0x26A0, symBinAddr: 0x33FB8, symSize: 0xFC }
  - { offsetInCU: 0x77333, offset: 0x2A00A2, size: 0x8, addend: 0x0, symName: __ZNSt3__16__treeINS_12__value_typeIN4grpc10string_refES3_EENS_19__map_value_compareIS3_S4_NS_4lessIS3_EELb1EEENS_9allocatorIS4_EEE7destroyEPNS_11__tree_nodeIS4_PvEE, symObjAddr: 0x56C4, symBinAddr: 0x362B8, symSize: 0x40 }
  - { offsetInCU: 0x77356, offset: 0x2A00C5, size: 0x8, addend: 0x0, symName: __ZN8firebase9firestore6remote9Datastore21IsPermanentWriteErrorERKNS0_4util6StatusE, symObjAddr: 0x2818, symBinAddr: 0x34130, symSize: 0x44 }
  - { offsetInCU: 0x777F6, offset: 0x2A0565, size: 0x8, addend: 0x0, symName: __ZNSt3__112basic_stringIcNS_11char_traitsIcEENS_9allocatorIcEEEC2B8ue170006EPKcm, symObjAddr: 0x3E14, symBinAddr: 0x34BF8, symSize: 0x98 }
  - { offsetInCU: 0x77B42, offset: 0x2A08B1, size: 0x8, addend: 0x0, symName: __ZN8firebase9firestore6remote9DatastoreD2Ev, symObjAddr: 0x3EAC, symBinAddr: 0x34C90, symSize: 0xE8 }
  - { offsetInCU: 0x77B54, offset: 0x2A08C3, size: 0x8, addend: 0x0, symName: __ZNKSt3__112__hash_tableINS_12basic_stringIcNS_11char_traitsIcEENS_9allocatorIcEEEENS_4hashIS6_EENS_8equal_toIS6_EENS4_IS6_EEE4findIS6_EENS_21__hash_const_iteratorIPNS_11__hash_nodeIS6_PvEEEERKT_, symObjAddr: 0xA188, symBinAddr: 0x3A54C, symSize: 0x100 }
  - { offsetInCU: 0x77CF5, offset: 0x2A0A64, size: 0x8, addend: 0x0, symName: __ZNSt3__113unordered_setINS_12basic_stringIcNS_11char_traitsIcEENS_9allocatorIcEEEENS_4hashIS6_EENS_8equal_toIS6_EENS4_IS6_EEEC2ESt16initializer_listIS6_E, symObjAddr: 0x94EC, symBinAddr: 0x39E48, symSize: 0x78 }
  - { offsetInCU: 0x77F01, offset: 0x2A0C70, size: 0x8, addend: 0x0, symName: __ZNSt3__112__hash_tableINS_12basic_stringIcNS_11char_traitsIcEENS_9allocatorIcEEEENS_4hashIS6_EENS_8equal_toIS6_EENS4_IS6_EEEC2EOSC_, symObjAddr: 0xA118, symBinAddr: 0x3A4DC, symSize: 0x70 }
  - { offsetInCU: 0x77F3D, offset: 0x2A0CAC, size: 0x8, addend: 0x0, symName: __ZNSt3__112__hash_tableINS_12basic_stringIcNS_11char_traitsIcEENS_9allocatorIcEEEENS_4hashIS6_EENS_8equal_toIS6_EENS4_IS6_EEEC2EOSC_, symObjAddr: 0xA118, symBinAddr: 0x3A4DC, symSize: 0x70 }
  - { offsetInCU: 0x77F60, offset: 0x2A0CCF, size: 0x8, addend: 0x0, symName: __ZNSt3__112__hash_tableINS_12basic_stringIcNS_11char_traitsIcEENS_9allocatorIcEEEENS_4hashIS6_EENS_8equal_toIS6_EENS4_IS6_EEEC2EOSC_, symObjAddr: 0xA118, symBinAddr: 0x3A4DC, symSize: 0x70 }
  - { offsetInCU: 0x77F83, offset: 0x2A0CF2, size: 0x8, addend: 0x0, symName: __ZNSt3__112__hash_tableINS_12basic_stringIcNS_11char_traitsIcEENS_9allocatorIcEEEENS_4hashIS6_EENS_8equal_toIS6_EENS4_IS6_EEEC2EOSC_, symObjAddr: 0xA118, symBinAddr: 0x3A4DC, symSize: 0x70 }
  - { offsetInCU: 0x780FC, offset: 0x2A0E6B, size: 0x8, addend: 0x0, symName: __ZNSt3__112__hash_tableINS_12basic_stringIcNS_11char_traitsIcEENS_9allocatorIcEEEENS_4hashIS6_EENS_8equal_toIS6_EENS4_IS6_EEED2Ev, symObjAddr: 0xA09C, symBinAddr: 0x3A460, symSize: 0x38 }
  - { offsetInCU: 0x78277, offset: 0x2A0FE6, size: 0x8, addend: 0x0, symName: __ZN8firebase9firestore6remote9DatastoreD1Ev, symObjAddr: 0x2B7C, symBinAddr: 0x34494, symSize: 0x4 }
  - { offsetInCU: 0x7829A, offset: 0x2A1009, size: 0x8, addend: 0x0, symName: __ZN8firebase9firestore6remote9DatastoreD1Ev, symObjAddr: 0x2B7C, symBinAddr: 0x34494, symSize: 0x4 }
  - { offsetInCU: 0x782AD, offset: 0x2A101C, size: 0x8, addend: 0x0, symName: __ZN8firebase9firestore6remote9DatastoreD2Ev, symObjAddr: 0x3EAC, symBinAddr: 0x34C90, symSize: 0xE8 }
  - { offsetInCU: 0x78B3A, offset: 0x2A18A9, size: 0x8, addend: 0x0, symName: __ZN8firebase9firestore6remote9DatastoreD0Ev, symObjAddr: 0x2B80, symBinAddr: 0x34498, symSize: 0x14 }
  - { offsetInCU: 0x78DA2, offset: 0x2A1B11, size: 0x8, addend: 0x0, symName: __ZN4grpc18GrpcLibraryCodegenC2Eb, symObjAddr: 0x2C8C, symBinAddr: 0x345A4, symSize: 0x90 }
  - { offsetInCU: 0x78DFA, offset: 0x2A1B69, size: 0x8, addend: 0x0, symName: __ZNSt3__110__list_impIPKN4grpc6ServerENS_9allocatorIS4_EEE5clearEv, symObjAddr: 0x2DE0, symBinAddr: 0x346EC, symSize: 0x60 }
  - { offsetInCU: 0x78F9B, offset: 0x2A1D0A, size: 0x8, addend: 0x0, symName: __ZN4grpc18GrpcLibraryCodegenD2Ev, symObjAddr: 0x2D1C, symBinAddr: 0x34634, symSize: 0x8C }
  - { offsetInCU: 0x78FE4, offset: 0x2A1D53, size: 0x8, addend: 0x0, symName: __ZN4grpc15CompletionQueueD0Ev, symObjAddr: 0x2DA8, symBinAddr: 0x346C0, symSize: 0x14 }
  - { offsetInCU: 0x7903D, offset: 0x2A1DAC, size: 0x8, addend: 0x0, symName: __ZN4grpc18GrpcLibraryCodegenD1Ev, symObjAddr: 0x2DBC, symBinAddr: 0x346D4, symSize: 0x4 }
  - { offsetInCU: 0x79060, offset: 0x2A1DCF, size: 0x8, addend: 0x0, symName: __ZN4grpc18GrpcLibraryCodegenD1Ev, symObjAddr: 0x2DBC, symBinAddr: 0x346D4, symSize: 0x4 }
  - { offsetInCU: 0x79091, offset: 0x2A1E00, size: 0x8, addend: 0x0, symName: __ZN4grpc18GrpcLibraryCodegenD0Ev, symObjAddr: 0x2DC0, symBinAddr: 0x346D8, symSize: 0x14 }
  - { offsetInCU: 0x7939D, offset: 0x2A210C, size: 0x8, addend: 0x0, symName: __ZNSt3__110shared_ptrIN4grpc16ChannelInterfaceEED2B8ue170006Ev, symObjAddr: 0x2FF0, symBinAddr: 0x34778, symSize: 0x58 }
  - { offsetInCU: 0x7B8A6, offset: 0x2A4615, size: 0x8, addend: 0x0, symName: __ZN4absl12lts_2022062316allocator_traitsINSt3__19allocatorINS2_4pairIKNS2_12basic_stringIcNS2_11char_traitsIcEENS3_IcEEEES9_EEEEE12destroy_implINS4_IS9_S9_EEEEvcRSC_PT_, symObjAddr: 0x3DD0, symBinAddr: 0x34BB4, symSize: 0x44 }
  - { offsetInCU: 0x7BB47, offset: 0x2A48B6, size: 0x8, addend: 0x0, symName: __ZN4absl12lts_2022062318container_internal12raw_hash_setINS1_17FlatHashMapPolicyINSt3__112basic_stringIcNS4_11char_traitsIcEENS4_9allocatorIcEEEESA_EENS1_10StringHashENS1_8StringEqENS8_INS4_4pairIKSA_SA_EEEEE13destroy_slotsEv.cold.1, symObjAddr: 0xA288, symBinAddr: 0x17BB90, symSize: 0x24 }
  - { offsetInCU: 0x7BC18, offset: 0x2A4987, size: 0x8, addend: 0x0, symName: __ZN4absl12lts_2022062318container_internal10DeallocateILm8ENSt3__19allocatorINS3_4pairIKNS3_12basic_stringIcNS3_11char_traitsIcEENS4_IcEEEESA_EEEEEEvPT0_Pvm.cold.1, symObjAddr: 0xA2AC, symBinAddr: 0x17BBB4, symSize: 0x28 }
  - { offsetInCU: 0x7BD7E, offset: 0x2A4AED, size: 0x8, addend: 0x0, symName: '__ZNSt3__110__function6__funcIZN8firebase9firestore6remote9Datastore5StartEvE3$_0NS_9allocatorIS6_EEFvvEED1Ev', symObjAddr: 0x41B8, symBinAddr: 0x34EA4, symSize: 0x4 }
  - { offsetInCU: 0x7BDA9, offset: 0x2A4B18, size: 0x8, addend: 0x0, symName: '__ZNSt3__110__function6__funcIZN8firebase9firestore6remote9Datastore5StartEvE3$_0NS_9allocatorIS6_EEFvvEED0Ev', symObjAddr: 0x41BC, symBinAddr: 0x34EA8, symSize: 0x4 }
  - { offsetInCU: 0x7BFA1, offset: 0x2A4D10, size: 0x8, addend: 0x0, symName: '__ZNKSt3__110__function6__funcIZN8firebase9firestore6remote9Datastore5StartEvE3$_0NS_9allocatorIS6_EEFvvEE7__cloneEv', symObjAddr: 0x41C0, symBinAddr: 0x34EAC, symSize: 0x34 }
  - { offsetInCU: 0x7C293, offset: 0x2A5002, size: 0x8, addend: 0x0, symName: '__ZNKSt3__110__function6__funcIZN8firebase9firestore6remote9Datastore5StartEvE3$_0NS_9allocatorIS6_EEFvvEE7__cloneEPNS0_6__baseIS9_EE', symObjAddr: 0x41F4, symBinAddr: 0x34EE0, symSize: 0x14 }
  - { offsetInCU: 0x7C2CA, offset: 0x2A5039, size: 0x8, addend: 0x0, symName: '__ZNKSt3__110__function6__funcIZN8firebase9firestore6remote9Datastore5StartEvE3$_0NS_9allocatorIS6_EEFvvEE7__cloneEPNS0_6__baseIS9_EE', symObjAddr: 0x41F4, symBinAddr: 0x34EE0, symSize: 0x14 }
  - { offsetInCU: 0x7C2F8, offset: 0x2A5067, size: 0x8, addend: 0x0, symName: '__ZNKSt3__110__function6__funcIZN8firebase9firestore6remote9Datastore5StartEvE3$_0NS_9allocatorIS6_EEFvvEE7__cloneEPNS0_6__baseIS9_EE', symObjAddr: 0x41F4, symBinAddr: 0x34EE0, symSize: 0x14 }
  - { offsetInCU: 0x7C326, offset: 0x2A5095, size: 0x8, addend: 0x0, symName: '__ZNKSt3__110__function6__funcIZN8firebase9firestore6remote9Datastore5StartEvE3$_0NS_9allocatorIS6_EEFvvEE7__cloneEPNS0_6__baseIS9_EE', symObjAddr: 0x41F4, symBinAddr: 0x34EE0, symSize: 0x14 }
  - { offsetInCU: 0x7C33B, offset: 0x2A50AA, size: 0x8, addend: 0x0, symName: '__ZNKSt3__110__function6__funcIZN8firebase9firestore6remote9Datastore5StartEvE3$_0NS_9allocatorIS6_EEFvvEE7__cloneEPNS0_6__baseIS9_EE', symObjAddr: 0x41F4, symBinAddr: 0x34EE0, symSize: 0x14 }
  - { offsetInCU: 0x7C34F, offset: 0x2A50BE, size: 0x8, addend: 0x0, symName: '__ZNKSt3__110__function6__funcIZN8firebase9firestore6remote9Datastore5StartEvE3$_0NS_9allocatorIS6_EEFvvEE7__cloneEPNS0_6__baseIS9_EE', symObjAddr: 0x41F4, symBinAddr: 0x34EE0, symSize: 0x14 }
  - { offsetInCU: 0x7C363, offset: 0x2A50D2, size: 0x8, addend: 0x0, symName: '__ZNKSt3__110__function6__funcIZN8firebase9firestore6remote9Datastore5StartEvE3$_0NS_9allocatorIS6_EEFvvEE7__cloneEPNS0_6__baseIS9_EE', symObjAddr: 0x41F4, symBinAddr: 0x34EE0, symSize: 0x14 }
  - { offsetInCU: 0x7C377, offset: 0x2A50E6, size: 0x8, addend: 0x0, symName: '__ZNKSt3__110__function6__funcIZN8firebase9firestore6remote9Datastore5StartEvE3$_0NS_9allocatorIS6_EEFvvEE7__cloneEPNS0_6__baseIS9_EE', symObjAddr: 0x41F4, symBinAddr: 0x34EE0, symSize: 0x14 }
  - { offsetInCU: 0x7C38F, offset: 0x2A50FE, size: 0x8, addend: 0x0, symName: '__ZNSt3__110__function6__funcIZN8firebase9firestore6remote9Datastore5StartEvE3$_0NS_9allocatorIS6_EEFvvEE7destroyEv', symObjAddr: 0x4208, symBinAddr: 0x34EF4, symSize: 0x4 }
  - { offsetInCU: 0x7C3DD, offset: 0x2A514C, size: 0x8, addend: 0x0, symName: '__ZNSt3__110__function6__funcIZN8firebase9firestore6remote9Datastore5StartEvE3$_0NS_9allocatorIS6_EEFvvEE18destroy_deallocateEv', symObjAddr: 0x420C, symBinAddr: 0x34EF8, symSize: 0x4 }
  - { offsetInCU: 0x7C411, offset: 0x2A5180, size: 0x8, addend: 0x0, symName: '__ZNSt3__110__function6__funcIZN8firebase9firestore6remote9Datastore5StartEvE3$_0NS_9allocatorIS6_EEFvvEE18destroy_deallocateEv', symObjAddr: 0x420C, symBinAddr: 0x34EF8, symSize: 0x4 }
  - { offsetInCU: 0x7C434, offset: 0x2A51A3, size: 0x8, addend: 0x0, symName: '__ZNSt3__110__function6__funcIZN8firebase9firestore6remote9Datastore5StartEvE3$_0NS_9allocatorIS6_EEFvvEE18destroy_deallocateEv', symObjAddr: 0x420C, symBinAddr: 0x34EF8, symSize: 0x4 }
  - { offsetInCU: 0x7C460, offset: 0x2A51CF, size: 0x8, addend: 0x0, symName: '__ZNSt3__110__function6__funcIZN8firebase9firestore6remote9Datastore5StartEvE3$_0NS_9allocatorIS6_EEFvvEE18destroy_deallocateEv', symObjAddr: 0x420C, symBinAddr: 0x34EF8, symSize: 0x4 }
  - { offsetInCU: 0x7C488, offset: 0x2A51F7, size: 0x8, addend: 0x0, symName: '__ZNSt3__110__function6__funcIZN8firebase9firestore6remote9Datastore5StartEvE3$_0NS_9allocatorIS6_EEFvvEE18destroy_deallocateEv', symObjAddr: 0x420C, symBinAddr: 0x34EF8, symSize: 0x4 }
  - { offsetInCU: 0x7C506, offset: 0x2A5275, size: 0x8, addend: 0x0, symName: '__ZNSt3__110__function6__funcIZN8firebase9firestore6remote9Datastore5StartEvE3$_0NS_9allocatorIS6_EEFvvEEclEv', symObjAddr: 0x4210, symBinAddr: 0x34EFC, symSize: 0x8 }
  - { offsetInCU: 0x7C595, offset: 0x2A5304, size: 0x8, addend: 0x0, symName: '__ZNKSt3__110__function6__funcIZN8firebase9firestore6remote9Datastore5StartEvE3$_0NS_9allocatorIS6_EEFvvEE6targetERKSt9type_info', symObjAddr: 0x4218, symBinAddr: 0x34F04, symSize: 0x3C }
  - { offsetInCU: 0x7C62B, offset: 0x2A539A, size: 0x8, addend: 0x0, symName: '__ZNKSt3__110__function6__funcIZN8firebase9firestore6remote9Datastore5StartEvE3$_0NS_9allocatorIS6_EEFvvEE11target_typeEv', symObjAddr: 0x4254, symBinAddr: 0x34F40, symSize: 0xC }
  - { offsetInCU: 0x7C680, offset: 0x2A53EF, size: 0x8, addend: 0x0, symName: '__ZNSt3__110__function6__funcIZN8firebase9firestore6remote9Datastore8ShutdownEvE3$_1NS_9allocatorIS6_EEFvvEED1Ev', symObjAddr: 0x42A8, symBinAddr: 0x34F4C, symSize: 0x4 }
  - { offsetInCU: 0x7C6AB, offset: 0x2A541A, size: 0x8, addend: 0x0, symName: '__ZNSt3__110__function6__funcIZN8firebase9firestore6remote9Datastore8ShutdownEvE3$_1NS_9allocatorIS6_EEFvvEED0Ev', symObjAddr: 0x42AC, symBinAddr: 0x34F50, symSize: 0x4 }
  - { offsetInCU: 0x7C75C, offset: 0x2A54CB, size: 0x8, addend: 0x0, symName: '__ZNKSt3__110__function6__funcIZN8firebase9firestore6remote9Datastore8ShutdownEvE3$_1NS_9allocatorIS6_EEFvvEE7__cloneEv', symObjAddr: 0x42B0, symBinAddr: 0x34F54, symSize: 0x24 }
  - { offsetInCU: 0x7C8A3, offset: 0x2A5612, size: 0x8, addend: 0x0, symName: '__ZNKSt3__110__function6__funcIZN8firebase9firestore6remote9Datastore8ShutdownEvE3$_1NS_9allocatorIS6_EEFvvEE7__cloneEPNS0_6__baseIS9_EE', symObjAddr: 0x42D4, symBinAddr: 0x34F78, symSize: 0x10 }
  - { offsetInCU: 0x7C8D8, offset: 0x2A5647, size: 0x8, addend: 0x0, symName: '__ZNKSt3__110__function6__funcIZN8firebase9firestore6remote9Datastore8ShutdownEvE3$_1NS_9allocatorIS6_EEFvvEE7__cloneEPNS0_6__baseIS9_EE', symObjAddr: 0x42D4, symBinAddr: 0x34F78, symSize: 0x10 }
  - { offsetInCU: 0x7C8F4, offset: 0x2A5663, size: 0x8, addend: 0x0, symName: '__ZNKSt3__110__function6__funcIZN8firebase9firestore6remote9Datastore8ShutdownEvE3$_1NS_9allocatorIS6_EEFvvEE7__cloneEPNS0_6__baseIS9_EE', symObjAddr: 0x42D4, symBinAddr: 0x34F78, symSize: 0x10 }
  - { offsetInCU: 0x7C910, offset: 0x2A567F, size: 0x8, addend: 0x0, symName: '__ZNSt3__110__function6__funcIZN8firebase9firestore6remote9Datastore8ShutdownEvE3$_1NS_9allocatorIS6_EEFvvEE7destroyEv', symObjAddr: 0x42E4, symBinAddr: 0x34F88, symSize: 0x4 }
  - { offsetInCU: 0x7C95E, offset: 0x2A56CD, size: 0x8, addend: 0x0, symName: '__ZNSt3__110__function6__funcIZN8firebase9firestore6remote9Datastore8ShutdownEvE3$_1NS_9allocatorIS6_EEFvvEE18destroy_deallocateEv', symObjAddr: 0x42E8, symBinAddr: 0x34F8C, symSize: 0x4 }
  - { offsetInCU: 0x7C992, offset: 0x2A5701, size: 0x8, addend: 0x0, symName: '__ZNSt3__110__function6__funcIZN8firebase9firestore6remote9Datastore8ShutdownEvE3$_1NS_9allocatorIS6_EEFvvEE18destroy_deallocateEv', symObjAddr: 0x42E8, symBinAddr: 0x34F8C, symSize: 0x4 }
  - { offsetInCU: 0x7C9B5, offset: 0x2A5724, size: 0x8, addend: 0x0, symName: '__ZNSt3__110__function6__funcIZN8firebase9firestore6remote9Datastore8ShutdownEvE3$_1NS_9allocatorIS6_EEFvvEE18destroy_deallocateEv', symObjAddr: 0x42E8, symBinAddr: 0x34F8C, symSize: 0x4 }
  - { offsetInCU: 0x7C9E1, offset: 0x2A5750, size: 0x8, addend: 0x0, symName: '__ZNSt3__110__function6__funcIZN8firebase9firestore6remote9Datastore8ShutdownEvE3$_1NS_9allocatorIS6_EEFvvEE18destroy_deallocateEv', symObjAddr: 0x42E8, symBinAddr: 0x34F8C, symSize: 0x4 }
  - { offsetInCU: 0x7CA09, offset: 0x2A5778, size: 0x8, addend: 0x0, symName: '__ZNSt3__110__function6__funcIZN8firebase9firestore6remote9Datastore8ShutdownEvE3$_1NS_9allocatorIS6_EEFvvEE18destroy_deallocateEv', symObjAddr: 0x42E8, symBinAddr: 0x34F8C, symSize: 0x4 }
  - { offsetInCU: 0x7CA35, offset: 0x2A57A4, size: 0x8, addend: 0x0, symName: '__ZNSt3__110__function6__funcIZN8firebase9firestore6remote9Datastore8ShutdownEvE3$_1NS_9allocatorIS6_EEFvvEEclEv', symObjAddr: 0x42EC, symBinAddr: 0x34F90, symSize: 0x4 }
  - { offsetInCU: 0x7CA59, offset: 0x2A57C8, size: 0x8, addend: 0x0, symName: '__ZNKSt3__110__function6__funcIZN8firebase9firestore6remote9Datastore8ShutdownEvE3$_1NS_9allocatorIS6_EEFvvEE6targetERKSt9type_info', symObjAddr: 0x42F0, symBinAddr: 0x34F94, symSize: 0x3C }
  - { offsetInCU: 0x7CAA6, offset: 0x2A5815, size: 0x8, addend: 0x0, symName: '__ZNKSt3__110__function6__funcIZN8firebase9firestore6remote9Datastore8ShutdownEvE3$_1NS_9allocatorIS6_EEFvvEE11target_typeEv', symObjAddr: 0x432C, symBinAddr: 0x34FD0, symSize: 0xC }
  - { offsetInCU: 0x7CD52, offset: 0x2A5AC1, size: 0x8, addend: 0x0, symName: __ZNSt3__120__shared_ptr_emplaceIN8firebase9firestore6remote11WatchStreamENS_9allocatorIS4_EEEC2B8ue170006IJRNS_10shared_ptrINS2_4util10AsyncQueueEEERNS9_INS2_11credentials19CredentialsProviderINSE_9AuthTokenENSE_4UserEEEEERNS9_INSF_INS_12basic_stringIcNS_11char_traitsIcEENS5_IcEEEESP_EEEERKNS3_10SerializerEPNS3_14GrpcConnectionERPNS3_19WatchStreamCallbackEEEES6_DpOT_, symObjAddr: 0x43D0, symBinAddr: 0x35074, symSize: 0x18C }
  - { offsetInCU: 0x7D5A1, offset: 0x2A6310, size: 0x8, addend: 0x0, symName: __ZNSt3__120__shared_ptr_emplaceIN8firebase9firestore6remote11WatchStreamENS_9allocatorIS4_EEED1Ev, symObjAddr: 0x455C, symBinAddr: 0x35200, symSize: 0x14 }
  - { offsetInCU: 0x7D5C3, offset: 0x2A6332, size: 0x8, addend: 0x0, symName: __ZNSt3__120__shared_ptr_emplaceIN8firebase9firestore6remote11WatchStreamENS_9allocatorIS4_EEED1Ev, symObjAddr: 0x455C, symBinAddr: 0x35200, symSize: 0x14 }
  - { offsetInCU: 0x7D5FA, offset: 0x2A6369, size: 0x8, addend: 0x0, symName: __ZNSt3__120__shared_ptr_emplaceIN8firebase9firestore6remote11WatchStreamENS_9allocatorIS4_EEED0Ev, symObjAddr: 0x4570, symBinAddr: 0x35214, symSize: 0x24 }
  - { offsetInCU: 0x7D65F, offset: 0x2A63CE, size: 0x8, addend: 0x0, symName: __ZNSt3__120__shared_ptr_emplaceIN8firebase9firestore6remote11WatchStreamENS_9allocatorIS4_EEE16__on_zero_sharedEv, symObjAddr: 0x4594, symBinAddr: 0x35238, symSize: 0xC }
  - { offsetInCU: 0x7D690, offset: 0x2A63FF, size: 0x8, addend: 0x0, symName: __ZNSt3__120__shared_ptr_emplaceIN8firebase9firestore6remote11WatchStreamENS_9allocatorIS4_EEE21__on_zero_shared_weakEv, symObjAddr: 0x45A0, symBinAddr: 0x35244, symSize: 0x4 }
  - { offsetInCU: 0x7D6C1, offset: 0x2A6430, size: 0x8, addend: 0x0, symName: __ZNSt3__120__shared_ptr_emplaceIN8firebase9firestore6remote11WatchStreamENS_9allocatorIS4_EEE21__on_zero_shared_weakEv, symObjAddr: 0x45A0, symBinAddr: 0x35244, symSize: 0x4 }
  - { offsetInCU: 0x7D6E4, offset: 0x2A6453, size: 0x8, addend: 0x0, symName: __ZNSt3__120__shared_ptr_emplaceIN8firebase9firestore6remote11WatchStreamENS_9allocatorIS4_EEE21__on_zero_shared_weakEv, symObjAddr: 0x45A0, symBinAddr: 0x35244, symSize: 0x4 }
  - { offsetInCU: 0x7D707, offset: 0x2A6476, size: 0x8, addend: 0x0, symName: __ZNSt3__120__shared_ptr_emplaceIN8firebase9firestore6remote11WatchStreamENS_9allocatorIS4_EEE21__on_zero_shared_weakEv, symObjAddr: 0x45A0, symBinAddr: 0x35244, symSize: 0x4 }
  - { offsetInCU: 0x7D735, offset: 0x2A64A4, size: 0x8, addend: 0x0, symName: __ZNSt3__120__shared_ptr_emplaceIN8firebase9firestore6remote11WatchStreamENS_9allocatorIS4_EEE21__on_zero_shared_weakEv, symObjAddr: 0x45A0, symBinAddr: 0x35244, symSize: 0x4 }
  - { offsetInCU: 0x7D75F, offset: 0x2A64CE, size: 0x8, addend: 0x0, symName: __ZNSt3__120__shared_ptr_emplaceIN8firebase9firestore6remote11WatchStreamENS_9allocatorIS4_EEE21__on_zero_shared_weakEv, symObjAddr: 0x45A0, symBinAddr: 0x35244, symSize: 0x4 }
  - { offsetInCU: 0x7DC1F, offset: 0x2A698E, size: 0x8, addend: 0x0, symName: __ZNSt3__120__shared_ptr_emplaceIN8firebase9firestore6remote11WriteStreamENS_9allocatorIS4_EEEC2B8ue170006IJRNS_10shared_ptrINS2_4util10AsyncQueueEEERNS9_INS2_11credentials19CredentialsProviderINSE_9AuthTokenENSE_4UserEEEEERNS9_INSF_INS_12basic_stringIcNS_11char_traitsIcEENS5_IcEEEESP_EEEERKNS3_10SerializerEPNS3_14GrpcConnectionERPNS3_19WriteStreamCallbackEEEES6_DpOT_, symObjAddr: 0x46EC, symBinAddr: 0x35390, symSize: 0x18C }
  - { offsetInCU: 0x7E307, offset: 0x2A7076, size: 0x8, addend: 0x0, symName: __ZNSt3__120__shared_ptr_emplaceIN8firebase9firestore6remote11WriteStreamENS_9allocatorIS4_EEED1Ev, symObjAddr: 0x4878, symBinAddr: 0x3551C, symSize: 0x14 }
  - { offsetInCU: 0x7E329, offset: 0x2A7098, size: 0x8, addend: 0x0, symName: __ZNSt3__120__shared_ptr_emplaceIN8firebase9firestore6remote11WriteStreamENS_9allocatorIS4_EEED1Ev, symObjAddr: 0x4878, symBinAddr: 0x3551C, symSize: 0x14 }
  - { offsetInCU: 0x7E360, offset: 0x2A70CF, size: 0x8, addend: 0x0, symName: __ZNSt3__120__shared_ptr_emplaceIN8firebase9firestore6remote11WriteStreamENS_9allocatorIS4_EEED0Ev, symObjAddr: 0x488C, symBinAddr: 0x35530, symSize: 0x24 }
  - { offsetInCU: 0x7E3C5, offset: 0x2A7134, size: 0x8, addend: 0x0, symName: __ZNSt3__120__shared_ptr_emplaceIN8firebase9firestore6remote11WriteStreamENS_9allocatorIS4_EEE16__on_zero_sharedEv, symObjAddr: 0x48B0, symBinAddr: 0x35554, symSize: 0xC }
  - { offsetInCU: 0x7E3F6, offset: 0x2A7165, size: 0x8, addend: 0x0, symName: __ZNSt3__120__shared_ptr_emplaceIN8firebase9firestore6remote11WriteStreamENS_9allocatorIS4_EEE21__on_zero_shared_weakEv, symObjAddr: 0x48BC, symBinAddr: 0x35560, symSize: 0x4 }
  - { offsetInCU: 0x7E427, offset: 0x2A7196, size: 0x8, addend: 0x0, symName: __ZNSt3__120__shared_ptr_emplaceIN8firebase9firestore6remote11WriteStreamENS_9allocatorIS4_EEE21__on_zero_shared_weakEv, symObjAddr: 0x48BC, symBinAddr: 0x35560, symSize: 0x4 }
  - { offsetInCU: 0x7E44A, offset: 0x2A71B9, size: 0x8, addend: 0x0, symName: __ZNSt3__120__shared_ptr_emplaceIN8firebase9firestore6remote11WriteStreamENS_9allocatorIS4_EEE21__on_zero_shared_weakEv, symObjAddr: 0x48BC, symBinAddr: 0x35560, symSize: 0x4 }
  - { offsetInCU: 0x7E46D, offset: 0x2A71DC, size: 0x8, addend: 0x0, symName: __ZNSt3__120__shared_ptr_emplaceIN8firebase9firestore6remote11WriteStreamENS_9allocatorIS4_EEE21__on_zero_shared_weakEv, symObjAddr: 0x48BC, symBinAddr: 0x35560, symSize: 0x4 }
  - { offsetInCU: 0x7E49B, offset: 0x2A720A, size: 0x8, addend: 0x0, symName: __ZNSt3__120__shared_ptr_emplaceIN8firebase9firestore6remote11WriteStreamENS_9allocatorIS4_EEE21__on_zero_shared_weakEv, symObjAddr: 0x48BC, symBinAddr: 0x35560, symSize: 0x4 }
  - { offsetInCU: 0x7E4C5, offset: 0x2A7234, size: 0x8, addend: 0x0, symName: __ZNSt3__120__shared_ptr_emplaceIN8firebase9firestore6remote11WriteStreamENS_9allocatorIS4_EEE21__on_zero_shared_weakEv, symObjAddr: 0x48BC, symBinAddr: 0x35560, symSize: 0x4 }
  - { offsetInCU: 0x7E820, offset: 0x2A758F, size: 0x8, addend: 0x0, symName: __ZNSt3__16vectorIN8firebase9firestore5model8MutationENS_9allocatorIS4_EEE11__vallocateB8ue170006Em, symObjAddr: 0x4A10, symBinAddr: 0x356B4, symSize: 0x40 }
  - { offsetInCU: 0x7E898, offset: 0x2A7607, size: 0x8, addend: 0x0, symName: __ZNKSt3__16vectorIN8firebase9firestore5model8MutationENS_9allocatorIS4_EEE20__throw_length_errorB8ue170006Ev, symObjAddr: 0x4A50, symBinAddr: 0x356F4, symSize: 0x14 }
  - { offsetInCU: 0x7E8BE, offset: 0x2A762D, size: 0x8, addend: 0x0, symName: __ZNKSt3__16vectorIN8firebase9firestore5model8MutationENS_9allocatorIS4_EEE20__throw_length_errorB8ue170006Ev, symObjAddr: 0x4A50, symBinAddr: 0x356F4, symSize: 0x14 }
  - { offsetInCU: 0x7E8E5, offset: 0x2A7654, size: 0x8, addend: 0x0, symName: __ZNSt3__119__allocate_at_leastB8ue170006INS_9allocatorIN8firebase9firestore5model8MutationEEEEENS_19__allocation_resultINS_16allocator_traitsIT_E7pointerEEERS9_m, symObjAddr: 0x4A64, symBinAddr: 0x35708, symSize: 0x34 }
  - { offsetInCU: 0x7E910, offset: 0x2A767F, size: 0x8, addend: 0x0, symName: __ZNSt3__110shared_ptrIN8firebase9firestore5model8Mutation3RepEED2B8ue170006Ev, symObjAddr: 0x4A98, symBinAddr: 0x3573C, symSize: 0x58 }
  - { offsetInCU: 0x7EB72, offset: 0x2A78E1, size: 0x8, addend: 0x0, symName: '__ZNSt3__110__function6__funcIZN8firebase9firestore6remote9Datastore15CommitMutationsERKNS_6vectorINS3_5model8MutationENS_9allocatorIS8_EEEEONS_8functionIFvRKNS3_4util6StatusEEEEE3$_2NS9_ISM_EEFvRKNSF_8StatusOrINS3_11credentials9AuthTokenEEERKNS_12basic_stringIcNS_11char_traitsIcEENS9_IcEEEEEED1Ev', symObjAddr: 0x4BC4, symBinAddr: 0x35868, symSize: 0x74 }
  - { offsetInCU: 0x7EDC0, offset: 0x2A7B2F, size: 0x8, addend: 0x0, symName: '__ZNSt3__110__function6__funcIZN8firebase9firestore6remote9Datastore15CommitMutationsERKNS_6vectorINS3_5model8MutationENS_9allocatorIS8_EEEEONS_8functionIFvRKNS3_4util6StatusEEEEE3$_2NS9_ISM_EEFvRKNSF_8StatusOrINS3_11credentials9AuthTokenEEERKNS_12basic_stringIcNS_11char_traitsIcEENS9_IcEEEEEED0Ev', symObjAddr: 0x4C38, symBinAddr: 0x358DC, symSize: 0x78 }
  - { offsetInCU: 0x7F205, offset: 0x2A7F74, size: 0x8, addend: 0x0, symName: '__ZNKSt3__110__function6__funcIZN8firebase9firestore6remote9Datastore15CommitMutationsERKNS_6vectorINS3_5model8MutationENS_9allocatorIS8_EEEEONS_8functionIFvRKNS3_4util6StatusEEEEE3$_2NS9_ISM_EEFvRKNSF_8StatusOrINS3_11credentials9AuthTokenEEERKNS_12basic_stringIcNS_11char_traitsIcEENS9_IcEEEEEE7__cloneEv', symObjAddr: 0x4CB0, symBinAddr: 0x35954, symSize: 0x54 }
  - { offsetInCU: 0x7F4A5, offset: 0x2A8214, size: 0x8, addend: 0x0, symName: '__ZNSt3__122__compressed_pair_elemIZN8firebase9firestore6remote9Datastore15CommitMutationsERKNS_6vectorINS2_5model8MutationENS_9allocatorIS7_EEEEONS_8functionIFvRKNS2_4util6StatusEEEEE3$_2Li0ELb0EEC2B8ue170006IJRKSL_EJLm0EEEENS_21piecewise_construct_tENS_5tupleIJDpT_EEENS_15__tuple_indicesIJXspT0_EEEE', symObjAddr: 0x4E44, symBinAddr: 0x35AE8, symSize: 0x84 }
  - { offsetInCU: 0x7F841, offset: 0x2A85B0, size: 0x8, addend: 0x0, symName: '__ZNKSt3__110__function6__funcIZN8firebase9firestore6remote9Datastore15CommitMutationsERKNS_6vectorINS3_5model8MutationENS_9allocatorIS8_EEEEONS_8functionIFvRKNS3_4util6StatusEEEEE3$_2NS9_ISM_EEFvRKNSF_8StatusOrINS3_11credentials9AuthTokenEEERKNS_12basic_stringIcNS_11char_traitsIcEENS9_IcEEEEEE7__cloneEPNS0_6__baseIS11_EE', symObjAddr: 0x4D04, symBinAddr: 0x359A8, symSize: 0x1C }
  - { offsetInCU: 0x7F989, offset: 0x2A86F8, size: 0x8, addend: 0x0, symName: '__ZNSt3__110__function6__funcIZN8firebase9firestore6remote9Datastore15CommitMutationsERKNS_6vectorINS3_5model8MutationENS_9allocatorIS8_EEEEONS_8functionIFvRKNS3_4util6StatusEEEEE3$_2NS9_ISM_EEFvRKNSF_8StatusOrINS3_11credentials9AuthTokenEEERKNS_12basic_stringIcNS_11char_traitsIcEENS9_IcEEEEEE7destroyEv', symObjAddr: 0x4D20, symBinAddr: 0x359C4, symSize: 0x8 }
  - { offsetInCU: 0x7F9BE, offset: 0x2A872D, size: 0x8, addend: 0x0, symName: '__ZNSt3__110__function12__alloc_funcIZN8firebase9firestore6remote9Datastore15CommitMutationsERKNS_6vectorINS3_5model8MutationENS_9allocatorIS8_EEEEONS_8functionIFvRKNS3_4util6StatusEEEEE3$_2NS9_ISM_EEFvRKNSF_8StatusOrINS3_11credentials9AuthTokenEEERKNS_12basic_stringIcNS_11char_traitsIcEENS9_IcEEEEEE7destroyB8ue170006Ev', symObjAddr: 0x4EC8, symBinAddr: 0x35B6C, symSize: 0x64 }
  - { offsetInCU: 0x7FB8F, offset: 0x2A88FE, size: 0x8, addend: 0x0, symName: '__ZNSt3__110__function6__funcIZN8firebase9firestore6remote9Datastore15CommitMutationsERKNS_6vectorINS3_5model8MutationENS_9allocatorIS8_EEEEONS_8functionIFvRKNS3_4util6StatusEEEEE3$_2NS9_ISM_EEFvRKNSF_8StatusOrINS3_11credentials9AuthTokenEEERKNS_12basic_stringIcNS_11char_traitsIcEENS9_IcEEEEEE18destroy_deallocateEv', symObjAddr: 0x4D28, symBinAddr: 0x359CC, symSize: 0x28 }
  - { offsetInCU: 0x7FD97, offset: 0x2A8B06, size: 0x8, addend: 0x0, symName: '__ZNSt3__110__function6__funcIZN8firebase9firestore6remote9Datastore15CommitMutationsERKNS_6vectorINS3_5model8MutationENS_9allocatorIS8_EEEEONS_8functionIFvRKNS3_4util6StatusEEEEE3$_2NS9_ISM_EEFvRKNSF_8StatusOrINS3_11credentials9AuthTokenEEERKNS_12basic_stringIcNS_11char_traitsIcEENS9_IcEEEEEEclEST_S10_', symObjAddr: 0x4D50, symBinAddr: 0x359F4, symSize: 0x48 }
  - { offsetInCU: 0x7FF95, offset: 0x2A8D04, size: 0x8, addend: 0x0, symName: '__ZNKSt3__110__function6__funcIZN8firebase9firestore6remote9Datastore15CommitMutationsERKNS_6vectorINS3_5model8MutationENS_9allocatorIS8_EEEEONS_8functionIFvRKNS3_4util6StatusEEEEE3$_2NS9_ISM_EEFvRKNSF_8StatusOrINS3_11credentials9AuthTokenEEERKNS_12basic_stringIcNS_11char_traitsIcEENS9_IcEEEEEE6targetERKSt9type_info', symObjAddr: 0x4D98, symBinAddr: 0x35A3C, symSize: 0x3C }
  - { offsetInCU: 0x7FFA1, offset: 0x2A8D10, size: 0x8, addend: 0x0, symName: '__ZNKSt3__110__function6__funcIZN8firebase9firestore6remote9Datastore15CommitMutationsERKNS_6vectorINS3_5model8MutationENS_9allocatorIS8_EEEEONS_8functionIFvRKNS3_4util6StatusEEEEE3$_2NS9_ISM_EEFvRKNSF_8StatusOrINS3_11credentials9AuthTokenEEERKNS_12basic_stringIcNS_11char_traitsIcEENS9_IcEEEEEE6targetERKSt9type_info', symObjAddr: 0x4D98, symBinAddr: 0x35A3C, symSize: 0x3C }
  - { offsetInCU: 0x7FFEE, offset: 0x2A8D5D, size: 0x8, addend: 0x0, symName: '__ZNKSt3__110__function6__funcIZN8firebase9firestore6remote9Datastore15CommitMutationsERKNS_6vectorINS3_5model8MutationENS_9allocatorIS8_EEEEONS_8functionIFvRKNS3_4util6StatusEEEEE3$_2NS9_ISM_EEFvRKNSF_8StatusOrINS3_11credentials9AuthTokenEEERKNS_12basic_stringIcNS_11char_traitsIcEENS9_IcEEEEEE11target_typeEv', symObjAddr: 0x4DD4, symBinAddr: 0x35A78, symSize: 0xC }
  - { offsetInCU: 0x80114, offset: 0x2A8E83, size: 0x8, addend: 0x0, symName: __ZNSt3__16vectorIN4grpc5SliceENS_9allocatorIS2_EEE22__base_destruct_at_endB8ue170006EPS2_, symObjAddr: 0x4FF4, symBinAddr: 0x35C4C, symSize: 0xA0 }
  - { offsetInCU: 0x8034F, offset: 0x2A90BE, size: 0x8, addend: 0x0, symName: '__ZNSt3__110__function6__funcIZN8firebase9firestore6remote9Datastore30CommitMutationsWithCredentialsERKNS3_11credentials9AuthTokenERKNS_12basic_stringIcNS_11char_traitsIcEENS_9allocatorIcEEEERKNS_6vectorINS3_5model8MutationENSD_ISK_EEEEONS_8functionIFvRKNS3_4util6StatusEEEEE3$_3NSD_ISX_EEFvRKNSQ_8StatusOrIN4grpc10ByteBufferEEEEED1Ev', symObjAddr: 0x513C, symBinAddr: 0x35D94, symSize: 0x5C }
  - { offsetInCU: 0x80504, offset: 0x2A9273, size: 0x8, addend: 0x0, symName: '__ZNSt3__110__function6__funcIZN8firebase9firestore6remote9Datastore30CommitMutationsWithCredentialsERKNS3_11credentials9AuthTokenERKNS_12basic_stringIcNS_11char_traitsIcEENS_9allocatorIcEEEERKNS_6vectorINS3_5model8MutationENSD_ISK_EEEEONS_8functionIFvRKNS3_4util6StatusEEEEE3$_3NSD_ISX_EEFvRKNSQ_8StatusOrIN4grpc10ByteBufferEEEEED0Ev', symObjAddr: 0x5198, symBinAddr: 0x35DF0, symSize: 0x5C }
  - { offsetInCU: 0x809B2, offset: 0x2A9721, size: 0x8, addend: 0x0, symName: '__ZNKSt3__110__function6__funcIZN8firebase9firestore6remote9Datastore30CommitMutationsWithCredentialsERKNS3_11credentials9AuthTokenERKNS_12basic_stringIcNS_11char_traitsIcEENS_9allocatorIcEEEERKNS_6vectorINS3_5model8MutationENSD_ISK_EEEEONS_8functionIFvRKNS3_4util6StatusEEEEE3$_3NSD_ISX_EEFvRKNSQ_8StatusOrIN4grpc10ByteBufferEEEEE7__cloneEv', symObjAddr: 0x51F4, symBinAddr: 0x35E4C, symSize: 0x60 }
  - { offsetInCU: 0x80EA6, offset: 0x2A9C15, size: 0x8, addend: 0x0, symName: '__ZNKSt3__110__function6__funcIZN8firebase9firestore6remote9Datastore30CommitMutationsWithCredentialsERKNS3_11credentials9AuthTokenERKNS_12basic_stringIcNS_11char_traitsIcEENS_9allocatorIcEEEERKNS_6vectorINS3_5model8MutationENSD_ISK_EEEEONS_8functionIFvRKNS3_4util6StatusEEEEE3$_3NSD_ISX_EEFvRKNSQ_8StatusOrIN4grpc10ByteBufferEEEEE7__cloneEPNS0_6__baseIS15_EE', symObjAddr: 0x5254, symBinAddr: 0x35EAC, symSize: 0x24 }
  - { offsetInCU: 0x80EE0, offset: 0x2A9C4F, size: 0x8, addend: 0x0, symName: '__ZNKSt3__110__function6__funcIZN8firebase9firestore6remote9Datastore30CommitMutationsWithCredentialsERKNS3_11credentials9AuthTokenERKNS_12basic_stringIcNS_11char_traitsIcEENS_9allocatorIcEEEERKNS_6vectorINS3_5model8MutationENSD_ISK_EEEEONS_8functionIFvRKNS3_4util6StatusEEEEE3$_3NSD_ISX_EEFvRKNSQ_8StatusOrIN4grpc10ByteBufferEEEEE7__cloneEPNS0_6__baseIS15_EE', symObjAddr: 0x5254, symBinAddr: 0x35EAC, symSize: 0x24 }
  - { offsetInCU: 0x80F10, offset: 0x2A9C7F, size: 0x8, addend: 0x0, symName: '__ZNKSt3__110__function6__funcIZN8firebase9firestore6remote9Datastore30CommitMutationsWithCredentialsERKNS3_11credentials9AuthTokenERKNS_12basic_stringIcNS_11char_traitsIcEENS_9allocatorIcEEEERKNS_6vectorINS3_5model8MutationENSD_ISK_EEEEONS_8functionIFvRKNS3_4util6StatusEEEEE3$_3NSD_ISX_EEFvRKNSQ_8StatusOrIN4grpc10ByteBufferEEEEE7__cloneEPNS0_6__baseIS15_EE', symObjAddr: 0x5254, symBinAddr: 0x35EAC, symSize: 0x24 }
  - { offsetInCU: 0x81102, offset: 0x2A9E71, size: 0x8, addend: 0x0, symName: '__ZNSt3__110__function6__funcIZN8firebase9firestore6remote9Datastore30CommitMutationsWithCredentialsERKNS3_11credentials9AuthTokenERKNS_12basic_stringIcNS_11char_traitsIcEENS_9allocatorIcEEEERKNS_6vectorINS3_5model8MutationENSD_ISK_EEEEONS_8functionIFvRKNS3_4util6StatusEEEEE3$_3NSD_ISX_EEFvRKNSQ_8StatusOrIN4grpc10ByteBufferEEEEE7destroyEv', symObjAddr: 0x5278, symBinAddr: 0x35ED0, symSize: 0x34 }
  - { offsetInCU: 0x8112C, offset: 0x2A9E9B, size: 0x8, addend: 0x0, symName: '__ZNSt3__110__function6__funcIZN8firebase9firestore6remote9Datastore30CommitMutationsWithCredentialsERKNS3_11credentials9AuthTokenERKNS_12basic_stringIcNS_11char_traitsIcEENS_9allocatorIcEEEERKNS_6vectorINS3_5model8MutationENSD_ISK_EEEEONS_8functionIFvRKNS3_4util6StatusEEEEE3$_3NSD_ISX_EEFvRKNSQ_8StatusOrIN4grpc10ByteBufferEEEEE7destroyEv', symObjAddr: 0x5278, symBinAddr: 0x35ED0, symSize: 0x34 }
  - { offsetInCU: 0x8114A, offset: 0x2A9EB9, size: 0x8, addend: 0x0, symName: '__ZNSt3__110__function6__funcIZN8firebase9firestore6remote9Datastore30CommitMutationsWithCredentialsERKNS3_11credentials9AuthTokenERKNS_12basic_stringIcNS_11char_traitsIcEENS_9allocatorIcEEEERKNS_6vectorINS3_5model8MutationENSD_ISK_EEEEONS_8functionIFvRKNS3_4util6StatusEEEEE3$_3NSD_ISX_EEFvRKNSQ_8StatusOrIN4grpc10ByteBufferEEEEE7destroyEv', symObjAddr: 0x5278, symBinAddr: 0x35ED0, symSize: 0x34 }
  - { offsetInCU: 0x81167, offset: 0x2A9ED6, size: 0x8, addend: 0x0, symName: '__ZNSt3__110__function6__funcIZN8firebase9firestore6remote9Datastore30CommitMutationsWithCredentialsERKNS3_11credentials9AuthTokenERKNS_12basic_stringIcNS_11char_traitsIcEENS_9allocatorIcEEEERKNS_6vectorINS3_5model8MutationENSD_ISK_EEEEONS_8functionIFvRKNS3_4util6StatusEEEEE3$_3NSD_ISX_EEFvRKNSQ_8StatusOrIN4grpc10ByteBufferEEEEE7destroyEv', symObjAddr: 0x5278, symBinAddr: 0x35ED0, symSize: 0x34 }
  - { offsetInCU: 0x81184, offset: 0x2A9EF3, size: 0x8, addend: 0x0, symName: '__ZNSt3__110__function6__funcIZN8firebase9firestore6remote9Datastore30CommitMutationsWithCredentialsERKNS3_11credentials9AuthTokenERKNS_12basic_stringIcNS_11char_traitsIcEENS_9allocatorIcEEEERKNS_6vectorINS3_5model8MutationENSD_ISK_EEEEONS_8functionIFvRKNS3_4util6StatusEEEEE3$_3NSD_ISX_EEFvRKNSQ_8StatusOrIN4grpc10ByteBufferEEEEE7destroyEv', symObjAddr: 0x5278, symBinAddr: 0x35ED0, symSize: 0x34 }
  - { offsetInCU: 0x811A1, offset: 0x2A9F10, size: 0x8, addend: 0x0, symName: '__ZNSt3__110__function6__funcIZN8firebase9firestore6remote9Datastore30CommitMutationsWithCredentialsERKNS3_11credentials9AuthTokenERKNS_12basic_stringIcNS_11char_traitsIcEENS_9allocatorIcEEEERKNS_6vectorINS3_5model8MutationENSD_ISK_EEEEONS_8functionIFvRKNS3_4util6StatusEEEEE3$_3NSD_ISX_EEFvRKNSQ_8StatusOrIN4grpc10ByteBufferEEEEE7destroyEv', symObjAddr: 0x5278, symBinAddr: 0x35ED0, symSize: 0x34 }
  - { offsetInCU: 0x811BE, offset: 0x2A9F2D, size: 0x8, addend: 0x0, symName: '__ZNSt3__110__function6__funcIZN8firebase9firestore6remote9Datastore30CommitMutationsWithCredentialsERKNS3_11credentials9AuthTokenERKNS_12basic_stringIcNS_11char_traitsIcEENS_9allocatorIcEEEERKNS_6vectorINS3_5model8MutationENSD_ISK_EEEEONS_8functionIFvRKNS3_4util6StatusEEEEE3$_3NSD_ISX_EEFvRKNSQ_8StatusOrIN4grpc10ByteBufferEEEEE7destroyEv', symObjAddr: 0x5278, symBinAddr: 0x35ED0, symSize: 0x34 }
  - { offsetInCU: 0x81266, offset: 0x2A9FD5, size: 0x8, addend: 0x0, symName: '__ZNSt3__110__function6__funcIZN8firebase9firestore6remote9Datastore30CommitMutationsWithCredentialsERKNS3_11credentials9AuthTokenERKNS_12basic_stringIcNS_11char_traitsIcEENS_9allocatorIcEEEERKNS_6vectorINS3_5model8MutationENSD_ISK_EEEEONS_8functionIFvRKNS3_4util6StatusEEEEE3$_3NSD_ISX_EEFvRKNSQ_8StatusOrIN4grpc10ByteBufferEEEEE18destroy_deallocateEv', symObjAddr: 0x52AC, symBinAddr: 0x35F04, symSize: 0x50 }
  - { offsetInCU: 0x81524, offset: 0x2AA293, size: 0x8, addend: 0x0, symName: '__ZNSt3__110__function6__funcIZN8firebase9firestore6remote9Datastore30CommitMutationsWithCredentialsERKNS3_11credentials9AuthTokenERKNS_12basic_stringIcNS_11char_traitsIcEENS_9allocatorIcEEEERKNS_6vectorINS3_5model8MutationENSD_ISK_EEEEONS_8functionIFvRKNS3_4util6StatusEEEEE3$_3NSD_ISX_EEFvRKNSQ_8StatusOrIN4grpc10ByteBufferEEEEEclES14_', symObjAddr: 0x52FC, symBinAddr: 0x35F54, symSize: 0x9C }
  - { offsetInCU: 0x8176E, offset: 0x2AA4DD, size: 0x8, addend: 0x0, symName: '__ZNKSt3__110__function6__funcIZN8firebase9firestore6remote9Datastore30CommitMutationsWithCredentialsERKNS3_11credentials9AuthTokenERKNS_12basic_stringIcNS_11char_traitsIcEENS_9allocatorIcEEEERKNS_6vectorINS3_5model8MutationENSD_ISK_EEEEONS_8functionIFvRKNS3_4util6StatusEEEEE3$_3NSD_ISX_EEFvRKNSQ_8StatusOrIN4grpc10ByteBufferEEEEE6targetERKSt9type_info', symObjAddr: 0x5398, symBinAddr: 0x35FF0, symSize: 0x3C }
  - { offsetInCU: 0x8177A, offset: 0x2AA4E9, size: 0x8, addend: 0x0, symName: '__ZNKSt3__110__function6__funcIZN8firebase9firestore6remote9Datastore30CommitMutationsWithCredentialsERKNS3_11credentials9AuthTokenERKNS_12basic_stringIcNS_11char_traitsIcEENS_9allocatorIcEEEERKNS_6vectorINS3_5model8MutationENSD_ISK_EEEEONS_8functionIFvRKNS3_4util6StatusEEEEE3$_3NSD_ISX_EEFvRKNSQ_8StatusOrIN4grpc10ByteBufferEEEEE6targetERKSt9type_info', symObjAddr: 0x5398, symBinAddr: 0x35FF0, symSize: 0x3C }
  - { offsetInCU: 0x817C7, offset: 0x2AA536, size: 0x8, addend: 0x0, symName: '__ZNKSt3__110__function6__funcIZN8firebase9firestore6remote9Datastore30CommitMutationsWithCredentialsERKNS3_11credentials9AuthTokenERKNS_12basic_stringIcNS_11char_traitsIcEENS_9allocatorIcEEEERKNS_6vectorINS3_5model8MutationENSD_ISK_EEEEONS_8functionIFvRKNS3_4util6StatusEEEEE3$_3NSD_ISX_EEFvRKNSQ_8StatusOrIN4grpc10ByteBufferEEEEE11target_typeEv', symObjAddr: 0x53D4, symBinAddr: 0x3602C, symSize: 0xC }
  - { offsetInCU: 0x81A76, offset: 0x2AA7E5, size: 0x8, addend: 0x0, symName: __ZNSt3__16__treeINS_12__value_typeIN4grpc10string_refES3_EENS_19__map_value_compareIS3_S4_NS_4lessIS3_EELb1EEENS_9allocatorIS4_EEE7destroyEPNS_11__tree_nodeIS4_PvEE, symObjAddr: 0x56C4, symBinAddr: 0x362B8, symSize: 0x40 }
  - { offsetInCU: 0x81EF8, offset: 0x2AAC67, size: 0x8, addend: 0x0, symName: __ZNSt3__16vectorIN8firebase9firestore5model11DocumentKeyENS_9allocatorIS4_EEE11__vallocateB8ue170006Em, symObjAddr: 0x57A4, symBinAddr: 0x36398, symSize: 0x40 }
  - { offsetInCU: 0x81F70, offset: 0x2AACDF, size: 0x8, addend: 0x0, symName: __ZNKSt3__16vectorIN8firebase9firestore5model11DocumentKeyENS_9allocatorIS4_EEE20__throw_length_errorB8ue170006Ev, symObjAddr: 0x57E4, symBinAddr: 0x363D8, symSize: 0x14 }
  - { offsetInCU: 0x81F96, offset: 0x2AAD05, size: 0x8, addend: 0x0, symName: __ZNKSt3__16vectorIN8firebase9firestore5model11DocumentKeyENS_9allocatorIS4_EEE20__throw_length_errorB8ue170006Ev, symObjAddr: 0x57E4, symBinAddr: 0x363D8, symSize: 0x14 }
  - { offsetInCU: 0x81FBD, offset: 0x2AAD2C, size: 0x8, addend: 0x0, symName: __ZNSt3__119__allocate_at_leastB8ue170006INS_9allocatorIN8firebase9firestore5model11DocumentKeyEEEEENS_19__allocation_resultINS_16allocator_traitsIT_E7pointerEEERS9_m, symObjAddr: 0x57F8, symBinAddr: 0x363EC, symSize: 0x34 }
  - { offsetInCU: 0x82210, offset: 0x2AAF7F, size: 0x8, addend: 0x0, symName: '__ZNSt3__110__function6__funcIZN8firebase9firestore6remote9Datastore15LookupDocumentsERKNS_6vectorINS3_5model11DocumentKeyENS_9allocatorIS8_EEEEONS_8functionIFvRKNS3_4util8StatusOrINS6_INS7_8DocumentENS9_ISH_EEEEEEEEEE3$_4NS9_ISQ_EEFvRKNSG_INS3_11credentials9AuthTokenEEERKNS_12basic_stringIcNS_11char_traitsIcEENS9_IcEEEEEED1Ev', symObjAddr: 0x5958, symBinAddr: 0x364F4, symSize: 0x74 }
  - { offsetInCU: 0x8245E, offset: 0x2AB1CD, size: 0x8, addend: 0x0, symName: '__ZNSt3__110__function6__funcIZN8firebase9firestore6remote9Datastore15LookupDocumentsERKNS_6vectorINS3_5model11DocumentKeyENS_9allocatorIS8_EEEEONS_8functionIFvRKNS3_4util8StatusOrINS6_INS7_8DocumentENS9_ISH_EEEEEEEEEE3$_4NS9_ISQ_EEFvRKNSG_INS3_11credentials9AuthTokenEEERKNS_12basic_stringIcNS_11char_traitsIcEENS9_IcEEEEEED0Ev', symObjAddr: 0x59CC, symBinAddr: 0x36568, symSize: 0x78 }
  - { offsetInCU: 0x828A3, offset: 0x2AB612, size: 0x8, addend: 0x0, symName: '__ZNKSt3__110__function6__funcIZN8firebase9firestore6remote9Datastore15LookupDocumentsERKNS_6vectorINS3_5model11DocumentKeyENS_9allocatorIS8_EEEEONS_8functionIFvRKNS3_4util8StatusOrINS6_INS7_8DocumentENS9_ISH_EEEEEEEEEE3$_4NS9_ISQ_EEFvRKNSG_INS3_11credentials9AuthTokenEEERKNS_12basic_stringIcNS_11char_traitsIcEENS9_IcEEEEEE7__cloneEv', symObjAddr: 0x5A44, symBinAddr: 0x365E0, symSize: 0x54 }
  - { offsetInCU: 0x82B43, offset: 0x2AB8B2, size: 0x8, addend: 0x0, symName: '__ZNSt3__122__compressed_pair_elemIZN8firebase9firestore6remote9Datastore15LookupDocumentsERKNS_6vectorINS2_5model11DocumentKeyENS_9allocatorIS7_EEEEONS_8functionIFvRKNS2_4util8StatusOrINS5_INS6_8DocumentENS8_ISG_EEEEEEEEEE3$_4Li0ELb0EEC2B8ue170006IJRKSP_EJLm0EEEENS_21piecewise_construct_tENS_5tupleIJDpT_EEENS_15__tuple_indicesIJXspT0_EEEE', symObjAddr: 0x5C20, symBinAddr: 0x367BC, symSize: 0x84 }
  - { offsetInCU: 0x82EDF, offset: 0x2ABC4E, size: 0x8, addend: 0x0, symName: '__ZNKSt3__110__function6__funcIZN8firebase9firestore6remote9Datastore15LookupDocumentsERKNS_6vectorINS3_5model11DocumentKeyENS_9allocatorIS8_EEEEONS_8functionIFvRKNS3_4util8StatusOrINS6_INS7_8DocumentENS9_ISH_EEEEEEEEEE3$_4NS9_ISQ_EEFvRKNSG_INS3_11credentials9AuthTokenEEERKNS_12basic_stringIcNS_11char_traitsIcEENS9_IcEEEEEE7__cloneEPNS0_6__baseIS14_EE', symObjAddr: 0x5A98, symBinAddr: 0x36634, symSize: 0x1C }
  - { offsetInCU: 0x83027, offset: 0x2ABD96, size: 0x8, addend: 0x0, symName: '__ZNSt3__110__function6__funcIZN8firebase9firestore6remote9Datastore15LookupDocumentsERKNS_6vectorINS3_5model11DocumentKeyENS_9allocatorIS8_EEEEONS_8functionIFvRKNS3_4util8StatusOrINS6_INS7_8DocumentENS9_ISH_EEEEEEEEEE3$_4NS9_ISQ_EEFvRKNSG_INS3_11credentials9AuthTokenEEERKNS_12basic_stringIcNS_11char_traitsIcEENS9_IcEEEEEE7destroyEv', symObjAddr: 0x5AB4, symBinAddr: 0x36650, symSize: 0x8 }
  - { offsetInCU: 0x8305C, offset: 0x2ABDCB, size: 0x8, addend: 0x0, symName: '__ZNSt3__110__function12__alloc_funcIZN8firebase9firestore6remote9Datastore15LookupDocumentsERKNS_6vectorINS3_5model11DocumentKeyENS_9allocatorIS8_EEEEONS_8functionIFvRKNS3_4util8StatusOrINS6_INS7_8DocumentENS9_ISH_EEEEEEEEEE3$_4NS9_ISQ_EEFvRKNSG_INS3_11credentials9AuthTokenEEERKNS_12basic_stringIcNS_11char_traitsIcEENS9_IcEEEEEE7destroyB8ue170006Ev', symObjAddr: 0x5CA4, symBinAddr: 0x36840, symSize: 0x64 }
  - { offsetInCU: 0x8322D, offset: 0x2ABF9C, size: 0x8, addend: 0x0, symName: '__ZNSt3__110__function6__funcIZN8firebase9firestore6remote9Datastore15LookupDocumentsERKNS_6vectorINS3_5model11DocumentKeyENS_9allocatorIS8_EEEEONS_8functionIFvRKNS3_4util8StatusOrINS6_INS7_8DocumentENS9_ISH_EEEEEEEEEE3$_4NS9_ISQ_EEFvRKNSG_INS3_11credentials9AuthTokenEEERKNS_12basic_stringIcNS_11char_traitsIcEENS9_IcEEEEEE18destroy_deallocateEv', symObjAddr: 0x5ABC, symBinAddr: 0x36658, symSize: 0x28 }
  - { offsetInCU: 0x8348F, offset: 0x2AC1FE, size: 0x8, addend: 0x0, symName: '__ZNSt3__110__function6__funcIZN8firebase9firestore6remote9Datastore15LookupDocumentsERKNS_6vectorINS3_5model11DocumentKeyENS_9allocatorIS8_EEEEONS_8functionIFvRKNS3_4util8StatusOrINS6_INS7_8DocumentENS9_ISH_EEEEEEEEEE3$_4NS9_ISQ_EEFvRKNSG_INS3_11credentials9AuthTokenEEERKNS_12basic_stringIcNS_11char_traitsIcEENS9_IcEEEEEEclESW_S13_', symObjAddr: 0x5AE4, symBinAddr: 0x36680, symSize: 0x90 }
  - { offsetInCU: 0x8375D, offset: 0x2AC4CC, size: 0x8, addend: 0x0, symName: __ZN8firebase9firestore4util17internal_statusor12StatusOrDataINSt3__16vectorINS0_5model8DocumentENS4_9allocatorIS7_EEEEEC2ERKNS1_6StatusE, symObjAddr: 0x5D08, symBinAddr: 0x368A4, symSize: 0x60 }
  - { offsetInCU: 0x839D2, offset: 0x2AC741, size: 0x8, addend: 0x0, symName: __ZN8firebase9firestore4util17internal_statusor12StatusOrDataINSt3__16vectorINS0_5model8DocumentENS4_9allocatorIS7_EEEEED2Ev, symObjAddr: 0x5E4C, symBinAddr: 0x36904, symSize: 0x48 }
  - { offsetInCU: 0x83B27, offset: 0x2AC896, size: 0x8, addend: 0x0, symName: '__ZNKSt3__110__function6__funcIZN8firebase9firestore6remote9Datastore15LookupDocumentsERKNS_6vectorINS3_5model11DocumentKeyENS_9allocatorIS8_EEEEONS_8functionIFvRKNS3_4util8StatusOrINS6_INS7_8DocumentENS9_ISH_EEEEEEEEEE3$_4NS9_ISQ_EEFvRKNSG_INS3_11credentials9AuthTokenEEERKNS_12basic_stringIcNS_11char_traitsIcEENS9_IcEEEEEE6targetERKSt9type_info', symObjAddr: 0x5B74, symBinAddr: 0x36710, symSize: 0x3C }
  - { offsetInCU: 0x83B74, offset: 0x2AC8E3, size: 0x8, addend: 0x0, symName: '__ZNKSt3__110__function6__funcIZN8firebase9firestore6remote9Datastore15LookupDocumentsERKNS_6vectorINS3_5model11DocumentKeyENS_9allocatorIS8_EEEEONS_8functionIFvRKNS3_4util8StatusOrINS6_INS7_8DocumentENS9_ISH_EEEEEEEEEE3$_4NS9_ISQ_EEFvRKNSG_INS3_11credentials9AuthTokenEEERKNS_12basic_stringIcNS_11char_traitsIcEENS9_IcEEEEEE11target_typeEv', symObjAddr: 0x5BB0, symBinAddr: 0x3674C, symSize: 0xC }
  - { offsetInCU: 0x842ED, offset: 0x2AD05C, size: 0x8, addend: 0x0, symName: __ZNSt3__16vectorIN8firebase9firestore5model8DocumentENS_9allocatorIS4_EEE16__destroy_vectorclB8ue170006Ev, symObjAddr: 0x5E94, symBinAddr: 0x3694C, symSize: 0x40 }
  - { offsetInCU: 0x8445A, offset: 0x2AD1C9, size: 0x8, addend: 0x0, symName: __ZNSt3__16vectorIN8firebase9firestore5model8DocumentENS_9allocatorIS4_EEE22__base_destruct_at_endB8ue170006EPS4_, symObjAddr: 0x5ED4, symBinAddr: 0x3698C, symSize: 0x58 }
  - { offsetInCU: 0x847E8, offset: 0x2AD557, size: 0x8, addend: 0x0, symName: '__ZNSt3__110__function6__funcIZN8firebase9firestore6remote9Datastore30LookupDocumentsWithCredentialsERKNS3_11credentials9AuthTokenERKNS_12basic_stringIcNS_11char_traitsIcEENS_9allocatorIcEEEERKNS_6vectorINS3_5model11DocumentKeyENSD_ISK_EEEEONS_8functionIFvRKNS3_4util8StatusOrINSI_INSJ_8DocumentENSD_ISS_EEEEEEEEEE3$_5NSD_IS11_EEFvNSI_IN4grpc10ByteBufferENSD_IS14_EEEEEED1Ev', symObjAddr: 0x5FC0, symBinAddr: 0x36A20, symSize: 0x5C }
  - { offsetInCU: 0x8499D, offset: 0x2AD70C, size: 0x8, addend: 0x0, symName: '__ZNSt3__110__function6__funcIZN8firebase9firestore6remote9Datastore30LookupDocumentsWithCredentialsERKNS3_11credentials9AuthTokenERKNS_12basic_stringIcNS_11char_traitsIcEENS_9allocatorIcEEEERKNS_6vectorINS3_5model11DocumentKeyENSD_ISK_EEEEONS_8functionIFvRKNS3_4util8StatusOrINSI_INSJ_8DocumentENSD_ISS_EEEEEEEEEE3$_5NSD_IS11_EEFvNSI_IN4grpc10ByteBufferENSD_IS14_EEEEEED0Ev', symObjAddr: 0x601C, symBinAddr: 0x36A7C, symSize: 0x5C }
  - { offsetInCU: 0x84E0B, offset: 0x2ADB7A, size: 0x8, addend: 0x0, symName: '__ZNKSt3__110__function6__funcIZN8firebase9firestore6remote9Datastore30LookupDocumentsWithCredentialsERKNS3_11credentials9AuthTokenERKNS_12basic_stringIcNS_11char_traitsIcEENS_9allocatorIcEEEERKNS_6vectorINS3_5model11DocumentKeyENSD_ISK_EEEEONS_8functionIFvRKNS3_4util8StatusOrINSI_INSJ_8DocumentENSD_ISS_EEEEEEEEEE3$_5NSD_IS11_EEFvNSI_IN4grpc10ByteBufferENSD_IS14_EEEEEE7__cloneEv', symObjAddr: 0x6078, symBinAddr: 0x36AD8, symSize: 0x58 }
  - { offsetInCU: 0x852C8, offset: 0x2AE037, size: 0x8, addend: 0x0, symName: '__ZNKSt3__110__function6__funcIZN8firebase9firestore6remote9Datastore30LookupDocumentsWithCredentialsERKNS3_11credentials9AuthTokenERKNS_12basic_stringIcNS_11char_traitsIcEENS_9allocatorIcEEEERKNS_6vectorINS3_5model11DocumentKeyENSD_ISK_EEEEONS_8functionIFvRKNS3_4util8StatusOrINSI_INSJ_8DocumentENSD_ISS_EEEEEEEEEE3$_5NSD_IS11_EEFvNSI_IN4grpc10ByteBufferENSD_IS14_EEEEEE7__cloneEPNS0_6__baseIS17_EE', symObjAddr: 0x60D0, symBinAddr: 0x36B30, symSize: 0x20 }
  - { offsetInCU: 0x85302, offset: 0x2AE071, size: 0x8, addend: 0x0, symName: '__ZNKSt3__110__function6__funcIZN8firebase9firestore6remote9Datastore30LookupDocumentsWithCredentialsERKNS3_11credentials9AuthTokenERKNS_12basic_stringIcNS_11char_traitsIcEENS_9allocatorIcEEEERKNS_6vectorINS3_5model11DocumentKeyENSD_ISK_EEEEONS_8functionIFvRKNS3_4util8StatusOrINSI_INSJ_8DocumentENSD_ISS_EEEEEEEEEE3$_5NSD_IS11_EEFvNSI_IN4grpc10ByteBufferENSD_IS14_EEEEEE7__cloneEPNS0_6__baseIS17_EE', symObjAddr: 0x60D0, symBinAddr: 0x36B30, symSize: 0x20 }
  - { offsetInCU: 0x85332, offset: 0x2AE0A1, size: 0x8, addend: 0x0, symName: '__ZNKSt3__110__function6__funcIZN8firebase9firestore6remote9Datastore30LookupDocumentsWithCredentialsERKNS3_11credentials9AuthTokenERKNS_12basic_stringIcNS_11char_traitsIcEENS_9allocatorIcEEEERKNS_6vectorINS3_5model11DocumentKeyENSD_ISK_EEEEONS_8functionIFvRKNS3_4util8StatusOrINSI_INSJ_8DocumentENSD_ISS_EEEEEEEEEE3$_5NSD_IS11_EEFvNSI_IN4grpc10ByteBufferENSD_IS14_EEEEEE7__cloneEPNS0_6__baseIS17_EE', symObjAddr: 0x60D0, symBinAddr: 0x36B30, symSize: 0x20 }
  - { offsetInCU: 0x854ED, offset: 0x2AE25C, size: 0x8, addend: 0x0, symName: '__ZNSt3__110__function6__funcIZN8firebase9firestore6remote9Datastore30LookupDocumentsWithCredentialsERKNS3_11credentials9AuthTokenERKNS_12basic_stringIcNS_11char_traitsIcEENS_9allocatorIcEEEERKNS_6vectorINS3_5model11DocumentKeyENSD_ISK_EEEEONS_8functionIFvRKNS3_4util8StatusOrINSI_INSJ_8DocumentENSD_ISS_EEEEEEEEEE3$_5NSD_IS11_EEFvNSI_IN4grpc10ByteBufferENSD_IS14_EEEEEE7destroyEv', symObjAddr: 0x60F0, symBinAddr: 0x36B50, symSize: 0x34 }
  - { offsetInCU: 0x85517, offset: 0x2AE286, size: 0x8, addend: 0x0, symName: '__ZNSt3__110__function6__funcIZN8firebase9firestore6remote9Datastore30LookupDocumentsWithCredentialsERKNS3_11credentials9AuthTokenERKNS_12basic_stringIcNS_11char_traitsIcEENS_9allocatorIcEEEERKNS_6vectorINS3_5model11DocumentKeyENSD_ISK_EEEEONS_8functionIFvRKNS3_4util8StatusOrINSI_INSJ_8DocumentENSD_ISS_EEEEEEEEEE3$_5NSD_IS11_EEFvNSI_IN4grpc10ByteBufferENSD_IS14_EEEEEE7destroyEv', symObjAddr: 0x60F0, symBinAddr: 0x36B50, symSize: 0x34 }
  - { offsetInCU: 0x85535, offset: 0x2AE2A4, size: 0x8, addend: 0x0, symName: '__ZNSt3__110__function6__funcIZN8firebase9firestore6remote9Datastore30LookupDocumentsWithCredentialsERKNS3_11credentials9AuthTokenERKNS_12basic_stringIcNS_11char_traitsIcEENS_9allocatorIcEEEERKNS_6vectorINS3_5model11DocumentKeyENSD_ISK_EEEEONS_8functionIFvRKNS3_4util8StatusOrINSI_INSJ_8DocumentENSD_ISS_EEEEEEEEEE3$_5NSD_IS11_EEFvNSI_IN4grpc10ByteBufferENSD_IS14_EEEEEE7destroyEv', symObjAddr: 0x60F0, symBinAddr: 0x36B50, symSize: 0x34 }
  - { offsetInCU: 0x85552, offset: 0x2AE2C1, size: 0x8, addend: 0x0, symName: '__ZNSt3__110__function6__funcIZN8firebase9firestore6remote9Datastore30LookupDocumentsWithCredentialsERKNS3_11credentials9AuthTokenERKNS_12basic_stringIcNS_11char_traitsIcEENS_9allocatorIcEEEERKNS_6vectorINS3_5model11DocumentKeyENSD_ISK_EEEEONS_8functionIFvRKNS3_4util8StatusOrINSI_INSJ_8DocumentENSD_ISS_EEEEEEEEEE3$_5NSD_IS11_EEFvNSI_IN4grpc10ByteBufferENSD_IS14_EEEEEE7destroyEv', symObjAddr: 0x60F0, symBinAddr: 0x36B50, symSize: 0x34 }
  - { offsetInCU: 0x8556F, offset: 0x2AE2DE, size: 0x8, addend: 0x0, symName: '__ZNSt3__110__function6__funcIZN8firebase9firestore6remote9Datastore30LookupDocumentsWithCredentialsERKNS3_11credentials9AuthTokenERKNS_12basic_stringIcNS_11char_traitsIcEENS_9allocatorIcEEEERKNS_6vectorINS3_5model11DocumentKeyENSD_ISK_EEEEONS_8functionIFvRKNS3_4util8StatusOrINSI_INSJ_8DocumentENSD_ISS_EEEEEEEEEE3$_5NSD_IS11_EEFvNSI_IN4grpc10ByteBufferENSD_IS14_EEEEEE7destroyEv', symObjAddr: 0x60F0, symBinAddr: 0x36B50, symSize: 0x34 }
  - { offsetInCU: 0x8558C, offset: 0x2AE2FB, size: 0x8, addend: 0x0, symName: '__ZNSt3__110__function6__funcIZN8firebase9firestore6remote9Datastore30LookupDocumentsWithCredentialsERKNS3_11credentials9AuthTokenERKNS_12basic_stringIcNS_11char_traitsIcEENS_9allocatorIcEEEERKNS_6vectorINS3_5model11DocumentKeyENSD_ISK_EEEEONS_8functionIFvRKNS3_4util8StatusOrINSI_INSJ_8DocumentENSD_ISS_EEEEEEEEEE3$_5NSD_IS11_EEFvNSI_IN4grpc10ByteBufferENSD_IS14_EEEEEE7destroyEv', symObjAddr: 0x60F0, symBinAddr: 0x36B50, symSize: 0x34 }
  - { offsetInCU: 0x855A9, offset: 0x2AE318, size: 0x8, addend: 0x0, symName: '__ZNSt3__110__function6__funcIZN8firebase9firestore6remote9Datastore30LookupDocumentsWithCredentialsERKNS3_11credentials9AuthTokenERKNS_12basic_stringIcNS_11char_traitsIcEENS_9allocatorIcEEEERKNS_6vectorINS3_5model11DocumentKeyENSD_ISK_EEEEONS_8functionIFvRKNS3_4util8StatusOrINSI_INSJ_8DocumentENSD_ISS_EEEEEEEEEE3$_5NSD_IS11_EEFvNSI_IN4grpc10ByteBufferENSD_IS14_EEEEEE7destroyEv', symObjAddr: 0x60F0, symBinAddr: 0x36B50, symSize: 0x34 }
  - { offsetInCU: 0x85651, offset: 0x2AE3C0, size: 0x8, addend: 0x0, symName: '__ZNSt3__110__function6__funcIZN8firebase9firestore6remote9Datastore30LookupDocumentsWithCredentialsERKNS3_11credentials9AuthTokenERKNS_12basic_stringIcNS_11char_traitsIcEENS_9allocatorIcEEEERKNS_6vectorINS3_5model11DocumentKeyENSD_ISK_EEEEONS_8functionIFvRKNS3_4util8StatusOrINSI_INSJ_8DocumentENSD_ISS_EEEEEEEEEE3$_5NSD_IS11_EEFvNSI_IN4grpc10ByteBufferENSD_IS14_EEEEEE18destroy_deallocateEv', symObjAddr: 0x6124, symBinAddr: 0x36B84, symSize: 0x50 }
  - { offsetInCU: 0x858EB, offset: 0x2AE65A, size: 0x8, addend: 0x0, symName: '__ZNSt3__110__function6__funcIZN8firebase9firestore6remote9Datastore30LookupDocumentsWithCredentialsERKNS3_11credentials9AuthTokenERKNS_12basic_stringIcNS_11char_traitsIcEENS_9allocatorIcEEEERKNS_6vectorINS3_5model11DocumentKeyENSD_ISK_EEEEONS_8functionIFvRKNS3_4util8StatusOrINSI_INSJ_8DocumentENSD_ISS_EEEEEEEEEE3$_5NSD_IS11_EEFvNSI_IN4grpc10ByteBufferENSD_IS14_EEEEEEclEOS16_', symObjAddr: 0x6174, symBinAddr: 0x36BD4, symSize: 0x70 }
  - { offsetInCU: 0x85AA0, offset: 0x2AE80F, size: 0x8, addend: 0x0, symName: '__ZNKSt3__110__function6__funcIZN8firebase9firestore6remote9Datastore30LookupDocumentsWithCredentialsERKNS3_11credentials9AuthTokenERKNS_12basic_stringIcNS_11char_traitsIcEENS_9allocatorIcEEEERKNS_6vectorINS3_5model11DocumentKeyENSD_ISK_EEEEONS_8functionIFvRKNS3_4util8StatusOrINSI_INSJ_8DocumentENSD_ISS_EEEEEEEEEE3$_5NSD_IS11_EEFvNSI_IN4grpc10ByteBufferENSD_IS14_EEEEEE6targetERKSt9type_info', symObjAddr: 0x61E4, symBinAddr: 0x36C44, symSize: 0x3C }
  - { offsetInCU: 0x85AED, offset: 0x2AE85C, size: 0x8, addend: 0x0, symName: '__ZNKSt3__110__function6__funcIZN8firebase9firestore6remote9Datastore30LookupDocumentsWithCredentialsERKNS3_11credentials9AuthTokenERKNS_12basic_stringIcNS_11char_traitsIcEENS_9allocatorIcEEEERKNS_6vectorINS3_5model11DocumentKeyENSD_ISK_EEEEONS_8functionIFvRKNS3_4util8StatusOrINSI_INSJ_8DocumentENSD_ISS_EEEEEEEEEE3$_5NSD_IS11_EEFvNSI_IN4grpc10ByteBufferENSD_IS14_EEEEEE11target_typeEv', symObjAddr: 0x6220, symBinAddr: 0x36C80, symSize: 0xC }
  - { offsetInCU: 0x85BB4, offset: 0x2AE923, size: 0x8, addend: 0x0, symName: '__ZNSt3__110__function6__funcIZN8firebase9firestore6remote9Datastore30LookupDocumentsWithCredentialsERKNS3_11credentials9AuthTokenERKNS_12basic_stringIcNS_11char_traitsIcEENS_9allocatorIcEEEERKNS_6vectorINS3_5model11DocumentKeyENSD_ISK_EEEEONS_8functionIFvRKNS3_4util8StatusOrINSI_INSJ_8DocumentENSD_ISS_EEEEEEEEEE3$_6NSD_IS11_EEFvRKNSQ_6StatusEbEED1Ev', symObjAddr: 0x622C, symBinAddr: 0x36C8C, symSize: 0x5C }
  - { offsetInCU: 0x85D69, offset: 0x2AEAD8, size: 0x8, addend: 0x0, symName: '__ZNSt3__110__function6__funcIZN8firebase9firestore6remote9Datastore30LookupDocumentsWithCredentialsERKNS3_11credentials9AuthTokenERKNS_12basic_stringIcNS_11char_traitsIcEENS_9allocatorIcEEEERKNS_6vectorINS3_5model11DocumentKeyENSD_ISK_EEEEONS_8functionIFvRKNS3_4util8StatusOrINSI_INSJ_8DocumentENSD_ISS_EEEEEEEEEE3$_6NSD_IS11_EEFvRKNSQ_6StatusEbEED0Ev', symObjAddr: 0x6288, symBinAddr: 0x36CE8, symSize: 0x5C }
  - { offsetInCU: 0x861D7, offset: 0x2AEF46, size: 0x8, addend: 0x0, symName: '__ZNKSt3__110__function6__funcIZN8firebase9firestore6remote9Datastore30LookupDocumentsWithCredentialsERKNS3_11credentials9AuthTokenERKNS_12basic_stringIcNS_11char_traitsIcEENS_9allocatorIcEEEERKNS_6vectorINS3_5model11DocumentKeyENSD_ISK_EEEEONS_8functionIFvRKNS3_4util8StatusOrINSI_INSJ_8DocumentENSD_ISS_EEEEEEEEEE3$_6NSD_IS11_EEFvRKNSQ_6StatusEbEE7__cloneEv', symObjAddr: 0x62E4, symBinAddr: 0x36D44, symSize: 0x60 }
  - { offsetInCU: 0x86694, offset: 0x2AF403, size: 0x8, addend: 0x0, symName: '__ZNKSt3__110__function6__funcIZN8firebase9firestore6remote9Datastore30LookupDocumentsWithCredentialsERKNS3_11credentials9AuthTokenERKNS_12basic_stringIcNS_11char_traitsIcEENS_9allocatorIcEEEERKNS_6vectorINS3_5model11DocumentKeyENSD_ISK_EEEEONS_8functionIFvRKNS3_4util8StatusOrINSI_INSJ_8DocumentENSD_ISS_EEEEEEEEEE3$_6NSD_IS11_EEFvRKNSQ_6StatusEbEE7__cloneEPNS0_6__baseIS16_EE', symObjAddr: 0x6344, symBinAddr: 0x36DA4, symSize: 0x44 }
  - { offsetInCU: 0x868BC, offset: 0x2AF62B, size: 0x8, addend: 0x0, symName: '__ZNSt3__110__function6__funcIZN8firebase9firestore6remote9Datastore30LookupDocumentsWithCredentialsERKNS3_11credentials9AuthTokenERKNS_12basic_stringIcNS_11char_traitsIcEENS_9allocatorIcEEEERKNS_6vectorINS3_5model11DocumentKeyENSD_ISK_EEEEONS_8functionIFvRKNS3_4util8StatusOrINSI_INSJ_8DocumentENSD_ISS_EEEEEEEEEE3$_6NSD_IS11_EEFvRKNSQ_6StatusEbEE7destroyEv', symObjAddr: 0x6388, symBinAddr: 0x36DE8, symSize: 0x34 }
  - { offsetInCU: 0x868E6, offset: 0x2AF655, size: 0x8, addend: 0x0, symName: '__ZNSt3__110__function6__funcIZN8firebase9firestore6remote9Datastore30LookupDocumentsWithCredentialsERKNS3_11credentials9AuthTokenERKNS_12basic_stringIcNS_11char_traitsIcEENS_9allocatorIcEEEERKNS_6vectorINS3_5model11DocumentKeyENSD_ISK_EEEEONS_8functionIFvRKNS3_4util8StatusOrINSI_INSJ_8DocumentENSD_ISS_EEEEEEEEEE3$_6NSD_IS11_EEFvRKNSQ_6StatusEbEE7destroyEv', symObjAddr: 0x6388, symBinAddr: 0x36DE8, symSize: 0x34 }
  - { offsetInCU: 0x86904, offset: 0x2AF673, size: 0x8, addend: 0x0, symName: '__ZNSt3__110__function6__funcIZN8firebase9firestore6remote9Datastore30LookupDocumentsWithCredentialsERKNS3_11credentials9AuthTokenERKNS_12basic_stringIcNS_11char_traitsIcEENS_9allocatorIcEEEERKNS_6vectorINS3_5model11DocumentKeyENSD_ISK_EEEEONS_8functionIFvRKNS3_4util8StatusOrINSI_INSJ_8DocumentENSD_ISS_EEEEEEEEEE3$_6NSD_IS11_EEFvRKNSQ_6StatusEbEE7destroyEv', symObjAddr: 0x6388, symBinAddr: 0x36DE8, symSize: 0x34 }
  - { offsetInCU: 0x86921, offset: 0x2AF690, size: 0x8, addend: 0x0, symName: '__ZNSt3__110__function6__funcIZN8firebase9firestore6remote9Datastore30LookupDocumentsWithCredentialsERKNS3_11credentials9AuthTokenERKNS_12basic_stringIcNS_11char_traitsIcEENS_9allocatorIcEEEERKNS_6vectorINS3_5model11DocumentKeyENSD_ISK_EEEEONS_8functionIFvRKNS3_4util8StatusOrINSI_INSJ_8DocumentENSD_ISS_EEEEEEEEEE3$_6NSD_IS11_EEFvRKNSQ_6StatusEbEE7destroyEv', symObjAddr: 0x6388, symBinAddr: 0x36DE8, symSize: 0x34 }
  - { offsetInCU: 0x8693E, offset: 0x2AF6AD, size: 0x8, addend: 0x0, symName: '__ZNSt3__110__function6__funcIZN8firebase9firestore6remote9Datastore30LookupDocumentsWithCredentialsERKNS3_11credentials9AuthTokenERKNS_12basic_stringIcNS_11char_traitsIcEENS_9allocatorIcEEEERKNS_6vectorINS3_5model11DocumentKeyENSD_ISK_EEEEONS_8functionIFvRKNS3_4util8StatusOrINSI_INSJ_8DocumentENSD_ISS_EEEEEEEEEE3$_6NSD_IS11_EEFvRKNSQ_6StatusEbEE7destroyEv', symObjAddr: 0x6388, symBinAddr: 0x36DE8, symSize: 0x34 }
  - { offsetInCU: 0x8695B, offset: 0x2AF6CA, size: 0x8, addend: 0x0, symName: '__ZNSt3__110__function6__funcIZN8firebase9firestore6remote9Datastore30LookupDocumentsWithCredentialsERKNS3_11credentials9AuthTokenERKNS_12basic_stringIcNS_11char_traitsIcEENS_9allocatorIcEEEERKNS_6vectorINS3_5model11DocumentKeyENSD_ISK_EEEEONS_8functionIFvRKNS3_4util8StatusOrINSI_INSJ_8DocumentENSD_ISS_EEEEEEEEEE3$_6NSD_IS11_EEFvRKNSQ_6StatusEbEE7destroyEv', symObjAddr: 0x6388, symBinAddr: 0x36DE8, symSize: 0x34 }
  - { offsetInCU: 0x86978, offset: 0x2AF6E7, size: 0x8, addend: 0x0, symName: '__ZNSt3__110__function6__funcIZN8firebase9firestore6remote9Datastore30LookupDocumentsWithCredentialsERKNS3_11credentials9AuthTokenERKNS_12basic_stringIcNS_11char_traitsIcEENS_9allocatorIcEEEERKNS_6vectorINS3_5model11DocumentKeyENSD_ISK_EEEEONS_8functionIFvRKNS3_4util8StatusOrINSI_INSJ_8DocumentENSD_ISS_EEEEEEEEEE3$_6NSD_IS11_EEFvRKNSQ_6StatusEbEE7destroyEv', symObjAddr: 0x6388, symBinAddr: 0x36DE8, symSize: 0x34 }
  - { offsetInCU: 0x86A20, offset: 0x2AF78F, size: 0x8, addend: 0x0, symName: '__ZNSt3__110__function6__funcIZN8firebase9firestore6remote9Datastore30LookupDocumentsWithCredentialsERKNS3_11credentials9AuthTokenERKNS_12basic_stringIcNS_11char_traitsIcEENS_9allocatorIcEEEERKNS_6vectorINS3_5model11DocumentKeyENSD_ISK_EEEEONS_8functionIFvRKNS3_4util8StatusOrINSI_INSJ_8DocumentENSD_ISS_EEEEEEEEEE3$_6NSD_IS11_EEFvRKNSQ_6StatusEbEE18destroy_deallocateEv', symObjAddr: 0x63BC, symBinAddr: 0x36E1C, symSize: 0x50 }
  - { offsetInCU: 0x86CE3, offset: 0x2AFA52, size: 0x8, addend: 0x0, symName: '__ZNSt3__110__function6__funcIZN8firebase9firestore6remote9Datastore30LookupDocumentsWithCredentialsERKNS3_11credentials9AuthTokenERKNS_12basic_stringIcNS_11char_traitsIcEENS_9allocatorIcEEEERKNS_6vectorINS3_5model11DocumentKeyENSD_ISK_EEEEONS_8functionIFvRKNS3_4util8StatusOrINSI_INSJ_8DocumentENSD_ISS_EEEEEEEEEE3$_6NSD_IS11_EEFvRKNSQ_6StatusEbEEclES15_Ob', symObjAddr: 0x640C, symBinAddr: 0x36E6C, symSize: 0xE8 }
  - { offsetInCU: 0x8707B, offset: 0x2AFDEA, size: 0x8, addend: 0x0, symName: '__ZNKSt3__110__function6__funcIZN8firebase9firestore6remote9Datastore30LookupDocumentsWithCredentialsERKNS3_11credentials9AuthTokenERKNS_12basic_stringIcNS_11char_traitsIcEENS_9allocatorIcEEEERKNS_6vectorINS3_5model11DocumentKeyENSD_ISK_EEEEONS_8functionIFvRKNS3_4util8StatusOrINSI_INSJ_8DocumentENSD_ISS_EEEEEEEEEE3$_6NSD_IS11_EEFvRKNSQ_6StatusEbEE6targetERKSt9type_info', symObjAddr: 0x64F4, symBinAddr: 0x36F54, symSize: 0x3C }
  - { offsetInCU: 0x870C8, offset: 0x2AFE37, size: 0x8, addend: 0x0, symName: '__ZNKSt3__110__function6__funcIZN8firebase9firestore6remote9Datastore30LookupDocumentsWithCredentialsERKNS3_11credentials9AuthTokenERKNS_12basic_stringIcNS_11char_traitsIcEENS_9allocatorIcEEEERKNS_6vectorINS3_5model11DocumentKeyENSD_ISK_EEEEONS_8functionIFvRKNS3_4util8StatusOrINSI_INSJ_8DocumentENSD_ISS_EEEEEEEEEE3$_6NSD_IS11_EEFvRKNSQ_6StatusEbEE11target_typeEv', symObjAddr: 0x6530, symBinAddr: 0x36F90, symSize: 0xC }
  - { offsetInCU: 0x872A7, offset: 0x2B0016, size: 0x8, addend: 0x0, symName: __ZNSt3__16vectorIN8firebase9firestore5model14AggregateFieldENS_9allocatorIS4_EEE11__vallocateB8ue170006Em, symObjAddr: 0x65C0, symBinAddr: 0x37020, symSize: 0x54 }
  - { offsetInCU: 0x8731F, offset: 0x2B008E, size: 0x8, addend: 0x0, symName: __ZNKSt3__16vectorIN8firebase9firestore5model14AggregateFieldENS_9allocatorIS4_EEE20__throw_length_errorB8ue170006Ev, symObjAddr: 0x6614, symBinAddr: 0x37074, symSize: 0x14 }
  - { offsetInCU: 0x87331, offset: 0x2B00A0, size: 0x8, addend: 0x0, symName: __ZNKSt3__16vectorIN8firebase9firestore5model14AggregateFieldENS_9allocatorIS4_EEE20__throw_length_errorB8ue170006Ev, symObjAddr: 0x6614, symBinAddr: 0x37074, symSize: 0x14 }
  - { offsetInCU: 0x87358, offset: 0x2B00C7, size: 0x8, addend: 0x0, symName: __ZNSt3__119__allocate_at_leastB8ue170006INS_9allocatorIN8firebase9firestore5model14AggregateFieldEEEEENS_19__allocation_resultINS_16allocator_traitsIT_E7pointerEEERS9_m, symObjAddr: 0x6628, symBinAddr: 0x37088, symSize: 0x48 }
  - { offsetInCU: 0x87447, offset: 0x2B01B6, size: 0x8, addend: 0x0, symName: __ZNSt3__19allocatorIN8firebase9firestore5model14AggregateFieldEE9constructB8ue170006IS4_JRS4_EEEvPT_DpOT0_, symObjAddr: 0x6718, symBinAddr: 0x37178, symSize: 0xA4 }
  - { offsetInCU: 0x877C0, offset: 0x2B052F, size: 0x8, addend: 0x0, symName: __ZNSt3__128__exception_guard_exceptionsINS_29_AllocatorDestroyRangeReverseINS_9allocatorIN8firebase9firestore5model14AggregateFieldEEEPS6_EEED2B8ue170006Ev, symObjAddr: 0x67BC, symBinAddr: 0x3721C, symSize: 0x34 }
  - { offsetInCU: 0x878BE, offset: 0x2B062D, size: 0x8, addend: 0x0, symName: __ZNKSt3__129_AllocatorDestroyRangeReverseINS_9allocatorIN8firebase9firestore5model14AggregateFieldEEEPS5_EclB8ue170006Ev, symObjAddr: 0x67F0, symBinAddr: 0x37250, symSize: 0x50 }
  - { offsetInCU: 0x87D17, offset: 0x2B0A86, size: 0x8, addend: 0x0, symName: '__ZNSt3__110__function6__funcIZN8firebase9firestore6remote9Datastore17RunAggregateQueryERKNS3_4core5QueryERKNS_6vectorINS3_5model14AggregateFieldENS_9allocatorISC_EEEEONS_8functionIFvRKNS3_4util8StatusOrINSB_11ObjectValueEEEEEEE3$_7NSD_ISS_EEFvRKNSK_INS3_11credentials9AuthTokenEEERKNS_12basic_stringIcNS_11char_traitsIcEENSD_IcEEEEEED1Ev', symObjAddr: 0x696C, symBinAddr: 0x37304, symSize: 0x7C }
  - { offsetInCU: 0x87F99, offset: 0x2B0D08, size: 0x8, addend: 0x0, symName: '__ZNSt3__110__function6__funcIZN8firebase9firestore6remote9Datastore17RunAggregateQueryERKNS3_4core5QueryERKNS_6vectorINS3_5model14AggregateFieldENS_9allocatorISC_EEEEONS_8functionIFvRKNS3_4util8StatusOrINSB_11ObjectValueEEEEEEE3$_7NSD_ISS_EEFvRKNSK_INS3_11credentials9AuthTokenEEERKNS_12basic_stringIcNS_11char_traitsIcEENSD_IcEEEEEED0Ev', symObjAddr: 0x69E8, symBinAddr: 0x37380, symSize: 0x80 }
  - { offsetInCU: 0x88412, offset: 0x2B1181, size: 0x8, addend: 0x0, symName: '__ZNKSt3__110__function6__funcIZN8firebase9firestore6remote9Datastore17RunAggregateQueryERKNS3_4core5QueryERKNS_6vectorINS3_5model14AggregateFieldENS_9allocatorISC_EEEEONS_8functionIFvRKNS3_4util8StatusOrINSB_11ObjectValueEEEEEEE3$_7NSD_ISS_EEFvRKNSK_INS3_11credentials9AuthTokenEEERKNS_12basic_stringIcNS_11char_traitsIcEENSD_IcEEEEEE7__cloneEv', symObjAddr: 0x6A68, symBinAddr: 0x37400, symSize: 0x54 }
  - { offsetInCU: 0x886B4, offset: 0x2B1423, size: 0x8, addend: 0x0, symName: '__ZNSt3__122__compressed_pair_elemIZN8firebase9firestore6remote9Datastore17RunAggregateQueryERKNS2_4core5QueryERKNS_6vectorINS2_5model14AggregateFieldENS_9allocatorISB_EEEEONS_8functionIFvRKNS2_4util8StatusOrINSA_11ObjectValueEEEEEEE3$_7Li0ELb0EEC2B8ue170006IJRKSR_EJLm0EEEENS_21piecewise_construct_tENS_5tupleIJDpT_EEENS_15__tuple_indicesIJXspT0_EEEE', symObjAddr: 0x6C48, symBinAddr: 0x375E0, symSize: 0xB0 }
  - { offsetInCU: 0x88AC3, offset: 0x2B1832, size: 0x8, addend: 0x0, symName: '__ZNKSt3__110__function6__funcIZN8firebase9firestore6remote9Datastore17RunAggregateQueryERKNS3_4core5QueryERKNS_6vectorINS3_5model14AggregateFieldENS_9allocatorISC_EEEEONS_8functionIFvRKNS3_4util8StatusOrINSB_11ObjectValueEEEEEEE3$_7NSD_ISS_EEFvRKNSK_INS3_11credentials9AuthTokenEEERKNS_12basic_stringIcNS_11char_traitsIcEENSD_IcEEEEEE7__cloneEPNS0_6__baseIS16_EE', symObjAddr: 0x6ABC, symBinAddr: 0x37454, symSize: 0x1C }
  - { offsetInCU: 0x88C0B, offset: 0x2B197A, size: 0x8, addend: 0x0, symName: '__ZNSt3__110__function6__funcIZN8firebase9firestore6remote9Datastore17RunAggregateQueryERKNS3_4core5QueryERKNS_6vectorINS3_5model14AggregateFieldENS_9allocatorISC_EEEEONS_8functionIFvRKNS3_4util8StatusOrINSB_11ObjectValueEEEEEEE3$_7NSD_ISS_EEFvRKNSK_INS3_11credentials9AuthTokenEEERKNS_12basic_stringIcNS_11char_traitsIcEENSD_IcEEEEEE7destroyEv', symObjAddr: 0x6AD8, symBinAddr: 0x37470, symSize: 0x8 }
  - { offsetInCU: 0x88C40, offset: 0x2B19AF, size: 0x8, addend: 0x0, symName: '__ZNSt3__110__function12__alloc_funcIZN8firebase9firestore6remote9Datastore17RunAggregateQueryERKNS3_4core5QueryERKNS_6vectorINS3_5model14AggregateFieldENS_9allocatorISC_EEEEONS_8functionIFvRKNS3_4util8StatusOrINSB_11ObjectValueEEEEEEE3$_7NSD_ISS_EEFvRKNSK_INS3_11credentials9AuthTokenEEERKNS_12basic_stringIcNS_11char_traitsIcEENSD_IcEEEEEE7destroyB8ue170006Ev', symObjAddr: 0x6CF8, symBinAddr: 0x37690, symSize: 0x6C }
  - { offsetInCU: 0x88E45, offset: 0x2B1BB4, size: 0x8, addend: 0x0, symName: '__ZNSt3__110__function6__funcIZN8firebase9firestore6remote9Datastore17RunAggregateQueryERKNS3_4core5QueryERKNS_6vectorINS3_5model14AggregateFieldENS_9allocatorISC_EEEEONS_8functionIFvRKNS3_4util8StatusOrINSB_11ObjectValueEEEEEEE3$_7NSD_ISS_EEFvRKNSK_INS3_11credentials9AuthTokenEEERKNS_12basic_stringIcNS_11char_traitsIcEENSD_IcEEEEEE18destroy_deallocateEv', symObjAddr: 0x6AE0, symBinAddr: 0x37478, symSize: 0x28 }
  - { offsetInCU: 0x890AB, offset: 0x2B1E1A, size: 0x8, addend: 0x0, symName: '__ZNSt3__110__function6__funcIZN8firebase9firestore6remote9Datastore17RunAggregateQueryERKNS3_4core5QueryERKNS_6vectorINS3_5model14AggregateFieldENS_9allocatorISC_EEEEONS_8functionIFvRKNS3_4util8StatusOrINSB_11ObjectValueEEEEEEE3$_7NSD_ISS_EEFvRKNSK_INS3_11credentials9AuthTokenEEERKNS_12basic_stringIcNS_11char_traitsIcEENSD_IcEEEEEEclESY_S15_', symObjAddr: 0x6B08, symBinAddr: 0x374A0, symSize: 0x94 }
  - { offsetInCU: 0x89394, offset: 0x2B2103, size: 0x8, addend: 0x0, symName: __ZN8firebase9firestore4util17internal_statusor12StatusOrDataINS0_5model11ObjectValueEEC2ERKNS1_6StatusE, symObjAddr: 0x6D64, symBinAddr: 0x376FC, symSize: 0x60 }
  - { offsetInCU: 0x89609, offset: 0x2B2378, size: 0x8, addend: 0x0, symName: __ZN8firebase9firestore4util17internal_statusor12StatusOrDataINS0_5model11ObjectValueEED2Ev, symObjAddr: 0x6DC4, symBinAddr: 0x3775C, symSize: 0x38 }
  - { offsetInCU: 0x8972D, offset: 0x2B249C, size: 0x8, addend: 0x0, symName: '__ZNKSt3__110__function6__funcIZN8firebase9firestore6remote9Datastore17RunAggregateQueryERKNS3_4core5QueryERKNS_6vectorINS3_5model14AggregateFieldENS_9allocatorISC_EEEEONS_8functionIFvRKNS3_4util8StatusOrINSB_11ObjectValueEEEEEEE3$_7NSD_ISS_EEFvRKNSK_INS3_11credentials9AuthTokenEEERKNS_12basic_stringIcNS_11char_traitsIcEENSD_IcEEEEEE6targetERKSt9type_info', symObjAddr: 0x6B9C, symBinAddr: 0x37534, symSize: 0x3C }
  - { offsetInCU: 0x8977A, offset: 0x2B24E9, size: 0x8, addend: 0x0, symName: '__ZNKSt3__110__function6__funcIZN8firebase9firestore6remote9Datastore17RunAggregateQueryERKNS3_4core5QueryERKNS_6vectorINS3_5model14AggregateFieldENS_9allocatorISC_EEEEONS_8functionIFvRKNS3_4util8StatusOrINSB_11ObjectValueEEEEEEE3$_7NSD_ISS_EEFvRKNSK_INS3_11credentials9AuthTokenEEERKNS_12basic_stringIcNS_11char_traitsIcEENSD_IcEEEEEE11target_typeEv', symObjAddr: 0x6BD8, symBinAddr: 0x37570, symSize: 0xC }
  - { offsetInCU: 0x89966, offset: 0x2B26D5, size: 0x8, addend: 0x0, symName: '__ZNSt3__110__function6__funcIZN8firebase9firestore6remote9Datastore32RunAggregateQueryWithCredentialsERKNS3_11credentials9AuthTokenERKNS_12basic_stringIcNS_11char_traitsIcEENS_9allocatorIcEEEERKNS3_4core5QueryERKNS_6vectorINS3_5model14AggregateFieldENSD_ISO_EEEEONS_8functionIFvRKNS3_4util8StatusOrINSN_11ObjectValueEEEEEEE3$_8NSD_IS13_EEFvRKNSV_IN4grpc10ByteBufferEEEEED1Ev', symObjAddr: 0x6E74, symBinAddr: 0x377D0, symSize: 0x64 }
  - { offsetInCU: 0x89B4A, offset: 0x2B28B9, size: 0x8, addend: 0x0, symName: '__ZNSt3__110__function6__funcIZN8firebase9firestore6remote9Datastore32RunAggregateQueryWithCredentialsERKNS3_11credentials9AuthTokenERKNS_12basic_stringIcNS_11char_traitsIcEENS_9allocatorIcEEEERKNS3_4core5QueryERKNS_6vectorINS3_5model14AggregateFieldENSD_ISO_EEEEONS_8functionIFvRKNS3_4util8StatusOrINSN_11ObjectValueEEEEEEE3$_8NSD_IS13_EEFvRKNSV_IN4grpc10ByteBufferEEEEED0Ev', symObjAddr: 0x6ED8, symBinAddr: 0x37834, symSize: 0x64 }
  - { offsetInCU: 0x89F99, offset: 0x2B2D08, size: 0x8, addend: 0x0, symName: '__ZNKSt3__110__function6__funcIZN8firebase9firestore6remote9Datastore32RunAggregateQueryWithCredentialsERKNS3_11credentials9AuthTokenERKNS_12basic_stringIcNS_11char_traitsIcEENS_9allocatorIcEEEERKNS3_4core5QueryERKNS_6vectorINS3_5model14AggregateFieldENSD_ISO_EEEEONS_8functionIFvRKNS3_4util8StatusOrINSN_11ObjectValueEEEEEEE3$_8NSD_IS13_EEFvRKNSV_IN4grpc10ByteBufferEEEEE7__cloneEv', symObjAddr: 0x6F3C, symBinAddr: 0x37898, symSize: 0x54 }
  - { offsetInCU: 0x8A239, offset: 0x2B2FA8, size: 0x8, addend: 0x0, symName: '__ZNSt3__122__compressed_pair_elemIZN8firebase9firestore6remote9Datastore32RunAggregateQueryWithCredentialsERKNS2_11credentials9AuthTokenERKNS_12basic_stringIcNS_11char_traitsIcEENS_9allocatorIcEEEERKNS2_4core5QueryERKNS_6vectorINS2_5model14AggregateFieldENSC_ISN_EEEEONS_8functionIFvRKNS2_4util8StatusOrINSM_11ObjectValueEEEEEEE3$_8Li0ELb0EEC2B8ue170006IJRKS12_EJLm0EEEENS_21piecewise_construct_tENS_5tupleIJDpT_EEENS_15__tuple_indicesIJXspT0_EEEE', symObjAddr: 0x713C, symBinAddr: 0x37A98, symSize: 0x98 }
  - { offsetInCU: 0x8A5F3, offset: 0x2B3362, size: 0x8, addend: 0x0, symName: '__ZNKSt3__110__function6__funcIZN8firebase9firestore6remote9Datastore32RunAggregateQueryWithCredentialsERKNS3_11credentials9AuthTokenERKNS_12basic_stringIcNS_11char_traitsIcEENS_9allocatorIcEEEERKNS3_4core5QueryERKNS_6vectorINS3_5model14AggregateFieldENSD_ISO_EEEEONS_8functionIFvRKNS3_4util8StatusOrINSN_11ObjectValueEEEEEEE3$_8NSD_IS13_EEFvRKNSV_IN4grpc10ByteBufferEEEEE7__cloneEPNS0_6__baseIS1A_EE', symObjAddr: 0x6F90, symBinAddr: 0x378EC, symSize: 0x1C }
  - { offsetInCU: 0x8A73B, offset: 0x2B34AA, size: 0x8, addend: 0x0, symName: '__ZNSt3__110__function6__funcIZN8firebase9firestore6remote9Datastore32RunAggregateQueryWithCredentialsERKNS3_11credentials9AuthTokenERKNS_12basic_stringIcNS_11char_traitsIcEENS_9allocatorIcEEEERKNS3_4core5QueryERKNS_6vectorINS3_5model14AggregateFieldENSD_ISO_EEEEONS_8functionIFvRKNS3_4util8StatusOrINSN_11ObjectValueEEEEEEE3$_8NSD_IS13_EEFvRKNSV_IN4grpc10ByteBufferEEEEE7destroyEv', symObjAddr: 0x6FAC, symBinAddr: 0x37908, symSize: 0x8 }
  - { offsetInCU: 0x8A770, offset: 0x2B34DF, size: 0x8, addend: 0x0, symName: '__ZNSt3__110__function12__alloc_funcIZN8firebase9firestore6remote9Datastore32RunAggregateQueryWithCredentialsERKNS3_11credentials9AuthTokenERKNS_12basic_stringIcNS_11char_traitsIcEENS_9allocatorIcEEEERKNS3_4core5QueryERKNS_6vectorINS3_5model14AggregateFieldENSD_ISO_EEEEONS_8functionIFvRKNS3_4util8StatusOrINSN_11ObjectValueEEEEEEE3$_8NSD_IS13_EEFvRKNSV_IN4grpc10ByteBufferEEEEE7destroyB8ue170006Ev', symObjAddr: 0x7DDC, symBinAddr: 0x38738, symSize: 0x60 }
  - { offsetInCU: 0x8A8F5, offset: 0x2B3664, size: 0x8, addend: 0x0, symName: '__ZNSt3__110__function6__funcIZN8firebase9firestore6remote9Datastore32RunAggregateQueryWithCredentialsERKNS3_11credentials9AuthTokenERKNS_12basic_stringIcNS_11char_traitsIcEENS_9allocatorIcEEEERKNS3_4core5QueryERKNS_6vectorINS3_5model14AggregateFieldENSD_ISO_EEEEONS_8functionIFvRKNS3_4util8StatusOrINSN_11ObjectValueEEEEEEE3$_8NSD_IS13_EEFvRKNSV_IN4grpc10ByteBufferEEEEE18destroy_deallocateEv', symObjAddr: 0x6FB4, symBinAddr: 0x37910, symSize: 0x28 }
  - { offsetInCU: 0x8AA92, offset: 0x2B3801, size: 0x8, addend: 0x0, symName: '__ZNSt3__110__function6__funcIZN8firebase9firestore6remote9Datastore32RunAggregateQueryWithCredentialsERKNS3_11credentials9AuthTokenERKNS_12basic_stringIcNS_11char_traitsIcEENS_9allocatorIcEEEERKNS3_4core5QueryERKNS_6vectorINS3_5model14AggregateFieldENSD_ISO_EEEEONS_8functionIFvRKNS3_4util8StatusOrINSN_11ObjectValueEEEEEEE3$_8NSD_IS13_EEFvRKNSV_IN4grpc10ByteBufferEEEEEclES19_', symObjAddr: 0x6FDC, symBinAddr: 0x37938, symSize: 0x118 }
  - { offsetInCU: 0x8AE35, offset: 0x2B3BA4, size: 0x8, addend: 0x0, symName: '__ZNKSt3__110__function6__funcIZN8firebase9firestore6remote9Datastore32RunAggregateQueryWithCredentialsERKNS3_11credentials9AuthTokenERKNS_12basic_stringIcNS_11char_traitsIcEENS_9allocatorIcEEEERKNS3_4core5QueryERKNS_6vectorINS3_5model14AggregateFieldENSD_ISO_EEEEONS_8functionIFvRKNS3_4util8StatusOrINSN_11ObjectValueEEEEEEE3$_8NSD_IS13_EEFvRKNSV_IN4grpc10ByteBufferEEEEE6targetERKSt9type_info', symObjAddr: 0x70F4, symBinAddr: 0x37A50, symSize: 0x3C }
  - { offsetInCU: 0x8AE82, offset: 0x2B3BF1, size: 0x8, addend: 0x0, symName: '__ZNKSt3__110__function6__funcIZN8firebase9firestore6remote9Datastore32RunAggregateQueryWithCredentialsERKNS3_11credentials9AuthTokenERKNS_12basic_stringIcNS_11char_traitsIcEENS_9allocatorIcEEEERKNS3_4core5QueryERKNS_6vectorINS3_5model14AggregateFieldENSD_ISO_EEEEONS_8functionIFvRKNS3_4util8StatusOrINSN_11ObjectValueEEEEEEE3$_8NSD_IS13_EEFvRKNSV_IN4grpc10ByteBufferEEEEE11target_typeEv', symObjAddr: 0x7130, symBinAddr: 0x37A8C, symSize: 0xC }
  - { offsetInCU: 0x8AF77, offset: 0x2B3CE6, size: 0x8, addend: 0x0, symName: __ZN4absl12lts_2022062318container_internal12raw_hash_setINS1_17FlatHashMapPolicyINSt3__112basic_stringIcNS4_11char_traitsIcEENS4_9allocatorIcEEEESA_EENS1_10StringHashENS1_8StringEqENS8_INS4_4pairIKSA_SA_EEEEEC2ERKSI_RKSH_, symObjAddr: 0x71D4, symBinAddr: 0x37B30, symSize: 0x27C }
  - { offsetInCU: 0x8BBBD, offset: 0x2B492C, size: 0x8, addend: 0x0, symName: __ZN4absl12lts_2022062318container_internal12raw_hash_setINS1_17FlatHashMapPolicyINSt3__112basic_stringIcNS4_11char_traitsIcEENS4_9allocatorIcEEEESA_EENS1_10StringHashENS1_8StringEqENS8_INS4_4pairIKSA_SA_EEEEE7reserveEm, symObjAddr: 0x7450, symBinAddr: 0x37DAC, symSize: 0x60 }
  - { offsetInCU: 0x8BBF2, offset: 0x2B4961, size: 0x8, addend: 0x0, symName: __ZN4absl12lts_2022062318container_internal12raw_hash_setINS1_17FlatHashMapPolicyINSt3__112basic_stringIcNS4_11char_traitsIcEENS4_9allocatorIcEEEESA_EENS1_10StringHashENS1_8StringEqENS8_INS4_4pairIKSA_SA_EEEEE7reserveEm, symObjAddr: 0x7450, symBinAddr: 0x37DAC, symSize: 0x60 }
  - { offsetInCU: 0x8BC7C, offset: 0x2B49EB, size: 0x8, addend: 0x0, symName: __ZN4absl12lts_2022062318container_internal12raw_hash_setINS1_17FlatHashMapPolicyINSt3__112basic_stringIcNS4_11char_traitsIcEENS4_9allocatorIcEEEESA_EENS1_10StringHashENS1_8StringEqENS8_INS4_4pairIKSA_SA_EEEEE5beginEv, symObjAddr: 0x79A4, symBinAddr: 0x38300, symSize: 0x70 }
  - { offsetInCU: 0x8BDE1, offset: 0x2B4B50, size: 0x8, addend: 0x0, symName: __ZN4absl12lts_2022062318container_internal12raw_hash_setINS1_17FlatHashMapPolicyINSt3__112basic_stringIcNS4_11char_traitsIcEENS4_9allocatorIcEEEESA_EENS1_10StringHashENS1_8StringEqENS8_INS4_4pairIKSA_SA_EEEEE8iterator21skip_empty_or_deletedEv, symObjAddr: 0x7A14, symBinAddr: 0x38370, symSize: 0x68 }
  - { offsetInCU: 0x8BDED, offset: 0x2B4B5C, size: 0x8, addend: 0x0, symName: __ZN4absl12lts_2022062313hash_internal15MixingHashState18combine_contiguousES2_PKhm, symObjAddr: 0x78A0, symBinAddr: 0x381FC, symSize: 0x104 }
  - { offsetInCU: 0x8C001, offset: 0x2B4D70, size: 0x8, addend: 0x0, symName: __ZN4absl12lts_2022062318container_internal12raw_hash_setINS1_17FlatHashMapPolicyINSt3__112basic_stringIcNS4_11char_traitsIcEENS4_9allocatorIcEEEESA_EENS1_10StringHashENS1_8StringEqENS8_INS4_4pairIKSA_SA_EEEEE10emplace_atIJRKSG_EEEvmDpOT_, symObjAddr: 0x74B0, symBinAddr: 0x37E0C, symSize: 0xA0 }
  - { offsetInCU: 0x8C3B2, offset: 0x2B5121, size: 0x8, addend: 0x0, symName: __ZN4absl12lts_2022062318container_internal12raw_hash_setINS1_17FlatHashMapPolicyINSt3__112basic_stringIcNS4_11char_traitsIcEENS4_9allocatorIcEEEESA_EENS1_10StringHashENS1_8StringEqENS8_INS4_4pairIKSA_SA_EEEEE16initialize_slotsEv, symObjAddr: 0x7550, symBinAddr: 0x37EAC, symSize: 0xA0 }
  - { offsetInCU: 0x8C3C9, offset: 0x2B5138, size: 0x8, addend: 0x0, symName: __ZN4absl12lts_2022062318container_internal12raw_hash_setINS1_17FlatHashMapPolicyINSt3__112basic_stringIcNS4_11char_traitsIcEENS4_9allocatorIcEEEESA_EENS1_10StringHashENS1_8StringEqENS8_INS4_4pairIKSA_SA_EEEEE8iteratorppEv, symObjAddr: 0x7D94, symBinAddr: 0x386F0, symSize: 0x48 }
  - { offsetInCU: 0x8C42B, offset: 0x2B519A, size: 0x8, addend: 0x0, symName: '__ZNSt3__110__function12__alloc_funcIZN8firebase9firestore6remote9Datastore32RunAggregateQueryWithCredentialsERKNS3_11credentials9AuthTokenERKNS_12basic_stringIcNS_11char_traitsIcEENS_9allocatorIcEEEERKNS3_4core5QueryERKNS_6vectorINS3_5model14AggregateFieldENSD_ISO_EEEEONS_8functionIFvRKNS3_4util8StatusOrINSN_11ObjectValueEEEEEEE3$_8NSD_IS13_EEFvRKNSV_IN4grpc10ByteBufferEEEEE7destroyB8ue170006Ev', symObjAddr: 0x7DDC, symBinAddr: 0x38738, symSize: 0x60 }
  - { offsetInCU: 0x8C437, offset: 0x2B51A6, size: 0x8, addend: 0x0, symName: __ZN4absl12lts_2022062318container_internal12raw_hash_setINS1_17FlatHashMapPolicyINSt3__112basic_stringIcNS4_11char_traitsIcEENS4_9allocatorIcEEEESA_EENS1_10StringHashENS1_8StringEqENS8_INS4_4pairIKSA_SA_EEEEE6resizeEm, symObjAddr: 0x7668, symBinAddr: 0x37FC4, symSize: 0x238 }
  - { offsetInCU: 0x8CD99, offset: 0x2B5B08, size: 0x8, addend: 0x0, symName: __ZN4absl12lts_2022062313hash_internal15MixingHashState18combine_contiguousES2_PKhm, symObjAddr: 0x78A0, symBinAddr: 0x381FC, symSize: 0x104 }
  - { offsetInCU: 0x8D115, offset: 0x2B5E84, size: 0x8, addend: 0x0, symName: __ZNSt3__14pairINS_12basic_stringIcNS_11char_traitsIcEENS_9allocatorIcEEEES6_EC2B8ue170006IKS6_S6_LPv0EEERKNS0_IT_T0_EE, symObjAddr: 0x7ABC, symBinAddr: 0x38418, symSize: 0x94 }
  - { offsetInCU: 0x8D38D, offset: 0x2B60FC, size: 0x8, addend: 0x0, symName: __ZNK4absl12lts_2022062318container_internal12raw_hash_setINS1_17FlatHashMapPolicyINSt3__112basic_stringIcNS4_11char_traitsIcEENS4_9allocatorIcEEEESA_EENS1_10StringHashENS1_8StringEqENS8_INS4_4pairIKSA_SA_EEEEE4findISA_EENSI_14const_iteratorERKT_, symObjAddr: 0x7B50, symBinAddr: 0x384AC, symSize: 0x84 }
  - { offsetInCU: 0x8D720, offset: 0x2B648F, size: 0x8, addend: 0x0, symName: __ZN4absl12lts_2022062318container_internal12raw_hash_setINS1_17FlatHashMapPolicyINSt3__112basic_stringIcNS4_11char_traitsIcEENS4_9allocatorIcEEEESA_EENS1_10StringHashENS1_8StringEqENS8_INS4_4pairIKSA_SA_EEEEE10emplace_atIJRKSG_EEEvmDpOT_.cold.1, symObjAddr: 0xA2FC, symBinAddr: 0x17BBDC, symSize: 0x24 }
  - { offsetInCU: 0x8D77B, offset: 0x2B64EA, size: 0x8, addend: 0x0, symName: __ZN4absl12lts_2022062318container_internal12raw_hash_setINS1_17FlatHashMapPolicyINSt3__112basic_stringIcNS4_11char_traitsIcEENS4_9allocatorIcEEEESA_EENS1_10StringHashENS1_8StringEqENS8_INS4_4pairIKSA_SA_EEEEE10emplace_atIJRKSG_EEEvmDpOT_.cold.4, symObjAddr: 0xA36C, symBinAddr: 0x17BC4C, symSize: 0x28 }
  - { offsetInCU: 0x8D7C0, offset: 0x2B652F, size: 0x8, addend: 0x0, symName: __ZN4absl12lts_2022062318container_internal12raw_hash_setINS1_17FlatHashMapPolicyINSt3__112basic_stringIcNS4_11char_traitsIcEENS4_9allocatorIcEEEESA_EENS1_10StringHashENS1_8StringEqENS8_INS4_4pairIKSA_SA_EEEEE10emplace_atIJRKSG_EEEvmDpOT_.cold.2, symObjAddr: 0xA320, symBinAddr: 0x17BC00, symSize: 0x24 }
  - { offsetInCU: 0x8D81B, offset: 0x2B658A, size: 0x8, addend: 0x0, symName: __ZN4absl12lts_2022062318container_internal12raw_hash_setINS1_17FlatHashMapPolicyINSt3__112basic_stringIcNS4_11char_traitsIcEENS4_9allocatorIcEEEESA_EENS1_10StringHashENS1_8StringEqENS8_INS4_4pairIKSA_SA_EEEEE10emplace_atIJRKSG_EEEvmDpOT_.cold.3, symObjAddr: 0xA344, symBinAddr: 0x17BC24, symSize: 0x28 }
  - { offsetInCU: 0x8D847, offset: 0x2B65B6, size: 0x8, addend: 0x0, symName: __ZN4absl12lts_2022062318container_internal12raw_hash_setINS1_17FlatHashMapPolicyINSt3__112basic_stringIcNS4_11char_traitsIcEENS4_9allocatorIcEEEESA_EENS1_10StringHashENS1_8StringEqENS8_INS4_4pairIKSA_SA_EEEEE16initialize_slotsEv, symObjAddr: 0x7550, symBinAddr: 0x37EAC, symSize: 0xA0 }
  - { offsetInCU: 0x8D9A0, offset: 0x2B670F, size: 0x8, addend: 0x0, symName: __ZN4absl12lts_2022062318container_internal8AllocateILm8ENSt3__19allocatorINS3_4pairIKNS3_12basic_stringIcNS3_11char_traitsIcEENS4_IcEEEESA_EEEEEEPvPT0_m, symObjAddr: 0x75F0, symBinAddr: 0x37F4C, symSize: 0x30 }
  - { offsetInCU: 0x8D9AC, offset: 0x2B671B, size: 0x8, addend: 0x0, symName: __ZN4absl12lts_2022062318container_internal12raw_hash_setINS1_17FlatHashMapPolicyINSt3__112basic_stringIcNS4_11char_traitsIcEENS4_9allocatorIcEEEESA_EENS1_10StringHashENS1_8StringEqENS8_INS4_4pairIKSA_SA_EEEEE17reset_growth_leftEv, symObjAddr: 0x7620, symBinAddr: 0x37F7C, symSize: 0x48 }
  - { offsetInCU: 0x8DA25, offset: 0x2B6794, size: 0x8, addend: 0x0, symName: __ZN4absl12lts_2022062318container_internal12raw_hash_setINS1_17FlatHashMapPolicyINSt3__112basic_stringIcNS4_11char_traitsIcEENS4_9allocatorIcEEEESA_EENS1_10StringHashENS1_8StringEqENS8_INS4_4pairIKSA_SA_EEEEE6resizeEm, symObjAddr: 0x7668, symBinAddr: 0x37FC4, symSize: 0x238 }
  - { offsetInCU: 0x8DA31, offset: 0x2B67A0, size: 0x8, addend: 0x0, symName: __ZN4absl12lts_2022062318container_internal12raw_hash_setINS1_17FlatHashMapPolicyINSt3__112basic_stringIcNS4_11char_traitsIcEENS4_9allocatorIcEEEESA_EENS1_10StringHashENS1_8StringEqENS8_INS4_4pairIKSA_SA_EEEEE16initialize_slotsEv.cold.1, symObjAddr: 0xA394, symBinAddr: 0x17BC74, symSize: 0x28 }
  - { offsetInCU: 0x8DA49, offset: 0x2B67B8, size: 0x8, addend: 0x0, symName: __ZN4absl12lts_2022062318container_internal12raw_hash_setINS1_17FlatHashMapPolicyINSt3__112basic_stringIcNS4_11char_traitsIcEENS4_9allocatorIcEEEESA_EENS1_10StringHashENS1_8StringEqENS8_INS4_4pairIKSA_SA_EEEEE16initialize_slotsEv.cold.3, symObjAddr: 0xA3E0, symBinAddr: 0x17BCC0, symSize: 0x24 }
  - { offsetInCU: 0x8DA8E, offset: 0x2B67FD, size: 0x8, addend: 0x0, symName: __ZN4absl12lts_2022062318container_internal12raw_hash_setINS1_17FlatHashMapPolicyINSt3__112basic_stringIcNS4_11char_traitsIcEENS4_9allocatorIcEEEESA_EENS1_10StringHashENS1_8StringEqENS8_INS4_4pairIKSA_SA_EEEEE16initialize_slotsEv.cold.2, symObjAddr: 0xA3BC, symBinAddr: 0x17BC9C, symSize: 0x24 }
  - { offsetInCU: 0x8DAFB, offset: 0x2B686A, size: 0x8, addend: 0x0, symName: __ZN4absl12lts_2022062318container_internal8AllocateILm8ENSt3__19allocatorINS3_4pairIKNS3_12basic_stringIcNS3_11char_traitsIcEENS4_IcEEEESA_EEEEEEPvPT0_m.cold.1, symObjAddr: 0xA404, symBinAddr: 0x17BCE4, symSize: 0x28 }
  - { offsetInCU: 0x8DB13, offset: 0x2B6882, size: 0x8, addend: 0x0, symName: __ZN4absl12lts_2022062318container_internal8AllocateILm8ENSt3__19allocatorINS3_4pairIKNS3_12basic_stringIcNS3_11char_traitsIcEENS4_IcEEEESA_EEEEEEPvPT0_m.cold.2, symObjAddr: 0xA42C, symBinAddr: 0x17BD0C, symSize: 0x28 }
  - { offsetInCU: 0x8DB3F, offset: 0x2B68AE, size: 0x8, addend: 0x0, symName: __ZN4absl12lts_2022062318container_internal12raw_hash_setINS1_17FlatHashMapPolicyINSt3__112basic_stringIcNS4_11char_traitsIcEENS4_9allocatorIcEEEESA_EENS1_10StringHashENS1_8StringEqENS8_INS4_4pairIKSA_SA_EEEEE17reset_growth_leftEv.cold.1, symObjAddr: 0xA454, symBinAddr: 0x17BD34, symSize: 0x28 }
  - { offsetInCU: 0x8DE09, offset: 0x2B6B78, size: 0x8, addend: 0x0, symName: __ZN4absl12lts_2022062318container_internal12raw_hash_setINS1_17FlatHashMapPolicyINSt3__112basic_stringIcNS4_11char_traitsIcEENS4_9allocatorIcEEEESA_EENS1_10StringHashENS1_8StringEqENS8_INS4_4pairIKSA_SA_EEEEE6resizeEm.cold.1, symObjAddr: 0xA47C, symBinAddr: 0x17BD5C, symSize: 0x28 }
  - { offsetInCU: 0x8DE38, offset: 0x2B6BA7, size: 0x8, addend: 0x0, symName: __ZN4absl12lts_2022062318container_internal12raw_hash_setINS1_17FlatHashMapPolicyINSt3__112basic_stringIcNS4_11char_traitsIcEENS4_9allocatorIcEEEESA_EENS1_10StringHashENS1_8StringEqENS8_INS4_4pairIKSA_SA_EEEEE6resizeEm.cold.4, symObjAddr: 0xA4F0, symBinAddr: 0x17BDD0, symSize: 0x28 }
  - { offsetInCU: 0x8DEA9, offset: 0x2B6C18, size: 0x8, addend: 0x0, symName: __ZN4absl12lts_2022062318container_internal12raw_hash_setINS1_17FlatHashMapPolicyINSt3__112basic_stringIcNS4_11char_traitsIcEENS4_9allocatorIcEEEESA_EENS1_10StringHashENS1_8StringEqENS8_INS4_4pairIKSA_SA_EEEEE6resizeEm.cold.3, symObjAddr: 0xA4C8, symBinAddr: 0x17BDA8, symSize: 0x28 }
  - { offsetInCU: 0x8DEEE, offset: 0x2B6C5D, size: 0x8, addend: 0x0, symName: __ZN4absl12lts_2022062318container_internal12raw_hash_setINS1_17FlatHashMapPolicyINSt3__112basic_stringIcNS4_11char_traitsIcEENS4_9allocatorIcEEEESA_EENS1_10StringHashENS1_8StringEqENS8_INS4_4pairIKSA_SA_EEEEE6resizeEm.cold.5, symObjAddr: 0xA518, symBinAddr: 0x17BDF8, symSize: 0x28 }
  - { offsetInCU: 0x8DF06, offset: 0x2B6C75, size: 0x8, addend: 0x0, symName: __ZN4absl12lts_2022062318container_internal12raw_hash_setINS1_17FlatHashMapPolicyINSt3__112basic_stringIcNS4_11char_traitsIcEENS4_9allocatorIcEEEESA_EENS1_10StringHashENS1_8StringEqENS8_INS4_4pairIKSA_SA_EEEEE6resizeEm.cold.2, symObjAddr: 0xA4A4, symBinAddr: 0x17BD84, symSize: 0x24 }
  - { offsetInCU: 0x8E1AB, offset: 0x2B6F1A, size: 0x8, addend: 0x0, symName: __ZN4absl12lts_2022062318container_internal12raw_hash_setINS1_17FlatHashMapPolicyINSt3__112basic_stringIcNS4_11char_traitsIcEENS4_9allocatorIcEEEESA_EENS1_10StringHashENS1_8StringEqENS8_INS4_4pairIKSA_SA_EEEEE5beginEv.cold.1, symObjAddr: 0xA540, symBinAddr: 0x17BE20, symSize: 0x24 }
  - { offsetInCU: 0x8E206, offset: 0x2B6F75, size: 0x8, addend: 0x0, symName: __ZN4absl12lts_2022062318container_internal12raw_hash_setINS1_17FlatHashMapPolicyINSt3__112basic_stringIcNS4_11char_traitsIcEENS4_9allocatorIcEEEESA_EENS1_10StringHashENS1_8StringEqENS8_INS4_4pairIKSA_SA_EEEEE8iterator21skip_empty_or_deletedEv, symObjAddr: 0x7A14, symBinAddr: 0x38370, symSize: 0x68 }
  - { offsetInCU: 0x8E30B, offset: 0x2B707A, size: 0x8, addend: 0x0, symName: __ZN4absl12lts_2022062318container_internaleqERKNS1_12raw_hash_setINS1_17FlatHashMapPolicyINSt3__112basic_stringIcNS4_11char_traitsIcEENS4_9allocatorIcEEEESA_EENS1_10StringHashENS1_8StringEqENS8_INS4_4pairIKSA_SA_EEEEE8iteratorESL_.cold.2, symObjAddr: 0xA58C, symBinAddr: 0x17BE6C, symSize: 0x28 }
  - { offsetInCU: 0x8E350, offset: 0x2B70BF, size: 0x8, addend: 0x0, symName: __ZN4absl12lts_2022062318container_internaleqERKNS1_12raw_hash_setINS1_17FlatHashMapPolicyINSt3__112basic_stringIcNS4_11char_traitsIcEENS4_9allocatorIcEEEESA_EENS1_10StringHashENS1_8StringEqENS8_INS4_4pairIKSA_SA_EEEEE8iteratorESL_.cold.1, symObjAddr: 0xA564, symBinAddr: 0x17BE44, symSize: 0x28 }
  - { offsetInCU: 0x8E4B4, offset: 0x2B7223, size: 0x8, addend: 0x0, symName: __ZN4absl12lts_2022062318container_internal12raw_hash_setINS1_17FlatHashMapPolicyINSt3__112basic_stringIcNS4_11char_traitsIcEENS4_9allocatorIcEEEESA_EENS1_10StringHashENS1_8StringEqENS8_INS4_4pairIKSA_SA_EEEEE4findISA_EENSI_8iteratorERKT_m, symObjAddr: 0x7BD4, symBinAddr: 0x38530, symSize: 0x150 }
  - { offsetInCU: 0x8E873, offset: 0x2B75E2, size: 0x8, addend: 0x0, symName: __ZNK4absl12lts_2022062318container_internal12raw_hash_setINS1_17FlatHashMapPolicyINSt3__112basic_stringIcNS4_11char_traitsIcEENS4_9allocatorIcEEEESA_EENS1_10StringHashENS1_8StringEqENS8_INS4_4pairIKSA_SA_EEEEE12EqualElementISA_EclISA_JRKNS4_21piecewise_construct_tENS4_5tupleIJRSF_EEESR_EEEbRKT_DpOT0_, symObjAddr: 0x7D24, symBinAddr: 0x38680, symSize: 0x70 }
  - { offsetInCU: 0x8E9F5, offset: 0x2B7764, size: 0x8, addend: 0x0, symName: __ZNK4absl12lts_2022062318container_internal12raw_hash_setINS1_17FlatHashMapPolicyINSt3__112basic_stringIcNS4_11char_traitsIcEENS4_9allocatorIcEEEESA_EENS1_10StringHashENS1_8StringEqENS8_INS4_4pairIKSA_SA_EEEEE12EqualElementISA_EclISA_JRKNS4_21piecewise_construct_tENS4_5tupleIJRSF_EEESR_EEEbRKT_DpOT0_, symObjAddr: 0x7D24, symBinAddr: 0x38680, symSize: 0x70 }
  - { offsetInCU: 0x8EB92, offset: 0x2B7901, size: 0x8, addend: 0x0, symName: __ZN4absl12lts_2022062318container_internal12raw_hash_setINS1_17FlatHashMapPolicyINSt3__112basic_stringIcNS4_11char_traitsIcEENS4_9allocatorIcEEEESA_EENS1_10StringHashENS1_8StringEqENS8_INS4_4pairIKSA_SA_EEEEE4findISA_EENSI_8iteratorERKT_m.cold.1, symObjAddr: 0xA5B4, symBinAddr: 0x17BE94, symSize: 0x28 }
  - { offsetInCU: 0x8EBAA, offset: 0x2B7919, size: 0x8, addend: 0x0, symName: __ZN4absl12lts_2022062318container_internal12raw_hash_setINS1_17FlatHashMapPolicyINSt3__112basic_stringIcNS4_11char_traitsIcEENS4_9allocatorIcEEEESA_EENS1_10StringHashENS1_8StringEqENS8_INS4_4pairIKSA_SA_EEEEE4findISA_EENSI_8iteratorERKT_m.cold.3, symObjAddr: 0xA600, symBinAddr: 0x17BEE0, symSize: 0x28 }
  - { offsetInCU: 0x8EC05, offset: 0x2B7974, size: 0x8, addend: 0x0, symName: __ZN4absl12lts_2022062318container_internal12raw_hash_setINS1_17FlatHashMapPolicyINSt3__112basic_stringIcNS4_11char_traitsIcEENS4_9allocatorIcEEEESA_EENS1_10StringHashENS1_8StringEqENS8_INS4_4pairIKSA_SA_EEEEE4findISA_EENSI_8iteratorERKT_m.cold.2, symObjAddr: 0xA5DC, symBinAddr: 0x17BEBC, symSize: 0x24 }
  - { offsetInCU: 0x8ECB7, offset: 0x2B7A26, size: 0x8, addend: 0x0, symName: __ZN4absl12lts_2022062318container_internal12raw_hash_setINS1_17FlatHashMapPolicyINSt3__112basic_stringIcNS4_11char_traitsIcEENS4_9allocatorIcEEEESA_EENS1_10StringHashENS1_8StringEqENS8_INS4_4pairIKSA_SA_EEEEE8iteratorppEv.cold.1, symObjAddr: 0xA628, symBinAddr: 0x17BF08, symSize: 0x28 }
  - { offsetInCU: 0x8ED31, offset: 0x2B7AA0, size: 0x8, addend: 0x0, symName: __ZNSt3__110shared_ptrIN8firebase9firestore6remote9DatastoreEED2B8ue170006Ev, symObjAddr: 0x7EB0, symBinAddr: 0x3880C, symSize: 0x58 }
  - { offsetInCU: 0x8EFDC, offset: 0x2B7D4B, size: 0x8, addend: 0x0, symName: __ZNSt3__120__shared_ptr_emplaceIN8firebase9firestore6remote9Datastore15CallCredentialsENS_9allocatorIS5_EEEC2B8ue170006IJEEES7_DpOT_, symObjAddr: 0x7F50, symBinAddr: 0x388AC, symSize: 0xA0 }
  - { offsetInCU: 0x8F2D1, offset: 0x2B8040, size: 0x8, addend: 0x0, symName: __ZN8firebase9firestore4util8StatusOrINS0_11credentials9AuthTokenEEC2Ev, symObjAddr: 0x8064, symBinAddr: 0x389C0, symSize: 0xA0 }
  - { offsetInCU: 0x8F6C7, offset: 0x2B8436, size: 0x8, addend: 0x0, symName: __ZNSt3__120__shared_ptr_emplaceIN8firebase9firestore6remote9Datastore15CallCredentialsENS_9allocatorIS5_EEED1Ev, symObjAddr: 0x7FF0, symBinAddr: 0x3894C, symSize: 0x14 }
  - { offsetInCU: 0x8F6E9, offset: 0x2B8458, size: 0x8, addend: 0x0, symName: __ZNSt3__120__shared_ptr_emplaceIN8firebase9firestore6remote9Datastore15CallCredentialsENS_9allocatorIS5_EEED1Ev, symObjAddr: 0x7FF0, symBinAddr: 0x3894C, symSize: 0x14 }
  - { offsetInCU: 0x8F720, offset: 0x2B848F, size: 0x8, addend: 0x0, symName: __ZNSt3__120__shared_ptr_emplaceIN8firebase9firestore6remote9Datastore15CallCredentialsENS_9allocatorIS5_EEED0Ev, symObjAddr: 0x8004, symBinAddr: 0x38960, symSize: 0x24 }
  - { offsetInCU: 0x8F7F1, offset: 0x2B8560, size: 0x8, addend: 0x0, symName: __ZNSt3__120__shared_ptr_emplaceIN8firebase9firestore6remote9Datastore15CallCredentialsENS_9allocatorIS5_EEE16__on_zero_sharedEv, symObjAddr: 0x8028, symBinAddr: 0x38984, symSize: 0x38 }
  - { offsetInCU: 0x8F9D0, offset: 0x2B873F, size: 0x8, addend: 0x0, symName: __ZN8firebase9firestore4util17internal_statusor12StatusOrDataINS0_11credentials9AuthTokenEED2Ev, symObjAddr: 0x8164, symBinAddr: 0x38AC0, symSize: 0x50 }
  - { offsetInCU: 0x8FD5C, offset: 0x2B8ACB, size: 0x8, addend: 0x0, symName: __ZNSt3__120__shared_ptr_emplaceIN8firebase9firestore6remote9Datastore15CallCredentialsENS_9allocatorIS5_EEE21__on_zero_shared_weakEv, symObjAddr: 0x8060, symBinAddr: 0x389BC, symSize: 0x4 }
  - { offsetInCU: 0x8FD8D, offset: 0x2B8AFC, size: 0x8, addend: 0x0, symName: __ZNSt3__120__shared_ptr_emplaceIN8firebase9firestore6remote9Datastore15CallCredentialsENS_9allocatorIS5_EEE21__on_zero_shared_weakEv, symObjAddr: 0x8060, symBinAddr: 0x389BC, symSize: 0x4 }
  - { offsetInCU: 0x8FDB0, offset: 0x2B8B1F, size: 0x8, addend: 0x0, symName: __ZNSt3__120__shared_ptr_emplaceIN8firebase9firestore6remote9Datastore15CallCredentialsENS_9allocatorIS5_EEE21__on_zero_shared_weakEv, symObjAddr: 0x8060, symBinAddr: 0x389BC, symSize: 0x4 }
  - { offsetInCU: 0x8FDD3, offset: 0x2B8B42, size: 0x8, addend: 0x0, symName: __ZNSt3__120__shared_ptr_emplaceIN8firebase9firestore6remote9Datastore15CallCredentialsENS_9allocatorIS5_EEE21__on_zero_shared_weakEv, symObjAddr: 0x8060, symBinAddr: 0x389BC, symSize: 0x4 }
  - { offsetInCU: 0x8FE01, offset: 0x2B8B70, size: 0x8, addend: 0x0, symName: __ZNSt3__120__shared_ptr_emplaceIN8firebase9firestore6remote9Datastore15CallCredentialsENS_9allocatorIS5_EEE21__on_zero_shared_weakEv, symObjAddr: 0x8060, symBinAddr: 0x389BC, symSize: 0x4 }
  - { offsetInCU: 0x8FE2B, offset: 0x2B8B9A, size: 0x8, addend: 0x0, symName: __ZNSt3__120__shared_ptr_emplaceIN8firebase9firestore6remote9Datastore15CallCredentialsENS_9allocatorIS5_EEE21__on_zero_shared_weakEv, symObjAddr: 0x8060, symBinAddr: 0x389BC, symSize: 0x4 }
  - { offsetInCU: 0x8FE58, offset: 0x2B8BC7, size: 0x8, addend: 0x0, symName: __ZN8firebase9firestore4util17internal_statusor12StatusOrDataINS0_11credentials9AuthTokenEEC2EONS1_6StatusE, symObjAddr: 0x8104, symBinAddr: 0x38A60, symSize: 0x60 }
  - { offsetInCU: 0x90372, offset: 0x2B90E1, size: 0x8, addend: 0x0, symName: '__ZNSt3__110__function6__funcIZN8firebase9firestore6remote9Datastore24ResumeRpcWithCredentialsERKNS_8functionIFvRKNS3_4util8StatusOrINS3_11credentials9AuthTokenEEERKNS_12basic_stringIcNS_11char_traitsIcEENS_9allocatorIcEEEEEEEE4$_10NSH_ISQ_EEFvSB_EED1Ev', symObjAddr: 0x8270, symBinAddr: 0x38BCC, symSize: 0x70 }
  - { offsetInCU: 0x905D6, offset: 0x2B9345, size: 0x8, addend: 0x0, symName: '__ZNSt3__110__function6__funcIZN8firebase9firestore6remote9Datastore24ResumeRpcWithCredentialsERKNS_8functionIFvRKNS3_4util8StatusOrINS3_11credentials9AuthTokenEEERKNS_12basic_stringIcNS_11char_traitsIcEENS_9allocatorIcEEEEEEEE4$_10NSH_ISQ_EEFvSB_EED0Ev', symObjAddr: 0x82E0, symBinAddr: 0x38C3C, symSize: 0x70 }
  - { offsetInCU: 0x90A31, offset: 0x2B97A0, size: 0x8, addend: 0x0, symName: '__ZNKSt3__110__function6__funcIZN8firebase9firestore6remote9Datastore24ResumeRpcWithCredentialsERKNS_8functionIFvRKNS3_4util8StatusOrINS3_11credentials9AuthTokenEEERKNS_12basic_stringIcNS_11char_traitsIcEENS_9allocatorIcEEEEEEEE4$_10NSH_ISQ_EEFvSB_EE7__cloneEv', symObjAddr: 0x8350, symBinAddr: 0x38CAC, symSize: 0x54 }
  - { offsetInCU: 0x90CD1, offset: 0x2B9A40, size: 0x8, addend: 0x0, symName: '__ZNSt3__122__compressed_pair_elemIZN8firebase9firestore6remote9Datastore24ResumeRpcWithCredentialsERKNS_8functionIFvRKNS2_4util8StatusOrINS2_11credentials9AuthTokenEEERKNS_12basic_stringIcNS_11char_traitsIcEENS_9allocatorIcEEEEEEEE4$_10Li0ELb0EEC2B8ue170006IJRKSP_EJLm0EEEENS_21piecewise_construct_tENS_5tupleIJDpT_EEENS_15__tuple_indicesIJXspT0_EEEE', symObjAddr: 0x84EC, symBinAddr: 0x38E48, symSize: 0x98 }
  - { offsetInCU: 0x91128, offset: 0x2B9E97, size: 0x8, addend: 0x0, symName: '__ZNKSt3__110__function6__funcIZN8firebase9firestore6remote9Datastore24ResumeRpcWithCredentialsERKNS_8functionIFvRKNS3_4util8StatusOrINS3_11credentials9AuthTokenEEERKNS_12basic_stringIcNS_11char_traitsIcEENS_9allocatorIcEEEEEEEE4$_10NSH_ISQ_EEFvSB_EE7__cloneEPNS0_6__baseISS_EE', symObjAddr: 0x83A4, symBinAddr: 0x38D00, symSize: 0x1C }
  - { offsetInCU: 0x91270, offset: 0x2B9FDF, size: 0x8, addend: 0x0, symName: '__ZNSt3__110__function6__funcIZN8firebase9firestore6remote9Datastore24ResumeRpcWithCredentialsERKNS_8functionIFvRKNS3_4util8StatusOrINS3_11credentials9AuthTokenEEERKNS_12basic_stringIcNS_11char_traitsIcEENS_9allocatorIcEEEEEEEE4$_10NSH_ISQ_EEFvSB_EE7destroyEv', symObjAddr: 0x83C0, symBinAddr: 0x38D1C, symSize: 0x8 }
  - { offsetInCU: 0x912A5, offset: 0x2BA014, size: 0x8, addend: 0x0, symName: '__ZNSt3__110__function12__alloc_funcIZN8firebase9firestore6remote9Datastore24ResumeRpcWithCredentialsERKNS_8functionIFvRKNS3_4util8StatusOrINS3_11credentials9AuthTokenEEERKNS_12basic_stringIcNS_11char_traitsIcEENS_9allocatorIcEEEEEEEE4$_10NSH_ISQ_EEFvSB_EE7destroyB8ue170006Ev', symObjAddr: 0x8584, symBinAddr: 0x38EE0, symSize: 0x68 }
  - { offsetInCU: 0x91496, offset: 0x2BA205, size: 0x8, addend: 0x0, symName: '__ZNSt3__110__function6__funcIZN8firebase9firestore6remote9Datastore24ResumeRpcWithCredentialsERKNS_8functionIFvRKNS3_4util8StatusOrINS3_11credentials9AuthTokenEEERKNS_12basic_stringIcNS_11char_traitsIcEENS_9allocatorIcEEEEEEEE4$_10NSH_ISQ_EEFvSB_EE18destroy_deallocateEv', symObjAddr: 0x83C8, symBinAddr: 0x38D24, symSize: 0x28 }
  - { offsetInCU: 0x91912, offset: 0x2BA681, size: 0x8, addend: 0x0, symName: '__ZNSt3__110__function6__funcIZN8firebase9firestore6remote9Datastore24ResumeRpcWithCredentialsERKNS_8functionIFvRKNS3_4util8StatusOrINS3_11credentials9AuthTokenEEERKNS_12basic_stringIcNS_11char_traitsIcEENS_9allocatorIcEEEEEEEE4$_10NSH_ISQ_EEFvSB_EEclEOSB_', symObjAddr: 0x83F0, symBinAddr: 0x38D4C, symSize: 0xB4 }
  - { offsetInCU: 0x92122, offset: 0x2BAE91, size: 0x8, addend: 0x0, symName: __ZN8firebase9firestore4util17internal_statusor12StatusOrDataINS0_11credentials9AuthTokenEEC2ERKS6_, symObjAddr: 0x8C70, symBinAddr: 0x395CC, symSize: 0x44 }
  - { offsetInCU: 0x9238A, offset: 0x2BB0F9, size: 0x8, addend: 0x0, symName: '__ZNKSt3__110__function6__funcIZN8firebase9firestore6remote9Datastore24ResumeRpcWithCredentialsERKNS_8functionIFvRKNS3_4util8StatusOrINS3_11credentials9AuthTokenEEERKNS_12basic_stringIcNS_11char_traitsIcEENS_9allocatorIcEEEEEEEE4$_10NSH_ISQ_EEFvSB_EE6targetERKSt9type_info', symObjAddr: 0x84A4, symBinAddr: 0x38E00, symSize: 0x3C }
  - { offsetInCU: 0x923D7, offset: 0x2BB146, size: 0x8, addend: 0x0, symName: '__ZNKSt3__110__function6__funcIZN8firebase9firestore6remote9Datastore24ResumeRpcWithCredentialsERKNS_8functionIFvRKNS3_4util8StatusOrINS3_11credentials9AuthTokenEEERKNS_12basic_stringIcNS_11char_traitsIcEENS_9allocatorIcEEEEEEEE4$_10NSH_ISQ_EEFvSB_EE11target_typeEv', symObjAddr: 0x84E0, symBinAddr: 0x38E3C, symSize: 0xC }
  - { offsetInCU: 0x92AE4, offset: 0x2BB853, size: 0x8, addend: 0x0, symName: __ZN8firebase9firestore4util17internal_statusor12StatusOrDataINS0_11credentials9AuthTokenEEaSERKS6_, symObjAddr: 0x8A38, symBinAddr: 0x39394, symSize: 0x48 }
  - { offsetInCU: 0x92BB8, offset: 0x2BB927, size: 0x8, addend: 0x0, symName: '__ZZZN8firebase9firestore6remote9Datastore24ResumeRpcWithCredentialsERKNSt3__18functionIFvRKNS0_4util8StatusOrINS0_11credentials9AuthTokenEEERKNS3_12basic_stringIcNS3_11char_traitsIcEENS3_9allocatorIcEEEEEEEENK3$_9clERKN4absl12lts_202206238optionalIS9_EERKNSR_ISH_EEENUlvE_D1Ev', symObjAddr: 0x89C4, symBinAddr: 0x39320, symSize: 0x74 }
  - { offsetInCU: 0x92E35, offset: 0x2BBBA4, size: 0x8, addend: 0x0, symName: __ZN8firebase9firestore4util17internal_statusor12StatusOrDataINS0_11credentials9AuthTokenEE6AssignERKNS1_6StatusE, symObjAddr: 0x8B38, symBinAddr: 0x39494, symSize: 0x54 }
  - { offsetInCU: 0x92F8D, offset: 0x2BBCFC, size: 0x8, addend: 0x0, symName: __ZN8firebase9firestore4util17internal_statusor12StatusOrDataINS0_11credentials9AuthTokenEE6AssignERKS5_, symObjAddr: 0x8A80, symBinAddr: 0x393DC, symSize: 0xB8 }
  - { offsetInCU: 0x93613, offset: 0x2BC382, size: 0x8, addend: 0x0, symName: __ZN8firebase9firestore4util17internal_statusor12StatusOrDataINS0_11credentials9AuthTokenEE5ClearEv, symObjAddr: 0x8C24, symBinAddr: 0x39580, symSize: 0x4C }
  - { offsetInCU: 0x93ABD, offset: 0x2BC82C, size: 0x8, addend: 0x0, symName: '__ZNSt3__110__function6__funcIZZN8firebase9firestore6remote9Datastore24ResumeRpcWithCredentialsERKNS_8functionIFvRKNS3_4util8StatusOrINS3_11credentials9AuthTokenEEERKNS_12basic_stringIcNS_11char_traitsIcEENS_9allocatorIcEEEEEEEENK3$_9clERKN4absl12lts_202206238optionalISB_EERKNST_ISJ_EEEUlvE_NSH_IS10_EEFvvEED1Ev', symObjAddr: 0x8CB4, symBinAddr: 0x39610, symSize: 0x80 }
  - { offsetInCU: 0x93E30, offset: 0x2BCB9F, size: 0x8, addend: 0x0, symName: '__ZNSt3__110__function6__funcIZZN8firebase9firestore6remote9Datastore24ResumeRpcWithCredentialsERKNS_8functionIFvRKNS3_4util8StatusOrINS3_11credentials9AuthTokenEEERKNS_12basic_stringIcNS_11char_traitsIcEENS_9allocatorIcEEEEEEEENK3$_9clERKN4absl12lts_202206238optionalISB_EERKNST_ISJ_EEEUlvE_NSH_IS10_EEFvvEED0Ev', symObjAddr: 0x8D34, symBinAddr: 0x39690, symSize: 0x80 }
  - { offsetInCU: 0x9439A, offset: 0x2BD109, size: 0x8, addend: 0x0, symName: '__ZNKSt3__110__function6__funcIZZN8firebase9firestore6remote9Datastore24ResumeRpcWithCredentialsERKNS_8functionIFvRKNS3_4util8StatusOrINS3_11credentials9AuthTokenEEERKNS_12basic_stringIcNS_11char_traitsIcEENS_9allocatorIcEEEEEEEENK3$_9clERKN4absl12lts_202206238optionalISB_EERKNST_ISJ_EEEUlvE_NSH_IS10_EEFvvEE7__cloneEv', symObjAddr: 0x8DB4, symBinAddr: 0x39710, symSize: 0x54 }
  - { offsetInCU: 0x9463C, offset: 0x2BD3AB, size: 0x8, addend: 0x0, symName: '__ZNSt3__122__compressed_pair_elemIZZN8firebase9firestore6remote9Datastore24ResumeRpcWithCredentialsERKNS_8functionIFvRKNS2_4util8StatusOrINS2_11credentials9AuthTokenEEERKNS_12basic_stringIcNS_11char_traitsIcEENS_9allocatorIcEEEEEEEENK3$_9clERKN4absl12lts_202206238optionalISA_EERKNSS_ISI_EEEUlvE_Li0ELb0EEC2B8ue170006IJRKSZ_EJLm0EEEENS_21piecewise_construct_tENS_5tupleIJDpT_EEENS_15__tuple_indicesIJXspT0_EEEE', symObjAddr: 0x8F64, symBinAddr: 0x398C0, symSize: 0xD8 }
  - { offsetInCU: 0x94BBA, offset: 0x2BD929, size: 0x8, addend: 0x0, symName: '__ZNKSt3__110__function6__funcIZZN8firebase9firestore6remote9Datastore24ResumeRpcWithCredentialsERKNS_8functionIFvRKNS3_4util8StatusOrINS3_11credentials9AuthTokenEEERKNS_12basic_stringIcNS_11char_traitsIcEENS_9allocatorIcEEEEEEEENK3$_9clERKN4absl12lts_202206238optionalISB_EERKNST_ISJ_EEEUlvE_NSH_IS10_EEFvvEE7__cloneEPNS0_6__baseIS12_EE', symObjAddr: 0x8E08, symBinAddr: 0x39764, symSize: 0x1C }
  - { offsetInCU: 0x94D02, offset: 0x2BDA71, size: 0x8, addend: 0x0, symName: '__ZNSt3__110__function6__funcIZZN8firebase9firestore6remote9Datastore24ResumeRpcWithCredentialsERKNS_8functionIFvRKNS3_4util8StatusOrINS3_11credentials9AuthTokenEEERKNS_12basic_stringIcNS_11char_traitsIcEENS_9allocatorIcEEEEEEEENK3$_9clERKN4absl12lts_202206238optionalISB_EERKNST_ISJ_EEEUlvE_NSH_IS10_EEFvvEE7destroyEv', symObjAddr: 0x8E24, symBinAddr: 0x39780, symSize: 0x8 }
  - { offsetInCU: 0x94D37, offset: 0x2BDAA6, size: 0x8, addend: 0x0, symName: '__ZNSt3__110__function12__alloc_funcIZZN8firebase9firestore6remote9Datastore24ResumeRpcWithCredentialsERKNS_8functionIFvRKNS3_4util8StatusOrINS3_11credentials9AuthTokenEEERKNS_12basic_stringIcNS_11char_traitsIcEENS_9allocatorIcEEEEEEEENK3$_9clERKN4absl12lts_202206238optionalISB_EERKNST_ISJ_EEEUlvE_NSH_IS10_EEFvvEE7destroyB8ue170006Ev', symObjAddr: 0x903C, symBinAddr: 0x39998, symSize: 0x78 }
  - { offsetInCU: 0x95035, offset: 0x2BDDA4, size: 0x8, addend: 0x0, symName: '__ZNSt3__110__function6__funcIZZN8firebase9firestore6remote9Datastore24ResumeRpcWithCredentialsERKNS_8functionIFvRKNS3_4util8StatusOrINS3_11credentials9AuthTokenEEERKNS_12basic_stringIcNS_11char_traitsIcEENS_9allocatorIcEEEEEEEENK3$_9clERKN4absl12lts_202206238optionalISB_EERKNST_ISJ_EEEUlvE_NSH_IS10_EEFvvEE18destroy_deallocateEv', symObjAddr: 0x8E2C, symBinAddr: 0x39788, symSize: 0x28 }
  - { offsetInCU: 0x951EB, offset: 0x2BDF5A, size: 0x8, addend: 0x0, symName: '__ZNSt3__110__function6__funcIZZN8firebase9firestore6remote9Datastore24ResumeRpcWithCredentialsERKNS_8functionIFvRKNS3_4util8StatusOrINS3_11credentials9AuthTokenEEERKNS_12basic_stringIcNS_11char_traitsIcEENS_9allocatorIcEEEEEEEENK3$_9clERKN4absl12lts_202206238optionalISB_EERKNST_ISJ_EEEUlvE_NSH_IS10_EEFvvEEclEv', symObjAddr: 0x8E54, symBinAddr: 0x397B0, symSize: 0xC8 }
  - { offsetInCU: 0x95427, offset: 0x2BE196, size: 0x8, addend: 0x0, symName: '__ZNSt3__110__function6__funcIZZN8firebase9firestore6remote9Datastore24ResumeRpcWithCredentialsERKNS_8functionIFvRKNS3_4util8StatusOrINS3_11credentials9AuthTokenEEERKNS_12basic_stringIcNS_11char_traitsIcEENS_9allocatorIcEEEEEEEENK3$_9clERKN4absl12lts_202206238optionalISB_EERKNST_ISJ_EEEUlvE_NSH_IS10_EEFvvEEclEv.cold.1', symObjAddr: 0xA650, symBinAddr: 0x17BF30, symSize: 0x2C }
  - { offsetInCU: 0x954F1, offset: 0x2BE260, size: 0x8, addend: 0x0, symName: '__ZNKSt3__110__function6__funcIZZN8firebase9firestore6remote9Datastore24ResumeRpcWithCredentialsERKNS_8functionIFvRKNS3_4util8StatusOrINS3_11credentials9AuthTokenEEERKNS_12basic_stringIcNS_11char_traitsIcEENS_9allocatorIcEEEEEEEENK3$_9clERKN4absl12lts_202206238optionalISB_EERKNST_ISJ_EEEUlvE_NSH_IS10_EEFvvEE6targetERKSt9type_info', symObjAddr: 0x8F1C, symBinAddr: 0x39878, symSize: 0x3C }
  - { offsetInCU: 0x9553E, offset: 0x2BE2AD, size: 0x8, addend: 0x0, symName: '__ZNKSt3__110__function6__funcIZZN8firebase9firestore6remote9Datastore24ResumeRpcWithCredentialsERKNS_8functionIFvRKNS3_4util8StatusOrINS3_11credentials9AuthTokenEEERKNS_12basic_stringIcNS_11char_traitsIcEENS_9allocatorIcEEEEEEEENK3$_9clERKN4absl12lts_202206238optionalISB_EERKNST_ISJ_EEEUlvE_NSH_IS10_EEFvvEE11target_typeEv', symObjAddr: 0x8F58, symBinAddr: 0x398B4, symSize: 0xC }
  - { offsetInCU: 0x95647, offset: 0x2BE3B6, size: 0x8, addend: 0x0, symName: '__ZNSt3__110__function6__funcIZN8firebase9firestore6remote9Datastore24ResumeRpcWithCredentialsERKNS_8functionIFvRKNS3_4util8StatusOrINS3_11credentials9AuthTokenEEERKNS_12basic_stringIcNS_11char_traitsIcEENS_9allocatorIcEEEEEEEE4$_11NSH_ISQ_EEFvNS8_ISJ_EEEED1Ev', symObjAddr: 0x90B4, symBinAddr: 0x39A10, symSize: 0x70 }
